               
                 
                 ;CodeVisionAVR C Compiler V2.05.0 Professional
                 ;(C) Copyright 1998-2010 Pavel Haiduc, HP InfoTech s.r.l.
                 ;http://www.hpinfotech.com
                 
                 ;Chip type                : ATmega16
                 ;Program type             : Application
                 ;Clock frequency          : 16,000000 MHz
                 ;Memory model             : Small
                 ;Optimize for             : Size
                 ;(s)printf features       : int, width
                 ;(s)scanf features        : int, width
                 ;External RAM size        : 0
                 ;Data Stack size          : 256 byte(s)
                 ;Heap size                : 0 byte(s)
                 ;Promote 'char' to 'int'  : Yes
                 ;'char' is unsigned       : Yes
                 ;8 bit enums              : Yes
                 ;global 'const' stored in FLASH: No
                 ;Enhanced core instructions    : On
                 ;Smart register allocation     : On
                 ;Automatic register allocation : On
                 
                 	#pragma AVRPART ADMIN PART_NAME ATmega16
                 	#pragma AVRPART MEMORY PROG_FLASH 16384
                 	#pragma AVRPART MEMORY EEPROM 512
                 	#pragma AVRPART MEMORY INT_SRAM SIZE 1119
                 	#pragma AVRPART MEMORY INT_SRAM START_ADDR 0x60
                 
                 	#define CALL_SUPPORTED 1
                 
                 	.LISTMAC
                 	.EQU UDRE=0x5
                 	.EQU RXC=0x7
                 	.EQU USR=0xB
                 	.EQU UDR=0xC
                 	.EQU SPSR=0xE
                 	.EQU SPDR=0xF
                 	.EQU EERE=0x0
                 	.EQU EEWE=0x1
                 	.EQU EEMWE=0x2
                 	.EQU EECR=0x1C
                 	.EQU EEDR=0x1D
                 	.EQU EEARL=0x1E
                 	.EQU EEARH=0x1F
                 	.EQU WDTCR=0x21
                 	.EQU MCUCR=0x35
                 	.EQU GICR=0x3B
                 	.EQU SPL=0x3D
                 	.EQU SPH=0x3E
                 	.EQU SREG=0x3F
                 
                 	.DEF R0X0=R0
                 	.DEF R0X1=R1
                 	.DEF R0X2=R2
                 	.DEF R0X3=R3
                 	.DEF R0X4=R4
                 	.DEF R0X5=R5
                 	.DEF R0X6=R6
                 	.DEF R0X7=R7
                 	.DEF R0X8=R8
                 	.DEF R0X9=R9
                 	.DEF R0XA=R10
                 	.DEF R0XB=R11
                 	.DEF R0XC=R12
                 	.DEF R0XD=R13
                 	.DEF R0XE=R14
                 	.DEF R0XF=R15
                 	.DEF R0X10=R16
                 	.DEF R0X11=R17
                 	.DEF R0X12=R18
                 	.DEF R0X13=R19
                 	.DEF R0X14=R20
                 	.DEF R0X15=R21
                 	.DEF R0X16=R22
                 	.DEF R0X17=R23
                 	.DEF R0X18=R24
                 	.DEF R0X19=R25
                 	.DEF R0X1A=R26
                 	.DEF R0X1B=R27
                 	.DEF R0X1C=R28
                 	.DEF R0X1D=R29
                 	.DEF R0X1E=R30
                 	.DEF R0X1F=R31
                 
                 	.EQU __SRAM_START=0x0060
                 	.EQU __SRAM_END=0x045F
                 	.EQU __DSTACK_SIZE=0x0100
                 	.EQU __HEAP_SIZE=0x0000
                 	.EQU __CLEAR_SRAM_SIZE=__SRAM_END-__SRAM_START+1
                 
                 	.MACRO __CPD1N
                 	CPI  R30,LOW(@0)
                 	LDI  R26,HIGH(@0)
                 	CPC  R31,R26
                 	LDI  R26,BYTE3(@0)
                 	CPC  R22,R26
                 	LDI  R26,BYTE4(@0)
                 	CPC  R23,R26
                 	.ENDM
                 
                 	.MACRO __CPD2N
                 	CPI  R26,LOW(@0)
                 	LDI  R30,HIGH(@0)
                 	CPC  R27,R30
                 	LDI  R30,BYTE3(@0)
                 	CPC  R24,R30
                 	LDI  R30,BYTE4(@0)
                 	CPC  R25,R30
                 	.ENDM
                 
                 	.MACRO __CPWRR
                 	CP   R@0,R@2
                 	CPC  R@1,R@3
                 	.ENDM
                 
                 	.MACRO __CPWRN
                 	CPI  R@0,LOW(@2)
                 	LDI  R30,HIGH(@2)
                 	CPC  R@1,R30
                 	.ENDM
                 
                 	.MACRO __ADDB1MN
                 	SUBI R30,LOW(-@0-(@1))
                 	.ENDM
                 
                 	.MACRO __ADDB2MN
                 	SUBI R26,LOW(-@0-(@1))
                 	.ENDM
                 
                 	.MACRO __ADDW1MN
                 	SUBI R30,LOW(-@0-(@1))
                 	SBCI R31,HIGH(-@0-(@1))
                 	.ENDM
                 
                 	.MACRO __ADDW2MN
                 	SUBI R26,LOW(-@0-(@1))
                 	SBCI R27,HIGH(-@0-(@1))
                 	.ENDM
                 
                 	.MACRO __ADDW1FN
                 	SUBI R30,LOW(-2*@0-(@1))
                 	SBCI R31,HIGH(-2*@0-(@1))
                 	.ENDM
                 
                 	.MACRO __ADDD1FN
                 	SUBI R30,LOW(-2*@0-(@1))
                 	SBCI R31,HIGH(-2*@0-(@1))
                 	SBCI R22,BYTE3(-2*@0-(@1))
                 	.ENDM
                 
                 	.MACRO __ADDD1N
                 	SUBI R30,LOW(-@0)
                 	SBCI R31,HIGH(-@0)
                 	SBCI R22,BYTE3(-@0)
                 	SBCI R23,BYTE4(-@0)
                 	.ENDM
                 
                 	.MACRO __ADDD2N
                 	SUBI R26,LOW(-@0)
                 	SBCI R27,HIGH(-@0)
                 	SBCI R24,BYTE3(-@0)
                 	SBCI R25,BYTE4(-@0)
                 	.ENDM
                 
                 	.MACRO __SUBD1N
                 	SUBI R30,LOW(@0)
                 	SBCI R31,HIGH(@0)
                 	SBCI R22,BYTE3(@0)
                 	SBCI R23,BYTE4(@0)
                 	.ENDM
                 
                 	.MACRO __SUBD2N
                 	SUBI R26,LOW(@0)
                 	SBCI R27,HIGH(@0)
                 	SBCI R24,BYTE3(@0)
                 	SBCI R25,BYTE4(@0)
                 	.ENDM
                 
                 	.MACRO __ANDBMNN
                 	LDS  R30,@0+(@1)
                 	ANDI R30,LOW(@2)
                 	STS  @0+(@1),R30
                 	.ENDM
                 
                 	.MACRO __ANDWMNN
                 	LDS  R30,@0+(@1)
                 	ANDI R30,LOW(@2)
                 	STS  @0+(@1),R30
                 	LDS  R30,@0+(@1)+1
                 	ANDI R30,HIGH(@2)
                 	STS  @0+(@1)+1,R30
                 	.ENDM
                 
                 	.MACRO __ANDD1N
                 	ANDI R30,LOW(@0)
                 	ANDI R31,HIGH(@0)
                 	ANDI R22,BYTE3(@0)
                 	ANDI R23,BYTE4(@0)
                 	.ENDM
                 
                 	.MACRO __ANDD2N
                 	ANDI R26,LOW(@0)
                 	ANDI R27,HIGH(@0)
                 	ANDI R24,BYTE3(@0)
                 	ANDI R25,BYTE4(@0)
                 	.ENDM
                 
                 	.MACRO __ORBMNN
                 	LDS  R30,@0+(@1)
                 	ORI  R30,LOW(@2)
                 	STS  @0+(@1),R30
                 	.ENDM
                 
                 	.MACRO __ORWMNN
                 	LDS  R30,@0+(@1)
                 	ORI  R30,LOW(@2)
                 	STS  @0+(@1),R30
                 	LDS  R30,@0+(@1)+1
                 	ORI  R30,HIGH(@2)
                 	STS  @0+(@1)+1,R30
                 	.ENDM
                 
                 	.MACRO __ORD1N
                 	ORI  R30,LOW(@0)
                 	ORI  R31,HIGH(@0)
                 	ORI  R22,BYTE3(@0)
                 	ORI  R23,BYTE4(@0)
                 	.ENDM
                 
                 	.MACRO __ORD2N
                 	ORI  R26,LOW(@0)
                 	ORI  R27,HIGH(@0)
                 	ORI  R24,BYTE3(@0)
                 	ORI  R25,BYTE4(@0)
                 	.ENDM
                 
                 	.MACRO __DELAY_USB
                 	LDI  R24,LOW(@0)
                 __DELAY_USB_LOOP:
                 	DEC  R24
                 	BRNE __DELAY_USB_LOOP
                 	.ENDM
                 
                 	.MACRO __DELAY_USW
                 	LDI  R24,LOW(@0)
                 	LDI  R25,HIGH(@0)
                 __DELAY_USW_LOOP:
                 	SBIW R24,1
                 	BRNE __DELAY_USW_LOOP
                 	.ENDM
                 
                 	.MACRO __GETD1S
                 	LDD  R30,Y+@0
                 	LDD  R31,Y+@0+1
                 	LDD  R22,Y+@0+2
                 	LDD  R23,Y+@0+3
                 	.ENDM
                 
                 	.MACRO __GETD2S
                 	LDD  R26,Y+@0
                 	LDD  R27,Y+@0+1
                 	LDD  R24,Y+@0+2
                 	LDD  R25,Y+@0+3
                 	.ENDM
                 
                 	.MACRO __PUTD1S
                 	STD  Y+@0,R30
                 	STD  Y+@0+1,R31
                 	STD  Y+@0+2,R22
                 	STD  Y+@0+3,R23
                 	.ENDM
                 
                 	.MACRO __PUTD2S
                 	STD  Y+@0,R26
                 	STD  Y+@0+1,R27
                 	STD  Y+@0+2,R24
                 	STD  Y+@0+3,R25
                 	.ENDM
                 
                 	.MACRO __PUTDZ2
                 	STD  Z+@0,R26
                 	STD  Z+@0+1,R27
                 	STD  Z+@0+2,R24
                 	STD  Z+@0+3,R25
                 	.ENDM
                 
                 	.MACRO __CLRD1S
                 	STD  Y+@0,R30
                 	STD  Y+@0+1,R30
                 	STD  Y+@0+2,R30
                 	STD  Y+@0+3,R30
                 	.ENDM
                 
                 	.MACRO __POINTB1MN
                 	LDI  R30,LOW(@0+(@1))
                 	.ENDM
                 
                 	.MACRO __POINTW1MN
                 	LDI  R30,LOW(@0+(@1))
                 	LDI  R31,HIGH(@0+(@1))
                 	.ENDM
                 
                 	.MACRO __POINTD1M
                 	LDI  R30,LOW(@0)
                 	LDI  R31,HIGH(@0)
                 	LDI  R22,BYTE3(@0)
                 	LDI  R23,BYTE4(@0)
                 	.ENDM
                 
                 	.MACRO __POINTW1FN
                 	LDI  R30,LOW(2*@0+(@1))
                 	LDI  R31,HIGH(2*@0+(@1))
                 	.ENDM
                 
                 	.MACRO __POINTD1FN
                 	LDI  R30,LOW(2*@0+(@1))
                 	LDI  R31,HIGH(2*@0+(@1))
                 	LDI  R22,BYTE3(2*@0+(@1))
                 	LDI  R23,BYTE4(2*@0+(@1))
                 	.ENDM
                 
                 	.MACRO __POINTB2MN
                 	LDI  R26,LOW(@0+(@1))
                 	.ENDM
                 
                 	.MACRO __POINTW2MN
                 	LDI  R26,LOW(@0+(@1))
                 	LDI  R27,HIGH(@0+(@1))
                 	.ENDM
                 
                 	.MACRO __POINTBRM
                 	LDI  R@0,LOW(@1)
                 	.ENDM
                 
                 	.MACRO __POINTWRM
                 	LDI  R@0,LOW(@2)
                 	LDI  R@1,HIGH(@2)
                 	.ENDM
                 
                 	.MACRO __POINTBRMN
                 	LDI  R@0,LOW(@1+(@2))
                 	.ENDM
                 
                 	.MACRO __POINTWRMN
                 	LDI  R@0,LOW(@2+(@3))
                 	LDI  R@1,HIGH(@2+(@3))
                 	.ENDM
                 
                 	.MACRO __POINTWRFN
                 	LDI  R@0,LOW(@2*2+(@3))
                 	LDI  R@1,HIGH(@2*2+(@3))
                 	.ENDM
                 
                 	.MACRO __GETD1N
                 	LDI  R30,LOW(@0)
                 	LDI  R31,HIGH(@0)
                 	LDI  R22,BYTE3(@0)
                 	LDI  R23,BYTE4(@0)
                 	.ENDM
                 
                 	.MACRO __GETD2N
                 	LDI  R26,LOW(@0)
                 	LDI  R27,HIGH(@0)
                 	LDI  R24,BYTE3(@0)
                 	LDI  R25,BYTE4(@0)
                 	.ENDM
                 
                 	.MACRO __GETB1MN
                 	LDS  R30,@0+(@1)
                 	.ENDM
                 
                 	.MACRO __GETB1HMN
                 	LDS  R31,@0+(@1)
                 	.ENDM
                 
                 	.MACRO __GETW1MN
                 	LDS  R30,@0+(@1)
                 	LDS  R31,@0+(@1)+1
                 	.ENDM
                 
                 	.MACRO __GETD1MN
                 	LDS  R30,@0+(@1)
                 	LDS  R31,@0+(@1)+1
                 	LDS  R22,@0+(@1)+2
                 	LDS  R23,@0+(@1)+3
                 	.ENDM
                 
                 	.MACRO __GETBRMN
                 	LDS  R@0,@1+(@2)
                 	.ENDM
                 
                 	.MACRO __GETWRMN
                 	LDS  R@0,@2+(@3)
                 	LDS  R@1,@2+(@3)+1
                 	.ENDM
                 
                 	.MACRO __GETWRZ
                 	LDD  R@0,Z+@2
                 	LDD  R@1,Z+@2+1
                 	.ENDM
                 
                 	.MACRO __GETD2Z
                 	LDD  R26,Z+@0
                 	LDD  R27,Z+@0+1
                 	LDD  R24,Z+@0+2
                 	LDD  R25,Z+@0+3
                 	.ENDM
                 
                 	.MACRO __GETB2MN
                 	LDS  R26,@0+(@1)
                 	.ENDM
                 
                 	.MACRO __GETW2MN
                 	LDS  R26,@0+(@1)
                 	LDS  R27,@0+(@1)+1
                 	.ENDM
                 
                 	.MACRO __GETD2MN
                 	LDS  R26,@0+(@1)
                 	LDS  R27,@0+(@1)+1
                 	LDS  R24,@0+(@1)+2
                 	LDS  R25,@0+(@1)+3
                 	.ENDM
                 
                 	.MACRO __PUTB1MN
                 	STS  @0+(@1),R30
                 	.ENDM
                 
                 	.MACRO __PUTW1MN
                 	STS  @0+(@1),R30
                 	STS  @0+(@1)+1,R31
                 	.ENDM
                 
                 	.MACRO __PUTD1MN
                 	STS  @0+(@1),R30
                 	STS  @0+(@1)+1,R31
                 	STS  @0+(@1)+2,R22
                 	STS  @0+(@1)+3,R23
                 	.ENDM
                 
                 	.MACRO __PUTB1EN
                 	LDI  R26,LOW(@0+(@1))
                 	LDI  R27,HIGH(@0+(@1))
                 	CALL __EEPROMWRB
                 	.ENDM
                 
                 	.MACRO __PUTW1EN
                 	LDI  R26,LOW(@0+(@1))
                 	LDI  R27,HIGH(@0+(@1))
                 	CALL __EEPROMWRW
                 	.ENDM
                 
                 	.MACRO __PUTD1EN
                 	LDI  R26,LOW(@0+(@1))
                 	LDI  R27,HIGH(@0+(@1))
                 	CALL __EEPROMWRD
                 	.ENDM
                 
                 	.MACRO __PUTBR0MN
                 	STS  @0+(@1),R0
                 	.ENDM
                 
                 	.MACRO __PUTBMRN
                 	STS  @0+(@1),R@2
                 	.ENDM
                 
                 	.MACRO __PUTWMRN
                 	STS  @0+(@1),R@2
                 	STS  @0+(@1)+1,R@3
                 	.ENDM
                 
                 	.MACRO __PUTBZR
                 	STD  Z+@1,R@0
                 	.ENDM
                 
                 	.MACRO __PUTWZR
                 	STD  Z+@2,R@0
                 	STD  Z+@2+1,R@1
                 	.ENDM
                 
                 	.MACRO __GETW1R
                 	MOV  R30,R@0
                 	MOV  R31,R@1
                 	.ENDM
                 
                 	.MACRO __GETW2R
                 	MOV  R26,R@0
                 	MOV  R27,R@1
                 	.ENDM
                 
                 	.MACRO __GETWRN
                 	LDI  R@0,LOW(@2)
                 	LDI  R@1,HIGH(@2)
                 	.ENDM
                 
                 	.MACRO __PUTW1R
                 	MOV  R@0,R30
                 	MOV  R@1,R31
                 	.ENDM
                 
                 	.MACRO __PUTW2R
                 	MOV  R@0,R26
                 	MOV  R@1,R27
                 	.ENDM
                 
                 	.MACRO __ADDWRN
                 	SUBI R@0,LOW(-@2)
                 	SBCI R@1,HIGH(-@2)
                 	.ENDM
                 
                 	.MACRO __ADDWRR
                 	ADD  R@0,R@2
                 	ADC  R@1,R@3
                 	.ENDM
                 
                 	.MACRO __SUBWRN
                 	SUBI R@0,LOW(@2)
                 	SBCI R@1,HIGH(@2)
                 	.ENDM
                 
                 	.MACRO __SUBWRR
                 	SUB  R@0,R@2
                 	SBC  R@1,R@3
                 	.ENDM
                 
                 	.MACRO __ANDWRN
                 	ANDI R@0,LOW(@2)
                 	ANDI R@1,HIGH(@2)
                 	.ENDM
                 
                 	.MACRO __ANDWRR
                 	AND  R@0,R@2
                 	AND  R@1,R@3
                 	.ENDM
                 
                 	.MACRO __ORWRN
                 	ORI  R@0,LOW(@2)
                 	ORI  R@1,HIGH(@2)
                 	.ENDM
                 
                 	.MACRO __ORWRR
                 	OR   R@0,R@2
                 	OR   R@1,R@3
                 	.ENDM
                 
                 	.MACRO __EORWRR
                 	EOR  R@0,R@2
                 	EOR  R@1,R@3
                 	.ENDM
                 
                 	.MACRO __GETWRS
                 	LDD  R@0,Y+@2
                 	LDD  R@1,Y+@2+1
                 	.ENDM
                 
                 	.MACRO __PUTBSR
                 	STD  Y+@1,R@0
                 	.ENDM
                 
                 	.MACRO __PUTWSR
                 	STD  Y+@2,R@0
                 	STD  Y+@2+1,R@1
                 	.ENDM
                 
                 	.MACRO __MOVEWRR
                 	MOV  R@0,R@2
                 	MOV  R@1,R@3
                 	.ENDM
                 
                 	.MACRO __INWR
                 	IN   R@0,@2
                 	IN   R@1,@2+1
                 	.ENDM
                 
                 	.MACRO __OUTWR
                 	OUT  @2+1,R@1
                 	OUT  @2,R@0
                 	.ENDM
                 
                 	.MACRO __CALL1MN
                 	LDS  R30,@0+(@1)
                 	LDS  R31,@0+(@1)+1
                 	ICALL
                 	.ENDM
                 
                 	.MACRO __CALL1FN
                 	LDI  R30,LOW(2*@0+(@1))
                 	LDI  R31,HIGH(2*@0+(@1))
                 	CALL __GETW1PF
                 	ICALL
                 	.ENDM
                 
                 	.MACRO __CALL2EN
                 	LDI  R26,LOW(@0+(@1))
                 	LDI  R27,HIGH(@0+(@1))
                 	CALL __EEPROMRDW
                 	ICALL
                 	.ENDM
                 
                 	.MACRO __GETW1STACK
                 	IN   R26,SPL
                 	IN   R27,SPH
                 	ADIW R26,@0+1
                 	LD   R30,X+
                 	LD   R31,X
                 	.ENDM
                 
                 	.MACRO __GETD1STACK
                 	IN   R26,SPL
                 	IN   R27,SPH
                 	ADIW R26,@0+1
                 	LD   R30,X+
                 	LD   R31,X+
                 	LD   R22,X
                 	.ENDM
                 
                 	.MACRO __NBST
                 	BST  R@0,@1
                 	IN   R30,SREG
                 	LDI  R31,0x40
                 	EOR  R30,R31
                 	OUT  SREG,R30
                 	.ENDM
                 
                 
                 	.MACRO __PUTB1SN
                 	LDD  R26,Y+@0
                 	LDD  R27,Y+@0+1
                 	SUBI R26,LOW(-@1)
                 	SBCI R27,HIGH(-@1)
                 	ST   X,R30
                 	.ENDM
                 
                 	.MACRO __PUTW1SN
                 	LDD  R26,Y+@0
                 	LDD  R27,Y+@0+1
                 	SUBI R26,LOW(-@1)
                 	SBCI R27,HIGH(-@1)
                 	ST   X+,R30
                 	ST   X,R31
                 	.ENDM
                 
                 	.MACRO __PUTD1SN
                 	LDD  R26,Y+@0
                 	LDD  R27,Y+@0+1
                 	SUBI R26,LOW(-@1)
                 	SBCI R27,HIGH(-@1)
                 	CALL __PUTDP1
                 	.ENDM
                 
                 	.MACRO __PUTB1SNS
                 	LDD  R26,Y+@0
                 	LDD  R27,Y+@0+1
                 	ADIW R26,@1
                 	ST   X,R30
                 	.ENDM
                 
                 	.MACRO __PUTW1SNS
                 	LDD  R26,Y+@0
                 	LDD  R27,Y+@0+1
                 	ADIW R26,@1
                 	ST   X+,R30
                 	ST   X,R31
                 	.ENDM
                 
                 	.MACRO __PUTD1SNS
                 	LDD  R26,Y+@0
                 	LDD  R27,Y+@0+1
                 	ADIW R26,@1
                 	CALL __PUTDP1
                 	.ENDM
                 
                 	.MACRO __PUTB1PMN
                 	LDS  R26,@0
                 	LDS  R27,@0+1
                 	SUBI R26,LOW(-@1)
                 	SBCI R27,HIGH(-@1)
                 	ST   X,R30
                 	.ENDM
                 
                 	.MACRO __PUTW1PMN
                 	LDS  R26,@0
                 	LDS  R27,@0+1
                 	SUBI R26,LOW(-@1)
                 	SBCI R27,HIGH(-@1)
                 	ST   X+,R30
                 	ST   X,R31
                 	.ENDM
                 
                 	.MACRO __PUTD1PMN
                 	LDS  R26,@0
                 	LDS  R27,@0+1
                 	SUBI R26,LOW(-@1)
                 	SBCI R27,HIGH(-@1)
                 	CALL __PUTDP1
                 	.ENDM
                 
                 	.MACRO __PUTB1PMNS
                 	LDS  R26,@0
                 	LDS  R27,@0+1
                 	ADIW R26,@1
                 	ST   X,R30
                 	.ENDM
                 
                 	.MACRO __PUTW1PMNS
                 	LDS  R26,@0
                 	LDS  R27,@0+1
                 	ADIW R26,@1
                 	ST   X+,R30
                 	ST   X,R31
                 	.ENDM
                 
                 	.MACRO __PUTD1PMNS
                 	LDS  R26,@0
                 	LDS  R27,@0+1
                 	ADIW R26,@1
                 	CALL __PUTDP1
                 	.ENDM
                 
                 	.MACRO __PUTB1RN
                 	MOVW R26,R@0
                 	SUBI R26,LOW(-@1)
                 	SBCI R27,HIGH(-@1)
                 	ST   X,R30
                 	.ENDM
                 
                 	.MACRO __PUTW1RN
                 	MOVW R26,R@0
                 	SUBI R26,LOW(-@1)
                 	SBCI R27,HIGH(-@1)
                 	ST   X+,R30
                 	ST   X,R31
                 	.ENDM
                 
                 	.MACRO __PUTD1RN
                 	MOVW R26,R@0
                 	SUBI R26,LOW(-@1)
                 	SBCI R27,HIGH(-@1)
                 	CALL __PUTDP1
                 	.ENDM
                 
                 	.MACRO __PUTB1RNS
                 	MOVW R26,R@0
                 	ADIW R26,@1
                 	ST   X,R30
                 	.ENDM
                 
                 	.MACRO __PUTW1RNS
                 	MOVW R26,R@0
                 	ADIW R26,@1
                 	ST   X+,R30
                 	ST   X,R31
                 	.ENDM
                 
                 	.MACRO __PUTD1RNS
                 	MOVW R26,R@0
                 	ADIW R26,@1
                 	CALL __PUTDP1
                 	.ENDM
                 
                 	.MACRO __PUTB1RON
                 	MOV  R26,R@0
                 	MOV  R27,R@1
                 	SUBI R26,LOW(-@2)
                 	SBCI R27,HIGH(-@2)
                 	ST   X,R30
                 	.ENDM
                 
                 	.MACRO __PUTW1RON
                 	MOV  R26,R@0
                 	MOV  R27,R@1
                 	SUBI R26,LOW(-@2)
                 	SBCI R27,HIGH(-@2)
                 	ST   X+,R30
                 	ST   X,R31
                 	.ENDM
                 
                 	.MACRO __PUTD1RON
                 	MOV  R26,R@0
                 	MOV  R27,R@1
                 	SUBI R26,LOW(-@2)
                 	SBCI R27,HIGH(-@2)
                 	CALL __PUTDP1
                 	.ENDM
                 
                 	.MACRO __PUTB1RONS
                 	MOV  R26,R@0
                 	MOV  R27,R@1
                 	ADIW R26,@2
                 	ST   X,R30
                 	.ENDM
                 
                 	.MACRO __PUTW1RONS
                 	MOV  R26,R@0
                 	MOV  R27,R@1
                 	ADIW R26,@2
                 	ST   X+,R30
                 	ST   X,R31
                 	.ENDM
                 
                 	.MACRO __PUTD1RONS
                 	MOV  R26,R@0
                 	MOV  R27,R@1
                 	ADIW R26,@2
                 	CALL __PUTDP1
                 	.ENDM
                 
                 
                 	.MACRO __GETB1SX
                 	MOVW R30,R28
                 	SUBI R30,LOW(-@0)
                 	SBCI R31,HIGH(-@0)
                 	LD   R30,Z
                 	.ENDM
                 
                 	.MACRO __GETB1HSX
                 	MOVW R30,R28
                 	SUBI R30,LOW(-@0)
                 	SBCI R31,HIGH(-@0)
                 	LD   R31,Z
                 	.ENDM
                 
                 	.MACRO __GETW1SX
                 	MOVW R30,R28
                 	SUBI R30,LOW(-@0)
                 	SBCI R31,HIGH(-@0)
                 	LD   R0,Z+
                 	LD   R31,Z
                 	MOV  R30,R0
                 	.ENDM
                 
                 	.MACRO __GETD1SX
                 	MOVW R30,R28
                 	SUBI R30,LOW(-@0)
                 	SBCI R31,HIGH(-@0)
                 	LD   R0,Z+
                 	LD   R1,Z+
                 	LD   R22,Z+
                 	LD   R23,Z
                 	MOVW R30,R0
                 	.ENDM
                 
                 	.MACRO __GETB2SX
                 	MOVW R26,R28
                 	SUBI R26,LOW(-@0)
                 	SBCI R27,HIGH(-@0)
                 	LD   R26,X
                 	.ENDM
                 
                 	.MACRO __GETW2SX
                 	MOVW R26,R28
                 	SUBI R26,LOW(-@0)
                 	SBCI R27,HIGH(-@0)
                 	LD   R0,X+
                 	LD   R27,X
                 	MOV  R26,R0
                 	.ENDM
                 
                 	.MACRO __GETD2SX
                 	MOVW R26,R28
                 	SUBI R26,LOW(-@0)
                 	SBCI R27,HIGH(-@0)
                 	LD   R0,X+
                 	LD   R1,X+
                 	LD   R24,X+
                 	LD   R25,X
                 	MOVW R26,R0
                 	.ENDM
                 
                 	.MACRO __GETBRSX
                 	MOVW R30,R28
                 	SUBI R30,LOW(-@1)
                 	SBCI R31,HIGH(-@1)
                 	LD   R@0,Z
                 	.ENDM
                 
                 	.MACRO __GETWRSX
                 	MOVW R30,R28
                 	SUBI R30,LOW(-@2)
                 	SBCI R31,HIGH(-@2)
                 	LD   R@0,Z+
                 	LD   R@1,Z
                 	.ENDM
                 
                 	.MACRO __GETBRSX2
                 	MOVW R26,R28
                 	SUBI R26,LOW(-@1)
                 	SBCI R27,HIGH(-@1)
                 	LD   R@0,X
                 	.ENDM
                 
                 	.MACRO __GETWRSX2
                 	MOVW R26,R28
                 	SUBI R26,LOW(-@2)
                 	SBCI R27,HIGH(-@2)
                 	LD   R@0,X+
                 	LD   R@1,X
                 	.ENDM
                 
                 	.MACRO __LSLW8SX
                 	MOVW R30,R28
                 	SUBI R30,LOW(-@0)
                 	SBCI R31,HIGH(-@0)
                 	LD   R31,Z
                 	CLR  R30
                 	.ENDM
                 
                 	.MACRO __PUTB1SX
                 	MOVW R26,R28
                 	SUBI R26,LOW(-@0)
                 	SBCI R27,HIGH(-@0)
                 	ST   X,R30
                 	.ENDM
                 
                 	.MACRO __PUTW1SX
                 	MOVW R26,R28
                 	SUBI R26,LOW(-@0)
                 	SBCI R27,HIGH(-@0)
                 	ST   X+,R30
                 	ST   X,R31
                 	.ENDM
                 
                 	.MACRO __PUTD1SX
                 	MOVW R26,R28
                 	SUBI R26,LOW(-@0)
                 	SBCI R27,HIGH(-@0)
                 	ST   X+,R30
                 	ST   X+,R31
                 	ST   X+,R22
                 	ST   X,R23
                 	.ENDM
                 
                 	.MACRO __CLRW1SX
                 	MOVW R26,R28
                 	SUBI R26,LOW(-@0)
                 	SBCI R27,HIGH(-@0)
                 	ST   X+,R30
                 	ST   X,R30
                 	.ENDM
                 
                 	.MACRO __CLRD1SX
                 	MOVW R26,R28
                 	SUBI R26,LOW(-@0)
                 	SBCI R27,HIGH(-@0)
                 	ST   X+,R30
                 	ST   X+,R30
                 	ST   X+,R30
                 	ST   X,R30
                 	.ENDM
                 
                 	.MACRO __PUTB2SX
                 	MOVW R30,R28
                 	SUBI R30,LOW(-@0)
                 	SBCI R31,HIGH(-@0)
                 	ST   Z,R26
                 	.ENDM
                 
                 	.MACRO __PUTW2SX
                 	MOVW R30,R28
                 	SUBI R30,LOW(-@0)
                 	SBCI R31,HIGH(-@0)
                 	ST   Z+,R26
                 	ST   Z,R27
                 	.ENDM
                 
                 	.MACRO __PUTD2SX
                 	MOVW R30,R28
                 	SUBI R30,LOW(-@0)
                 	SBCI R31,HIGH(-@0)
                 	ST   Z+,R26
                 	ST   Z+,R27
                 	ST   Z+,R24
                 	ST   Z,R25
                 	.ENDM
                 
                 	.MACRO __PUTBSRX
                 	MOVW R30,R28
                 	SUBI R30,LOW(-@1)
                 	SBCI R31,HIGH(-@1)
                 	ST   Z,R@0
                 	.ENDM
                 
                 	.MACRO __PUTWSRX
                 	MOVW R30,R28
                 	SUBI R30,LOW(-@2)
                 	SBCI R31,HIGH(-@2)
                 	ST   Z+,R@0
                 	ST   Z,R@1
                 	.ENDM
                 
                 	.MACRO __PUTB1SNX
                 	MOVW R26,R28
                 	SUBI R26,LOW(-@0)
                 	SBCI R27,HIGH(-@0)
                 	LD   R0,X+
                 	LD   R27,X
                 	MOV  R26,R0
                 	SUBI R26,LOW(-@1)
                 	SBCI R27,HIGH(-@1)
                 	ST   X,R30
                 	.ENDM
                 
                 	.MACRO __PUTW1SNX
                 	MOVW R26,R28
                 	SUBI R26,LOW(-@0)
                 	SBCI R27,HIGH(-@0)
                 	LD   R0,X+
                 	LD   R27,X
                 	MOV  R26,R0
                 	SUBI R26,LOW(-@1)
                 	SBCI R27,HIGH(-@1)
                 	ST   X+,R30
                 	ST   X,R31
                 	.ENDM
                 
                 	.MACRO __PUTD1SNX
                 	MOVW R26,R28
                 	SUBI R26,LOW(-@0)
                 	SBCI R27,HIGH(-@0)
                 	LD   R0,X+
                 	LD   R27,X
                 	MOV  R26,R0
                 	SUBI R26,LOW(-@1)
                 	SBCI R27,HIGH(-@1)
                 	ST   X+,R30
                 	ST   X+,R31
                 	ST   X+,R22
                 	ST   X,R23
                 	.ENDM
                 
                 	.MACRO __MULBRR
                 	MULS R@0,R@1
                 	MOVW R30,R0
                 	.ENDM
                 
                 	.MACRO __MULBRRU
                 	MUL  R@0,R@1
                 	MOVW R30,R0
                 	.ENDM
                 
                 	.MACRO __MULBRR0
                 	MULS R@0,R@1
                 	.ENDM
                 
                 	.MACRO __MULBRRU0
                 	MUL  R@0,R@1
                 	.ENDM
                 
                 	.MACRO __MULBNWRU
                 	LDI  R26,@2
                 	MUL  R26,R@0
                 	MOVW R30,R0
                 	MUL  R26,R@1
                 	ADD  R31,R0
                 	.ENDM
                 
                 ;NAME DEFINITIONS FOR GLOBAL VARIABLES ALLOCATED TO REGISTERS
                 	.DEF _key=R5
                 	.DEF _key2=R4
                 	.DEF _sensor=R7
                 	.DEF _in_arah_kiri=R6
                 	.DEF _in_kec_kiri=R9
                 	.DEF _in_arah_kanan=R8
                 	.DEF _in_kec_kanan=R11
                 	.DEF _delay_belok=R10
                 	.DEF _last=R13
                 	.DEF __lcd_x=R12
                 
                 	.CSEG
                 	.ORG 0x00
                 
                 ;START OF CODE MARKER
                 __START_OF_CODE:
                 
                 ;INTERRUPT VECTORS
000000 940c 0154 	JMP  __RESET
000002 940c 0000 	JMP  0x00
000004 940c 0000 	JMP  0x00
000006 940c 0000 	JMP  0x00
000008 940c 0000 	JMP  0x00
00000a 940c 0000 	JMP  0x00
00000c 940c 0000 	JMP  0x00
00000e 940c 0000 	JMP  0x00
000010 940c 0000 	JMP  0x00
000012 940c 0000 	JMP  0x00
000014 940c 0000 	JMP  0x00
000016 940c 0000 	JMP  0x00
000018 940c 0000 	JMP  0x00
00001a 940c 0000 	JMP  0x00
00001c 940c 0000 	JMP  0x00
00001e 940c 0000 	JMP  0x00
000020 940c 0000 	JMP  0x00
000022 940c 0000 	JMP  0x00
000024 940c 0000 	JMP  0x00
000026 940c 0000 	JMP  0x00
000028 940c 0000 	JMP  0x00
                 
                 _tbl10_G100:
00002a 2710
00002b 03e8
00002c 0064
00002d 000a      	.DB  0x10,0x27,0xE8,0x3,0x64,0x0,0xA,0x0
00002e 0001      	.DB  0x1,0x0
                 _tbl16_G100:
00002f 1000
000030 0100
000031 0010
000032 0001      	.DB  0x0,0x10,0x0,0x1,0x10,0x0,0x1,0x0
                 
                 _0x3:
000033 3c3c
000034 3c3c
000035 3c3c
000036 3c3c      	.DB  0x3C,0x3C,0x3C,0x3C,0x3C,0x3C,0x3C,0x3C
                 _0x4:
000037 3c3c
000038 3c3c
000039 3c3c
00003a 3c3c      	.DB  0x3C,0x3C,0x3C,0x3C,0x3C,0x3C,0x3C,0x3C
                 _0x0:
00003b 6425
00003c 6900
00003d 003a
00003e 002b      	.DB  0x25,0x64,0x0,0x69,0x3A,0x0,0x2B,0x0
00003f 5245
000040 4f52
000041 2052
000042 414d      	.DB  0x45,0x52,0x52,0x4F,0x52,0x20,0x4D,0x41
000043 2058
000044 203d
000045 3532
000046 0035      	.DB  0x58,0x20,0x3D,0x20,0x32,0x35,0x35,0x0
000047 6c41
000048 6168
000049 646d
00004a 6c75      	.DB  0x41,0x6C,0x68,0x61,0x6D,0x64,0x75,0x6C
00004b 6c69
00004c 616c
00004d 0068
00004e 6e49      	.DB  0x69,0x6C,0x6C,0x61,0x68,0x0,0x49,0x6E
00004f 7570
000050 2074
000051 003a
000052 6553      	.DB  0x70,0x75,0x74,0x20,0x3A,0x0,0x53,0x65
000053 656c
000054 6173
000055 2069
000056 003a      	.DB  0x6C,0x65,0x73,0x61,0x69,0x20,0x3A,0x0
000057 2020
000058 2020
000059 6942
00005a 6d73      	.DB  0x20,0x20,0x20,0x20,0x42,0x69,0x73,0x6D
00005b 6c69
00005c 616c
00005d 2068
00005e 2020      	.DB  0x69,0x6C,0x6C,0x61,0x68,0x20,0x20,0x20
00005f 5e00
000060 5e5f
000061 4b20
000062 6c61      	.DB  0x0,0x5E,0x5F,0x5E,0x20,0x4B,0x61,0x6C
000063 6269
000064 6172
000065 6973
000066 5f5e      	.DB  0x69,0x62,0x72,0x61,0x73,0x69,0x5E,0x5F
000067 005e
000068 4120
000069 686c
00006a 6d61      	.DB  0x5E,0x0,0x20,0x41,0x6C,0x68,0x61,0x6D
00006b 7564
00006c 696c
00006d 6c6c
00006e 6861      	.DB  0x64,0x75,0x6C,0x69,0x6C,0x6C,0x61,0x68
00006f 2020
000070 5300
000071 6d65
000072 676f      	.DB  0x20,0x20,0x0,0x53,0x65,0x6D,0x6F,0x67
000073 2061
000074 7553
000075 736b
000076 7365      	.DB  0x61,0x20,0x53,0x75,0x6B,0x73,0x65,0x73
000077 3a20
000078 0029
000079 3e20
00007a 3e3e      	.DB  0x20,0x3A,0x29,0x0,0x20,0x3E,0x3E,0x3E
00007b 5320
00007c 6e65
00007d 6f73
00007e 2072      	.DB  0x20,0x53,0x65,0x6E,0x73,0x6F,0x72,0x20
00007f 3c3c
000080 203c
000081 2000
000082 5320      	.DB  0x3C,0x3C,0x3C,0x20,0x0,0x20,0x20,0x53
000083 6e65
000084 6f73
000085 2072
000086 4220      	.DB  0x65,0x6E,0x73,0x6F,0x72,0x20,0x20,0x42
000087 6361
000088 2061
000089 0020
00008a 3a31      	.DB  0x61,0x63,0x61,0x20,0x20,0x0,0x31,0x3A
00008b 6547
00008c 616c
00008d 2070
00008e 3a32      	.DB  0x47,0x65,0x6C,0x61,0x70,0x20,0x32,0x3A
00008f 6554
000090 6172
000091 676e
000092 2500      	.DB  0x54,0x65,0x72,0x61,0x6E,0x67,0x0,0x25
000093 2064
000094 6425
000095 2520
000096 2064      	.DB  0x64,0x20,0x25,0x64,0x20,0x25,0x64,0x20
000097 6425
000098 2000
000099 4d20
00009a 7361      	.DB  0x25,0x64,0x0,0x20,0x20,0x4D,0x61,0x73
00009b 6b75
00009c 6e61
00009d 4d20
00009e 646f      	.DB  0x75,0x6B,0x61,0x6E,0x20,0x4D,0x6F,0x64
00009f 2065
0000a0 2000
0000a1 2020
0000a2 2020      	.DB  0x65,0x20,0x0,0x20,0x20,0x20,0x20,0x20
0000a3 7453
0000a4 7261
0000a5 2074
0000a6 2020      	.DB  0x53,0x74,0x61,0x72,0x74,0x20,0x20,0x20
0000a7 2020
0000a8 2000
0000a9 6c41
0000aa 6168      	.DB  0x20,0x20,0x0,0x20,0x41,0x6C,0x68,0x61
0000ab 646d
0000ac 6c75
0000ad 6c69
0000ae 616c      	.DB  0x6D,0x64,0x75,0x6C,0x69,0x6C,0x6C,0x61
0000af 2068
0000b0 2000
0000b1 614d
0000b2 7573      	.DB  0x68,0x20,0x0,0x20,0x4D,0x61,0x73,0x75
0000b3 616b
0000b4 206e
0000b5 6843
0000b6 6365      	.DB  0x6B,0x61,0x6E,0x20,0x43,0x68,0x65,0x63
0000b7 506b
0000b8 0020
0000b9 2020
0000ba 4d20      	.DB  0x6B,0x50,0x20,0x0,0x20,0x20,0x20,0x4D
0000bb 544f
0000bc 524f
0000bd 4b20
0000be 5249      	.DB  0x4F,0x54,0x4F,0x52,0x20,0x4B,0x49,0x52
0000bf 2049
0000c0 2020
0000c1 3100
0000c2 4d3a      	.DB  0x49,0x20,0x20,0x20,0x0,0x31,0x3A,0x4D
0000c3 6a61
0000c4 2075
0000c5 3220
0000c6 4d3a      	.DB  0x61,0x6A,0x75,0x20,0x20,0x32,0x3A,0x4D
0000c7 6e75
0000c8 7564
0000c9 0072
0000ca 7053      	.DB  0x75,0x6E,0x64,0x75,0x72,0x0,0x53,0x70
0000cb 6565
0000cc 2064
0000cd 203a
0000ce 2000      	.DB  0x65,0x65,0x64,0x20,0x3A,0x20,0x0,0x20
0000cf 4d20
0000d0 544f
0000d1 524f
0000d2 2020      	.DB  0x20,0x4D,0x4F,0x54,0x4F,0x52,0x20,0x20
0000d3 414b
0000d4 414e
0000d5 204e
0000d6 0020      	.DB  0x4B,0x41,0x4E,0x41,0x4E,0x20,0x20,0x0
0000d7 6544
0000d8 616c
0000d9 2079
0000da 203a      	.DB  0x44,0x65,0x6C,0x61,0x79,0x20,0x3A,0x20
0000db 4b00
0000dc 2050
0000dd 203a
0000de 4b00      	.DB  0x0,0x4B,0x50,0x20,0x3A,0x20,0x0,0x4B
0000df 2044
0000e0 203a
0000e1 2000
0000e2 2020      	.DB  0x44,0x20,0x3A,0x20,0x0,0x20,0x20,0x20
0000e3 6942
0000e4 6d73
0000e5 6c69
0000e6 616c      	.DB  0x42,0x69,0x73,0x6D,0x69,0x6C,0x6C,0x61
0000e7 2068
0000e8 2020
0000e9 0020
0000ea 6f4d      	.DB  0x68,0x20,0x20,0x20,0x20,0x0,0x4D,0x6F
0000eb 6564
0000ec 5320
0000ed 6174
0000ee 7472      	.DB  0x64,0x65,0x20,0x53,0x74,0x61,0x72,0x74
0000ef 3a20
0000f0 3120
0000f1 342f
0000f2 4d00      	.DB  0x20,0x3A,0x20,0x31,0x2F,0x34,0x0,0x4D
0000f3 646f
0000f4 2065
0000f5 7453
0000f6 7261      	.DB  0x6F,0x64,0x65,0x20,0x53,0x74,0x61,0x72
0000f7 2074
0000f8 203a
0000f9 2f32
0000fa 0033      	.DB  0x74,0x20,0x3A,0x20,0x32,0x2F,0x33,0x0
0000fb 5341
0000fc 4153
0000fd 414c
0000fe 554d      	.DB  0x41,0x53,0x53,0x41,0x4C,0x41,0x4D,0x55
0000ff 4c41
000100 4941
000101 554b
000102 204d      	.DB  0x41,0x4C,0x41,0x49,0x4B,0x55,0x4D,0x20
000103 2000
000104 4942
000105 4d53
000106 4c49      	.DB  0x0,0x20,0x42,0x49,0x53,0x4D,0x49,0x4C
000107 414c
000108 2048
000109 293a
00010a 2020      	.DB  0x4C,0x41,0x48,0x20,0x3A,0x29,0x20,0x20
00010b 2000
00010c 2020
00010d 5420
00010e 4f4f      	.DB  0x0,0x20,0x20,0x20,0x20,0x54,0x4F,0x4F
00010f 4854
000110 454c
000111 5353
000112 2020      	.DB  0x54,0x48,0x4C,0x45,0x53,0x53,0x20,0x20
000113 0020
000114 2020
000115 694c
000116 656e      	.DB  0x20,0x0,0x20,0x20,0x4C,0x69,0x6E,0x65
000117 4620
000118 6c6f
000119 6f6c
00011a 6577      	.DB  0x20,0x46,0x6F,0x6C,0x6C,0x6F,0x77,0x65
00011b 2072
00011c 2000
00011d 5020
00011e 6c69      	.DB  0x72,0x20,0x0,0x20,0x20,0x50,0x69,0x6C
00011f 6869
000120 2020
000121 4d20
000122 6e65      	.DB  0x69,0x68,0x20,0x20,0x20,0x4D,0x65,0x6E
000123 2075
000124 0020      	.DB  0x75,0x20,0x20,0x0
                 _0x2020003:
000125 c080      	.DB  0x80,0xC0
                 
                 __GLOBAL_INI_TBL:
000126 0008      	.DW  0x08
000127 0216      	.DW  _data_gelap
000128 0066      	.DW  _0x3*2
                 
000129 0008      	.DW  0x08
00012a 021e      	.DW  _data_terang
00012b 006e      	.DW  _0x4*2
                 
00012c 0011      	.DW  0x11
00012d 0160      	.DW  _0x2EF
00012e 0161      	.DW  _0x0*2+235
                 
00012f 0011      	.DW  0x11
000130 0171      	.DW  _0x2EF+17
000131 0161      	.DW  _0x0*2+235
                 
000132 0011      	.DW  0x11
000133 0182      	.DW  _0x2EF+34
000134 0172      	.DW  _0x0*2+252
                 
000135 0011      	.DW  0x11
000136 0193      	.DW  _0x2EF+51
000137 0183      	.DW  _0x0*2+269
                 
000138 0009      	.DW  0x09
000139 01a4      	.DW  _0x2EF+68
00013a 0194      	.DW  _0x0*2+286
                 
00013b 0011      	.DW  0x11
00013c 01ad      	.DW  _0x2EF+77
00013d 019d      	.DW  _0x0*2+295
                 
00013e 0011      	.DW  0x11
00013f 01be      	.DW  _0x2EF+94
000140 0183      	.DW  _0x0*2+269
                 
000141 0009      	.DW  0x09
000142 01cf      	.DW  _0x2EF+111
000143 0194      	.DW  _0x0*2+286
                 
000144 0009      	.DW  0x09
000145 01d8      	.DW  _0x2EF+120
000146 01ae      	.DW  _0x0*2+312
                 
000147 0009      	.DW  0x09
000148 01e1      	.DW  _0x2EF+129
000149 0194      	.DW  _0x0*2+286
                 
00014a 0006      	.DW  0x06
00014b 01ea      	.DW  _0x2EF+138
00014c 01b7      	.DW  _0x0*2+321
                 
00014d 0006      	.DW  0x06
00014e 01f0      	.DW  _0x2EF+144
00014f 01bd      	.DW  _0x0*2+327
                 
000150 0002      	.DW  0x02
000151 0230      	.DW  __base_y_G101
000152 024a      	.DW  _0x2020003*2
                 
                 _0xFFFFFFFF:
000153 0000      	.DW  0
                 
                 __RESET:
000154 94f8      	CLI
000155 27ee      	CLR  R30
000156 bbec      	OUT  EECR,R30
                 
                 ;INTERRUPT VECTORS ARE PLACED
                 ;AT THE START OF FLASH
000157 e0f1      	LDI  R31,1
000158 bffb      	OUT  GICR,R31
000159 bfeb      	OUT  GICR,R30
00015a bfe5      	OUT  MCUCR,R30
                 
                 ;DISABLE WATCHDOG
00015b e1f8      	LDI  R31,0x18
00015c bdf1      	OUT  WDTCR,R31
00015d bde1      	OUT  WDTCR,R30
                 
                 ;CLEAR R2-R14
00015e e08d      	LDI  R24,(14-2)+1
00015f e0a2      	LDI  R26,2
000160 27bb      	CLR  R27
                 __CLEAR_REG:
000161 93ed      	ST   X+,R30
000162 958a      	DEC  R24
000163 f7e9      	BRNE __CLEAR_REG
                 
                 ;CLEAR SRAM
000164 e080      	LDI  R24,LOW(__CLEAR_SRAM_SIZE)
000165 e094      	LDI  R25,HIGH(__CLEAR_SRAM_SIZE)
000166 e6a0      	LDI  R26,__SRAM_START
                 __CLEAR_SRAM:
000167 93ed      	ST   X+,R30
000168 9701      	SBIW R24,1
000169 f7e9      	BRNE __CLEAR_SRAM
                 
                 ;GLOBAL VARIABLES INITIALIZATION
00016a e4ec      	LDI  R30,LOW(__GLOBAL_INI_TBL*2)
00016b e0f2      	LDI  R31,HIGH(__GLOBAL_INI_TBL*2)
                 __GLOBAL_INI_NEXT:
00016c 9185      	LPM  R24,Z+
00016d 9195      	LPM  R25,Z+
00016e 9700      	SBIW R24,0
00016f f061      	BREQ __GLOBAL_INI_END
000170 91a5      	LPM  R26,Z+
000171 91b5      	LPM  R27,Z+
000172 9005      	LPM  R0,Z+
000173 9015      	LPM  R1,Z+
000174 01bf      	MOVW R22,R30
000175 01f0      	MOVW R30,R0
                 __GLOBAL_INI_LOOP:
000176 9005      	LPM  R0,Z+
000177 920d      	ST   X+,R0
000178 9701      	SBIW R24,1
000179 f7e1      	BRNE __GLOBAL_INI_LOOP
00017a 01fb      	MOVW R30,R22
00017b cff0      	RJMP __GLOBAL_INI_NEXT
                 __GLOBAL_INI_END:
                 
                 ;HARDWARE STACK POINTER INITIALIZATION
00017c e5ef      	LDI  R30,LOW(__SRAM_END-__HEAP_SIZE)
00017d bfed      	OUT  SPL,R30
00017e e0e4      	LDI  R30,HIGH(__SRAM_END-__HEAP_SIZE)
00017f bfee      	OUT  SPH,R30
                 
                 ;DATA STACK POINTER INITIALIZATION
000180 e6c0      	LDI  R28,LOW(__SRAM_START+__DSTACK_SIZE)
000181 e0d1      	LDI  R29,HIGH(__SRAM_START+__DSTACK_SIZE)
                 
000182 940c 0e83 	JMP  _main
                 
                 	.ESEG
                 	.ORG 0
                 
                 	.DSEG
                 	.ORG 0x160
                 
                 	.CSEG
                 ;/*****************************************************
                 ;This program was produced by the
                 ;CodeWizardAVR V2.05.0 Professional
                 ;Automatic Program Generator
                 ;© Copyright 1998-2010 Pavel Haiduc, HP InfoTech s.r.l.
                 ;http://www.hpinfotech.com
                 ;
                 ;Project :
                 ;Version :
                 ;Date    : 19/09/2014
                 ;Author  : Naufal Suryanto
                 ;Company : Computer Engineering PENS 2013
                 ;Comments:
                 ;
                 ;
                 ;Chip type               : ATmega16
                 ;Program type            : Application
                 ;AVR Core Clock frequency: 16,000000 MHz
                 ;Memory model            : Small
                 ;External RAM size       : 0
                 ;Data Stack size         : 256
                 ;*****************************************************/
                 ;
                 ;#include <mega16.h>
                 	#ifndef __SLEEP_DEFINED__
                 	#define __SLEEP_DEFINED__
                 	.EQU __se_bit=0x40
                 	.EQU __sm_mask=0xB0
                 	.EQU __sm_powerdown=0x20
                 	.EQU __sm_powersave=0x30
                 	.EQU __sm_standby=0xA0
                 	.EQU __sm_ext_standby=0xB0
                 	.EQU __sm_adc_noise_red=0x10
                 	.SET power_ctrl_reg=mcucr
                 	#endif
                 ;#include <delay.h>
                 ;#include <stdio.h>
                 ;#include <stdbool.h>
                 ;
                 ;
                 ;// Alphanumeric LCD Module functions
                 ;#asm
                    .equ __lcd_port=0x18 ;PORTB
                 ; 0000 0021 #endasm
                 ;#include <lcd.h>
                 ;
                 ;//>KEYPAD<//
                 ;#define row0 PORTC.1
                 ;#define row1 PORTC.6
                 ;#define row2 PORTC.5
                 ;#define row3 PORTC.3
                 ;#define col0 PINC.2
                 ;#define col1 PINC.0
                 ;#define col2 PINC.4
                 ;#define kosong 123
                 ;//>KEYPAD<//
                 ;
                 ;//>MOTOR<//
                 ;#define en_ki PORTD.6
                 ;#define en_ka PORTD.7
                 ;#define IN_1A PORTD.5
                 ;#define pwm_ki OCR1A
                 ;#define IN_2A PORTD.0
                 ;#define IN_1B PORTD.4
                 ;#define pwm_ka OCR1B
                 ;#define IN_2B PORTD.1
                 ;#define maju 0
                 ;#define mundur 1
                 ;//>MOTOR<//
                 ;
                 ;//>BUZZER<//
                 ;#define buz PORTC.7
                 ;#define buz_on buz=0
                 ;#define buz_off buz=1
                 ;#define bip {buz_on; delay_ms(100); buz_off;}
                 ;//>BUZZER<//
                 ;
                 ;//>SENSOR SAYAP<//
                 ;#define syp_ki PIND.2
                 ;#define syp_ka PIND.3
                 ;//>SENSOR SAYAP<//
                 ;
                 ;//>PERTIGAAN<//
                 ;#define kiri 0
                 ;#define kanan 1
                 ;
                 ;//>MODE MOTOR<//
                 ;#define slow 0
                 ;#define normal 1
                 ;#define fast 2
                 ;#define veryfast 3
                 ;#define veryfast2 4
                 ;
                 ;//>MODE MOTOR<//
                 ;
                 ;#define ADC_VREF_TYPE 0x20
                 ;
                 ;//>Deklarasi Variable Global<//
                 ;char key,key2;
                 ;char buf[3],buf2[5],buf3[16];
                 ;
                 ;unsigned char data_sensor[8];
                 ;unsigned char data_gelap[8]={60,60,60,60,60,60,60,60};
                 
                 	.DSEG
                 ;unsigned char data_terang[8]={60,60,60,60,60,60,60,60};
                 ;unsigned char sensor;
                 ;eeprom unsigned data_ref[8]={120,120,120,120,120,120,120,120};
                 ;eeprom unsigned char gt=0;
                 ;eeprom unsigned char inkec,inkp,inkd;
                 ;eeprom unsigned char pilihstart;
                 ;unsigned char in_arah_kiri,in_kec_kiri,in_arah_kanan,in_kec_kanan,delay_belok;
                 ;
                 ;//bit s1,s2,s3,s4,s5,s6,s7,s8,last;
                 ;bool s[8],last;
                 ;int last_error;
                 ;//>Deklarasi Variable Global<//
                 ;
                 ;// Read the 8 most significant bits
                 ;// of the AD conversion result
                 ;unsigned char read_adc(unsigned char adc_input)
                 ; 0000 006D {
                 
                 	.CSEG
                 _read_adc:
                 ; 0000 006E ADMUX=adc_input | (ADC_VREF_TYPE & 0xff);
                 ;	adc_input -> Y+0
000184 81e8      	LD   R30,Y
000185 62e0      	ORI  R30,0x20
000186 b9e7      	OUT  0x7,R30
                 ; 0000 006F // Delay needed for the stabilization of the ADC input voltage
                 ; 0000 0070 delay_us(10);
                +
000187 e385     +LDI R24 , LOW ( 53 )
                +__DELAY_USB_LOOP :
000188 958a     +DEC R24
000189 f7f1     +BRNE __DELAY_USB_LOOP
                 	__DELAY_USB 53
                 ; 0000 0071 // Start the AD conversion
                 ; 0000 0072 ADCSRA|=0x40;
00018a 9a36      	SBI  0x6,6
                 ; 0000 0073 // Wait for the AD conversion to complete
                 ; 0000 0074 while ((ADCSRA & 0x10)==0);
                 _0x5:
00018b 9b34      	SBIS 0x6,4
00018c cffe      	RJMP _0x5
                 ; 0000 0075 ADCSRA|=0x10;
00018d 9a34      	SBI  0x6,4
                 ; 0000 0076 return ADCH;
00018e b1e5      	IN   R30,0x5
00018f c268      	RJMP _0x2080008
                 ; 0000 0077 }
                 ;//>>>>>>>>>>>>>>>>>>> KEYPAD <<<<<<<<<<<<<<<<<<<\\
                 ;unsigned char keypad()
                 ; 0000 007A {
                 _keypad:
                 ; 0000 007B     delay_ms(1);
000190 940e 1194 	CALL SUBOPT_0x0
                 ; 0000 007C      row0=0; row1=1; row2=1; row3=1;
000192 98a9      	CBI  0x15,1
000193 9aae      	SBI  0x15,6
000194 9aad      	SBI  0x15,5
000195 9aab      	SBI  0x15,3
                 ; 0000 007D      if(!col0) return(1);
000196 999a      	SBIC 0x13,2
000197 c002      	RJMP _0x10
000198 e0e1      	LDI  R30,LOW(1)
000199 9508      	RET
                 ; 0000 007E      if(!col1) return(2);
                 _0x10:
00019a 9998      	SBIC 0x13,0
00019b c002      	RJMP _0x11
00019c e0e2      	LDI  R30,LOW(2)
00019d 9508      	RET
                 ; 0000 007F      if(!col2) return(3);
                 _0x11:
00019e 999c      	SBIC 0x13,4
00019f c002      	RJMP _0x12
0001a0 e0e3      	LDI  R30,LOW(3)
0001a1 9508      	RET
                 ; 0000 0080 
                 ; 0000 0081      delay_ms(1);
                 _0x12:
0001a2 940e 1194 	CALL SUBOPT_0x0
                 ; 0000 0082      row0=1; row1=0; row2=1; row3=1;
0001a4 9aa9      	SBI  0x15,1
0001a5 98ae      	CBI  0x15,6
0001a6 9aad      	SBI  0x15,5
0001a7 9aab      	SBI  0x15,3
                 ; 0000 0083      if(!col0) return(4);
0001a8 999a      	SBIC 0x13,2
0001a9 c002      	RJMP _0x1B
0001aa e0e4      	LDI  R30,LOW(4)
0001ab 9508      	RET
                 ; 0000 0084      if(!col1) return(5);
                 _0x1B:
0001ac 9998      	SBIC 0x13,0
0001ad c002      	RJMP _0x1C
0001ae e0e5      	LDI  R30,LOW(5)
0001af 9508      	RET
                 ; 0000 0085 	 if(!col2) return(6);
                 _0x1C:
0001b0 999c      	SBIC 0x13,4
0001b1 c002      	RJMP _0x1D
0001b2 e0e6      	LDI  R30,LOW(6)
0001b3 9508      	RET
                 ; 0000 0086      row1=1;
                 _0x1D:
0001b4 9aae      	SBI  0x15,6
                 ; 0000 0087 
                 ; 0000 0088      delay_ms(1);
0001b5 940e 1194 	CALL SUBOPT_0x0
                 ; 0000 0089      row0=1; row1=1; row2=0; row3=1;
0001b7 9aa9      	SBI  0x15,1
0001b8 9aae      	SBI  0x15,6
0001b9 98ad      	CBI  0x15,5
0001ba 9aab      	SBI  0x15,3
                 ; 0000 008A      if(!col0) return(7);
0001bb 999a      	SBIC 0x13,2
0001bc c002      	RJMP _0x28
0001bd e0e7      	LDI  R30,LOW(7)
0001be 9508      	RET
                 ; 0000 008B      if(!col1) return(8);
                 _0x28:
0001bf 9998      	SBIC 0x13,0
0001c0 c002      	RJMP _0x29
0001c1 e0e8      	LDI  R30,LOW(8)
0001c2 9508      	RET
                 ; 0000 008C 	 if(!col2) return(9);
                 _0x29:
0001c3 999c      	SBIC 0x13,4
0001c4 c002      	RJMP _0x2A
0001c5 e0e9      	LDI  R30,LOW(9)
0001c6 9508      	RET
                 ; 0000 008D 
                 ; 0000 008E      delay_ms(1);
                 _0x2A:
0001c7 940e 1194 	CALL SUBOPT_0x0
                 ; 0000 008F 	 row0=1; row1=1; row2=1; row3=0;
0001c9 9aa9      	SBI  0x15,1
0001ca 9aae      	SBI  0x15,6
0001cb 9aad      	SBI  0x15,5
0001cc 98ab      	CBI  0x15,3
                 ; 0000 0090      if(!col0) return(11); //*
0001cd 999a      	SBIC 0x13,2
0001ce c002      	RJMP _0x33
0001cf e0eb      	LDI  R30,LOW(11)
0001d0 9508      	RET
                 ; 0000 0091      if(!col1) return(0);
                 _0x33:
0001d1 9998      	SBIC 0x13,0
0001d2 c002      	RJMP _0x34
0001d3 e0e0      	LDI  R30,LOW(0)
0001d4 9508      	RET
                 ; 0000 0092      if(!col2) return(12); //#
                 _0x34:
0001d5 999c      	SBIC 0x13,4
0001d6 c002      	RJMP _0x35
0001d7 e0ec      	LDI  R30,LOW(12)
0001d8 9508      	RET
                 ; 0000 0093      else return(kosong);
                 _0x35:
0001d9 e7eb      	LDI  R30,LOW(123)
0001da 9508      	RET
                 ; 0000 0094 }
0001db 9508      	RET
                 ;
                 ;unsigned char inkeypad()
                 ; 0000 0097 {
                 _inkeypad:
                 ; 0000 0098     unsigned char k=kosong,hit;
                 ; 0000 0099     k=kosong;
0001dc 931a      	ST   -Y,R17
0001dd 930a      	ST   -Y,R16
                 ;	k -> R17
                 ;	hit -> R16
0001de e71b      	LDI  R17,123
0001df e71b      	LDI  R17,LOW(123)
                 ; 0000 009A     while(k==kosong)
                 _0x37:
0001e0 371b      	CPI  R17,123
0001e1 f489      	BRNE _0x39
                 ; 0000 009B     {
                 ; 0000 009C         k=keypad();
0001e2 dfad      	RCALL _keypad
0001e3 2f1e      	MOV  R17,R30
                 ; 0000 009D         if(k!=kosong) hit=k;
0001e4 371b      	CPI  R17,123
0001e5 f009      	BREQ _0x3A
0001e6 2f01      	MOV  R16,R17
                 ; 0000 009E         if(k==hit) {while(k==hit) {k=keypad(); delay_ms(1);} return hit;}
                 _0x3A:
0001e7 1701      	CP   R16,R17
0001e8 f449      	BRNE _0x3B
                 _0x3C:
0001e9 1701      	CP   R16,R17
0001ea f429      	BRNE _0x3E
0001eb dfa4      	RCALL _keypad
0001ec 2f1e      	MOV  R17,R30
0001ed 940e 1194 	CALL SUBOPT_0x0
0001ef cff9      	RJMP _0x3C
                 _0x3E:
0001f0 2fe0      	MOV  R30,R16
0001f1 c249      	RJMP _0x2080007
                 ; 0000 009F //        if(k==1) { while(k==1){k=keypad(); delay_ms(1);} return(1);}
                 ; 0000 00A0 //        if(k==2) { while(k==2){k=keypad(); delay_ms(1);} return(2);}
                 ; 0000 00A1 
                 ; 0000 00A2     }
                 _0x3B:
0001f2 cfed      	RJMP _0x37
                 _0x39:
                 ; 0000 00A3     delay_ms(100);
0001f3 940e 119a 	CALL SUBOPT_0x1
0001f5 940e 13c0 	CALL _delay_ms
                 ; 0000 00A4     return k;
0001f7 2fe1      	MOV  R30,R17
0001f8 c242      	RJMP _0x2080007
                 ; 0000 00A5 
                 ; 0000 00A6 }
                 ;
                 ;unsigned char inputnilai(unsigned char pointer)
                 ; 0000 00A9 {
                 _inputnilai:
                 ; 0000 00AA     unsigned char stack[3];
                 ; 0000 00AB     unsigned char hasil=0,pengali=1;
                 ; 0000 00AC     int i=0;
                 ; 0000 00AD     char k=0;
                 ; 0000 00AE     pengali=1;
0001f9 9723      	SBIW R28,3
0001fa 940e 1459 	CALL __SAVELOCR6
                 ;	pointer -> Y+9
                 ;	stack -> Y+6
                 ;	hasil -> R17
                 ;	pengali -> R16
                 ;	i -> R18,R19
                 ;	k -> R21
0001fc e010      	LDI  R17,0
0001fd e001      	LDI  R16,1
                +
0001fe e020     +LDI R18 , LOW ( 0 )
0001ff e030     +LDI R19 , HIGH ( 0 )
                 	__GETWRN 18,19,0
000200 e050      	LDI  R21,0
000201 e001      	LDI  R16,LOW(1)
                 ; 0000 00AF     delay_ms(500);
000202 940e 119f 	CALL SUBOPT_0x2
                 ; 0000 00B0     while (i<3 && k!=12)
                 _0x3F:
                +
000204 3023     +CPI R18 , LOW ( 3 )
000205 e0e0     +LDI R30 , HIGH ( 3 )
000206 073e     +CPC R19 , R30
                 	__CPWRN 18,19,3
000207 f414      	BRGE _0x42
000208 305c      	CPI  R21,12
000209 f409      	BRNE _0x43
                 _0x42:
00020a c020      	RJMP _0x41
                 _0x43:
                 ; 0000 00B1     {
                 ; 0000 00B2         lcd_gotoxy(pointer,0);
00020b 85e9      	LDD  R30,Y+9
00020c 940e 11a5 	CALL SUBOPT_0x3
                 ; 0000 00B3         k=inkeypad();
00020e dfcd      	RCALL _inkeypad
00020f 2f5e      	MOV  R21,R30
                 ; 0000 00B4         if(k==12) break;
000210 305c      	CPI  R21,12
000211 f0c9      	BREQ _0x41
                 ; 0000 00B5         else stack[i]=k;
000212 01f9      	MOVW R30,R18
000213 01de      	MOVW R26,R28
000214 9616      	ADIW R26,6
000215 0fea      	ADD  R30,R26
000216 1ffb      	ADC  R31,R27
000217 8350      	ST   Z,R21
                 ; 0000 00B6         sprintf(buf2,"%d",k);
000218 940e 11aa 	CALL SUBOPT_0x4
                +
00021a e7e6     +LDI R30 , LOW ( 2 * _0x0 + ( 0 ) )
00021b e0f0     +LDI R31 , HIGH ( 2 * _0x0 + ( 0 ) )
                 	__POINTW1FN _0x0,0
00021c 93fa      	ST   -Y,R31
00021d 93ea      	ST   -Y,R30
00021e 2fe5      	MOV  R30,R21
00021f 940e 11af 	CALL SUBOPT_0x5
000221 940e 11b5 	CALL SUBOPT_0x6
                 ; 0000 00B7         lcd_puts(buf2);
000223 940e 111c 	CALL _lcd_puts
                 ; 0000 00B8         i++; pointer++;
                +
000225 5f2f     +SUBI R18 , LOW ( - 1 )
000226 4f3f     +SBCI R19 , HIGH ( - 1 )
                 	__ADDWRN 18,19,1
000227 85e9      	LDD  R30,Y+9
000228 5fef      	SUBI R30,-LOW(1)
000229 87e9      	STD  Y+9,R30
                 ; 0000 00B9     }
00022a cfd9      	RJMP _0x3F
                 _0x41:
                 ; 0000 00BA     lcd_putsf("i:");
                +
00022b e7e9     +LDI R30 , LOW ( 2 * _0x0 + ( 3 ) )
00022c e0f0     +LDI R31 , HIGH ( 2 * _0x0 + ( 3 ) )
                 	__POINTW1FN _0x0,3
00022d 940e 11ba 	CALL SUBOPT_0x7
                 ; 0000 00BB     sprintf(buf2,"%d",i);
00022f 940e 11aa 	CALL SUBOPT_0x4
                +
000231 e7e6     +LDI R30 , LOW ( 2 * _0x0 + ( 0 ) )
000232 e0f0     +LDI R31 , HIGH ( 2 * _0x0 + ( 0 ) )
                 	__POINTW1FN _0x0,0
000233 93fa      	ST   -Y,R31
000234 93ea      	ST   -Y,R30
000235 01f9      	MOVW R30,R18
000236 940e 13d9 	CALL __CWD1
000238 940e 141e 	CALL __PUTPARD1
00023a 940e 11b5 	CALL SUBOPT_0x6
                 ; 0000 00BC         lcd_puts(buf2);
00023c 940e 111c 	CALL _lcd_puts
                 ; 0000 00BD     lcd_putsf("+");
                +
00023e e7ec     +LDI R30 , LOW ( 2 * _0x0 + ( 6 ) )
00023f e0f0     +LDI R31 , HIGH ( 2 * _0x0 + ( 6 ) )
                 	__POINTW1FN _0x0,6
000240 940e 11ba 	CALL SUBOPT_0x7
                 ; 0000 00BE     i--;
                +
000242 5021     +SUBI R18 , LOW ( 1 )
000243 4030     +SBCI R19 , HIGH ( 1 )
                 	__SUBWRN 18,19,1
                 ; 0000 00BF     while(i>-1)
                 _0x46:
000244 efef      	LDI  R30,LOW(65535)
000245 efff      	LDI  R31,HIGH(65535)
000246 17e2      	CP   R30,R18
000247 07f3      	CPC  R31,R19
000248 f474      	BRGE _0x48
                 ; 0000 00C0     {
                 ; 0000 00C1         hasil+=(stack[i]*pengali);
000249 01de      	MOVW R26,R28
00024a 9616      	ADIW R26,6
00024b 0fa2      	ADD  R26,R18
00024c 1fb3      	ADC  R27,R19
00024d 91ac      	LD   R26,X
00024e 020a      	MULS R16,R26
00024f 01f0      	MOVW R30,R0
000250 0f1e      	ADD  R17,R30
                 ; 0000 00C2         pengali*=10;
000251 e0aa      	LDI  R26,LOW(10)
000252 020a      	MULS R16,R26
000253 2d00      	MOV  R16,R0
                 ; 0000 00C3         i--;
                +
000254 5021     +SUBI R18 , LOW ( 1 )
000255 4030     +SBCI R19 , HIGH ( 1 )
                 	__SUBWRN 18,19,1
                 ; 0000 00C4         //lcd_putsf("*");
                 ; 0000 00C5     }
000256 cfed      	RJMP _0x46
                 _0x48:
                 ; 0000 00C6     lcd_clear(); lcd_gotoxy(0,0);
000257 940e 10e4 	CALL _lcd_clear
000259 e0e0      	LDI  R30,LOW(0)
00025a 940e 11a5 	CALL SUBOPT_0x3
                 ; 0000 00C7     if (hasil>255) {
00025c efef      	LDI  R30,LOW(255)
00025d 17e1      	CP   R30,R17
00025e f448      	BRSH _0x49
                 ; 0000 00C8     lcd_putsf("ERROR MAX = 255"); hasil=inputnilai(pointer);
                +
00025f e7ee     +LDI R30 , LOW ( 2 * _0x0 + ( 8 ) )
000260 e0f0     +LDI R31 , HIGH ( 2 * _0x0 + ( 8 ) )
                 	__POINTW1FN _0x0,8
000261 940e 11ba 	CALL SUBOPT_0x7
000263 85e9      	LDD  R30,Y+9
000264 93ea      	ST   -Y,R30
000265 df93      	RCALL _inputnilai
000266 2f1e      	MOV  R17,R30
                 ; 0000 00C9     }
                 ; 0000 00CA     else lcd_putsf("Alhamdulillah");
000267 c004      	RJMP _0x4A
                 _0x49:
                +
000268 e8ee     +LDI R30 , LOW ( 2 * _0x0 + ( 24 ) )
000269 e0f0     +LDI R31 , HIGH ( 2 * _0x0 + ( 24 ) )
                 	__POINTW1FN _0x0,24
00026a 940e 11ba 	CALL SUBOPT_0x7
                 ; 0000 00CB     delay_ms(500);
                 _0x4A:
00026c 940e 119f 	CALL SUBOPT_0x2
                 ; 0000 00CC     lcd_clear();
00026e 940e 10e4 	CALL _lcd_clear
                 ; 0000 00CD     return hasil;
000270 2fe1      	MOV  R30,R17
000271 940e 1460 	CALL __LOADLOCR6
000273 962a      	ADIW R28,10
000274 9508      	RET
                 ; 0000 00CE }
                 ;
                 ;void coba()
                 ; 0000 00D1 {
                 ; 0000 00D2     unsigned char inp;
                 ; 0000 00D3     lcd_clear();
                 ;	inp -> R17
                 ; 0000 00D4     lcd_gotoxy(0,0);
                 ; 0000 00D5     lcd_putsf("Input :");
                 ; 0000 00D6     inp=inputnilai(9);
                 ; 0000 00D7     lcd_putsf("Selesai :");
                 ; 0000 00D8     sprintf(buf,"%d",inp);
                 ; 0000 00D9     lcd_puts(buf);
                 ; 0000 00DA }
                 ;//>>>>>>>>>>>>>>>>>>> KEYPAD <<<<<<<<<<<<<<<<<<<\\
                 ;
                 ;//>>>>>>>>>>>>>>>>>>> MOTOR <<<<<<<<<<<<<<<<<<<\\
                 ;//     a=pwm; b=0-->maju; b=1-->mundur;
                 ;void motor_ki(unsigned char b,unsigned char a)
                 ; 0000 00E0 {
                 _motor_ki:
                 ; 0000 00E1     en_ki=1;
                 ;	b -> Y+1
                 ;	a -> Y+0
000275 9a96      	SBI  0x12,6
                 ; 0000 00E2     if(b==0) pwm_ki=a;
000276 81e9      	LDD  R30,Y+1
000277 30e0      	CPI  R30,0
000278 f419      	BRNE _0x4D
000279 940e 11be 	CALL SUBOPT_0x8
00027b c004      	RJMP _0x31E
                 ; 0000 00E3     else
                 _0x4D:
                 ; 0000 00E4     pwm_ki=255-a;
00027c 940e 11be 	CALL SUBOPT_0x8
00027e 940e 11c1 	CALL SUBOPT_0x9
                 _0x31E:
000280 bdfb      	OUT  0x2A+1,R31
000281 bdea      	OUT  0x2A,R30
                 ; 0000 00E5     IN_2A=b;
000282 81e9      	LDD  R30,Y+1
000283 30e0      	CPI  R30,0
000284 f411      	BRNE _0x4F
000285 9890      	CBI  0x12,0
000286 c001      	RJMP _0x50
                 _0x4F:
000287 9a90      	SBI  0x12,0
                 _0x50:
                 ; 0000 00E6 }
000288 c023      	RJMP _0x2080009
                 ;
                 ;void motor_ka(unsigned char arah,unsigned char a)
                 ; 0000 00E9 {
                 _motor_ka:
                 ; 0000 00EA     en_ka=1;
                 ;	arah -> Y+1
                 ;	a -> Y+0
000289 9a97      	SBI  0x12,7
                 ; 0000 00EB     if(arah==0) pwm_ka=a;
00028a 81e9      	LDD  R30,Y+1
00028b 30e0      	CPI  R30,0
00028c f419      	BRNE _0x53
00028d 940e 11be 	CALL SUBOPT_0x8
00028f c004      	RJMP _0x31F
                 ; 0000 00EC     else pwm_ka=255-a;
                 _0x53:
000290 940e 11be 	CALL SUBOPT_0x8
000292 940e 11c1 	CALL SUBOPT_0x9
                 _0x31F:
000294 bdf9      	OUT  0x28+1,R31
000295 bde8      	OUT  0x28,R30
                 ; 0000 00ED     IN_2B=arah;
000296 81e9      	LDD  R30,Y+1
000297 30e0      	CPI  R30,0
000298 f411      	BRNE _0x55
000299 9891      	CBI  0x12,1
00029a c001      	RJMP _0x56
                 _0x55:
00029b 9a91      	SBI  0x12,1
                 _0x56:
                 ; 0000 00EE }
00029c c00f      	RJMP _0x2080009
                 ;
                 ;void jalan_mundur(unsigned char ki,unsigned char ka,unsigned int delayms)
                 ; 0000 00F1 {
                 _jalan_mundur:
                 ; 0000 00F2     motor_ki(mundur,ki);
                 ;	ki -> Y+3
                 ;	ka -> Y+2
                 ;	delayms -> Y+0
00029d e0e1      	LDI  R30,LOW(1)
00029e 93ea      	ST   -Y,R30
00029f 81ec      	LDD  R30,Y+4
0002a0 93ea      	ST   -Y,R30
0002a1 dfd3      	RCALL _motor_ki
                 ; 0000 00F3     motor_ka(mundur,ka);
0002a2 e0e1      	LDI  R30,LOW(1)
0002a3 940e 11c8 	CALL SUBOPT_0xA
                 ; 0000 00F4     delay_ms(delayms);
                 ; 0000 00F5 }
0002a5 c477      	RJMP _0x2080006
                 ;
                 ;void cekmotor()
                 ; 0000 00F8 {
                 ; 0000 00F9     key=inkeypad();
                 ; 0000 00FA     if(key==1) motor_ki(0,1);
                 ; 0000 00FB     if(key==2) motor_ki(1,0);
                 ; 0000 00FC     if(key==3) en_ki=0;
                 ; 0000 00FD     if(key==4) motor_ka(0,1);
                 ; 0000 00FE     if(key==5) motor_ka(1,0);
                 ; 0000 00FF     if(key==6) en_ka=0;
                 ; 0000 0100 }
                 ;
                 ;void stop(unsigned int delayms)
                 ; 0000 0103 {
                 _stop:
                 ; 0000 0104     jalan_mundur(0,0,delayms);
                 ;	delayms -> Y+0
0002a6 940e 11d3 	CALL SUBOPT_0xB
0002a8 81ea      	LDD  R30,Y+2
0002a9 81fb      	LDD  R31,Y+2+1
0002aa 940e 11d7 	CALL SUBOPT_0xC
                 ; 0000 0105 }
                 _0x2080009:
0002ac 9622      	ADIW R28,2
0002ad 9508      	RET
                 ;
                 ;void jalan(unsigned char arah_ki,unsigned char kecp_ki,unsigned char arah_ka,unsigned char kecp_ka,unsigned int delayms)
                 ; 0000 0108 {
                 _jalan:
                 ; 0000 0109     motor_ki(arah_ki,kecp_ki);
                 ;	arah_ki -> Y+5
                 ;	kecp_ki -> Y+4
                 ;	arah_ka -> Y+3
                 ;	kecp_ka -> Y+2
                 ;	delayms -> Y+0
0002ae 81ed      	LDD  R30,Y+5
0002af 93ea      	ST   -Y,R30
0002b0 81ed      	LDD  R30,Y+5
0002b1 93ea      	ST   -Y,R30
0002b2 dfc2      	RCALL _motor_ki
                 ; 0000 010A     motor_ka(arah_ka,kecp_ka);
0002b3 81eb      	LDD  R30,Y+3
0002b4 940e 11c8 	CALL SUBOPT_0xA
                 ; 0000 010B     delay_ms(delayms);
                 ; 0000 010C     stop(0);
0002b6 e0e0      	LDI  R30,LOW(0)
0002b7 e0f0      	LDI  R31,HIGH(0)
0002b8 940e 11db 	CALL SUBOPT_0xD
                 ; 0000 010D }
0002ba 9626      	ADIW R28,6
0002bb 9508      	RET
                 ;
                 ;void rem(unsigned char mode)
                 ; 0000 0110 {
                 _rem:
                 ; 0000 0111 	buz_on;
                 ;	mode -> Y+0
0002bc 98af      	CBI  0x15,7
                 ; 0000 0112 	if(mode==3)             {stop(5);  jalan_mundur(150,150,225); stop(1);}
0002bd 81a8      	LD   R26,Y
0002be 30a3      	CPI  R26,LOW(0x3)
0002bf f461      	BRNE _0x63
0002c0 940e 11df 	CALL SUBOPT_0xE
0002c2 e9e6      	LDI  R30,LOW(150)
0002c3 93ea      	ST   -Y,R30
0002c4 93ea      	ST   -Y,R30
0002c5 eee1      	LDI  R30,LOW(225)
0002c6 e0f0      	LDI  R31,HIGH(225)
0002c7 940e 11d7 	CALL SUBOPT_0xC
0002c9 940e 11e2 	CALL SUBOPT_0xF
                 ; 0000 0113     else if(mode==2)        {stop(5);  jalan_mundur(100,100,200); stop(1);}
0002cb c01a      	RJMP _0x64
                 _0x63:
0002cc 81a8      	LD   R26,Y
0002cd 30a2      	CPI  R26,LOW(0x2)
0002ce f451      	BRNE _0x65
0002cf 940e 11df 	CALL SUBOPT_0xE
0002d1 e6e4      	LDI  R30,LOW(100)
0002d2 940e 11e5 	CALL SUBOPT_0x10
0002d4 940e 11d7 	CALL SUBOPT_0xC
0002d6 940e 11e2 	CALL SUBOPT_0xF
                 ; 0000 0114     else if(mode==1)        {stop(5);  stop(1);}
0002d8 c00d      	RJMP _0x66
                 _0x65:
0002d9 81a8      	LD   R26,Y
0002da 30a1      	CPI  R26,LOW(0x1)
0002db f429      	BRNE _0x67
0002dc 940e 11df 	CALL SUBOPT_0xE
0002de 940e 11e2 	CALL SUBOPT_0xF
                 ; 0000 0115     else if(mode==0)        {delay_ms(1);}
0002e0 c005      	RJMP _0x68
                 _0x67:
0002e1 81e8      	LD   R30,Y
0002e2 30e0      	CPI  R30,0
0002e3 f411      	BRNE _0x69
0002e4 940e 1194 	CALL SUBOPT_0x0
                 ; 0000 0116 	buz_off;
                 _0x69:
                 _0x68:
                 _0x66:
                 _0x64:
0002e6 9aaf      	SBI  0x15,7
                 ; 0000 0117 }
0002e7 c110      	RJMP _0x2080008
                 ;//>>>>>>>>>>>>>>>>>>> MOTOR <<<<<<<<<<<<<<<<<<<\\
                 ;
                 ;//>>>>>>>>>>>>>>>>>>> SENSOR <<<<<<<<<<<<<<<<<<<\\
                 ;void baca_sensor()
                 ; 0000 011C {
                 _baca_sensor:
                 ; 0000 011D     unsigned char i,j=7;
                 ; 0000 011E     for(i=0;i<8;i++) {data_sensor[j]=read_adc(i); j--;}
0002e8 931a      	ST   -Y,R17
0002e9 930a      	ST   -Y,R16
                 ;	i -> R17
                 ;	j -> R16
0002ea e007      	LDI  R16,7
0002eb e010      	LDI  R17,LOW(0)
                 _0x6D:
0002ec 3018      	CPI  R17,8
0002ed f470      	BRSH _0x6E
0002ee 940e 11eb 	CALL SUBOPT_0x11
0002f0 5fe2      	SUBI R30,LOW(-_data_sensor)
0002f1 4ffd      	SBCI R31,HIGH(-_data_sensor)
0002f2 93ff      	PUSH R31
0002f3 93ef      	PUSH R30
0002f4 931a      	ST   -Y,R17
0002f5 de8e      	RCALL _read_adc
0002f6 91af      	POP  R26
0002f7 91bf      	POP  R27
0002f8 93ec      	ST   X,R30
0002f9 5001      	SUBI R16,1
0002fa 5f1f      	SUBI R17,-1
0002fb cff0      	RJMP _0x6D
                 _0x6E:
                 ; 0000 011F 
                 ; 0000 0120 }
0002fc c13e      	RJMP _0x2080007
                 ;
                 ;void baca()  //gelap=1 terang=0
                 ; 0000 0123 {
                 _baca:
                 ; 0000 0124     unsigned char i;
                 ; 0000 0125     baca_sensor();
0002fd 931a      	ST   -Y,R17
                 ;	i -> R17
0002fe dfe9      	RCALL _baca_sensor
                 ; 0000 0126     if (gt==1)
0002ff 940e 11ee 	CALL SUBOPT_0x12
000301 f489      	BRNE _0x6F
                 ; 0000 0127         for(i=0;i<8;i++) {if(data_sensor[i]<=data_ref[i]) {s[i]=1;}  else {s[i]=0;}}
000302 e010      	LDI  R17,LOW(0)
                 _0x71:
000303 3018      	CPI  R17,8
000304 f468      	BRSH _0x72
000305 940e 11f4 	CALL SUBOPT_0x13
000307 f020      	BRLO _0x73
000308 940e 1208 	CALL SUBOPT_0x14
00030a e0e1      	LDI  R30,LOW(1)
00030b c003      	RJMP _0x320
                 _0x73:
00030c 940e 1208 	CALL SUBOPT_0x14
00030e e0e0      	LDI  R30,LOW(0)
                 _0x320:
00030f 93ec      	ST   X,R30
000310 5f1f      	SUBI R17,-1
000311 cff1      	RJMP _0x71
                 _0x72:
                 ; 0000 0128     else
000312 c010      	RJMP _0x75
                 _0x6F:
                 ; 0000 0129         for(i=0;i<8;i++){if(data_sensor[i]<=data_ref[i]) {s[i]=0;}  else {s[i]=1;}}
000313 e010      	LDI  R17,LOW(0)
                 _0x77:
000314 3018      	CPI  R17,8
000315 f468      	BRSH _0x78
000316 940e 11f4 	CALL SUBOPT_0x13
000318 f020      	BRLO _0x79
000319 940e 1208 	CALL SUBOPT_0x14
00031b e0e0      	LDI  R30,LOW(0)
00031c c003      	RJMP _0x321
                 _0x79:
00031d 940e 1208 	CALL SUBOPT_0x14
00031f e0e1      	LDI  R30,LOW(1)
                 _0x321:
000320 93ec      	ST   X,R30
000321 5f1f      	SUBI R17,-1
000322 cff1      	RJMP _0x77
                 _0x78:
                 _0x75:
                 ; 0000 012A     if (s[0]==1) last=0; else if (s[7]==1) last=1;
000323 91a0 0226 	LDS  R26,_s
000325 30a1      	CPI  R26,LOW(0x1)
000326 f411      	BRNE _0x7B
000327 24dd      	CLR  R13
000328 c006      	RJMP _0x7C
                 _0x7B:
                +
000329 91a0 022d+LDS R26 , _s + ( 7 )
                 	__GETB2MN _s,7
00032b 30a1      	CPI  R26,LOW(0x1)
00032c f411      	BRNE _0x7D
00032d e0e1      	LDI  R30,LOW(1)
00032e 2ede      	MOV  R13,R30
                 ; 0000 012B     sensor=(s[0]+s[1]*2+s[2]*4+s[3]*8+s[4]*16+s[5]*32+s[6]*64+s[7]*128);
                 _0x7D:
                 _0x7C:
                +
00032f 91e0 0227+LDS R30 , _s + ( 1 )
                 	__GETB1MN _s,1
000331 0fee      	LSL  R30
000332 91a0 0226 	LDS  R26,_s
000334 0fae      	ADD  R26,R30
                +
000335 91e0 0228+LDS R30 , _s + ( 2 )
                 	__GETB1MN _s,2
000337 0fee      	LSL  R30
000338 0fee      	LSL  R30
000339 0fae      	ADD  R26,R30
                +
00033a 91e0 0229+LDS R30 , _s + ( 3 )
                 	__GETB1MN _s,3
00033c 0fee      	LSL  R30
00033d 0fee      	LSL  R30
00033e 0fee      	LSL  R30
00033f 0fea      	ADD  R30,R26
000340 2f6e      	MOV  R22,R30
                +
000341 91e0 022a+LDS R30 , _s + ( 4 )
                 	__GETB1MN _s,4
000343 e1a0      	LDI  R26,LOW(16)
000344 9fea      	MUL  R30,R26
000345 01f0      	MOVW R30,R0
000346 0f6e      	ADD  R22,R30
                +
000347 91e0 022b+LDS R30 , _s + ( 5 )
                 	__GETB1MN _s,5
000349 e2a0      	LDI  R26,LOW(32)
00034a 9fea      	MUL  R30,R26
00034b 01f0      	MOVW R30,R0
00034c 0f6e      	ADD  R22,R30
                +
00034d 91e0 022c+LDS R30 , _s + ( 6 )
                 	__GETB1MN _s,6
00034f e4a0      	LDI  R26,LOW(64)
000350 9fea      	MUL  R30,R26
000351 01f0      	MOVW R30,R0
000352 0f6e      	ADD  R22,R30
                +
000353 91e0 022d+LDS R30 , _s + ( 7 )
                 	__GETB1MN _s,7
000355 e8a0      	LDI  R26,LOW(128)
000356 9fea      	MUL  R30,R26
000357 01f0      	MOVW R30,R0
000358 0fe6      	ADD  R30,R22
000359 2e7e      	MOV  R7,R30
                 ; 0000 012C }
00035a 9119      	LD   R17,Y+
00035b 9508      	RET
                 ;
                 ;void kalibrasi()
                 ; 0000 012F {
                 _kalibrasi:
                 ; 0000 0130     unsigned char a,b,c;
                 ; 0000 0131     lcd_clear();
00035c 940e 145b 	CALL __SAVELOCR4
                 ;	a -> R17
                 ;	b -> R16
                 ;	c -> R19
00035e 940e 10e4 	CALL _lcd_clear
                 ; 0000 0132     lcd_gotoxy(0,0);
000360 e0e0      	LDI  R30,LOW(0)
000361 940e 11a5 	CALL SUBOPT_0x3
                 ; 0000 0133             // 1234567890123456
                 ; 0000 0134     lcd_putsf("    Bismillah   ");
                +
000363 eaee     +LDI R30 , LOW ( 2 * _0x0 + ( 56 ) )
000364 e0f0     +LDI R31 , HIGH ( 2 * _0x0 + ( 56 ) )
                 	__POINTW1FN _0x0,56
000365 940e 11ba 	CALL SUBOPT_0x7
                 ; 0000 0135     lcd_putsf("^_^ Kalibrasi^_^");
                +
000367 ebef     +LDI R30 , LOW ( 2 * _0x0 + ( 73 ) )
000368 e0f0     +LDI R31 , HIGH ( 2 * _0x0 + ( 73 ) )
                 	__POINTW1FN _0x0,73
000369 940e 11ba 	CALL SUBOPT_0x7
                 ; 0000 0136     for(a=0;a<10;a++)    data_ref[a]=120;
00036b e010      	LDI  R17,LOW(0)
                 _0x7F:
00036c 301a      	CPI  R17,10
00036d f458      	BRSH _0x80
00036e 2fe1      	MOV  R30,R17
00036f 940e 120d 	CALL SUBOPT_0x15
000371 0fae      	ADD  R26,R30
000372 1fbf      	ADC  R27,R31
000373 e7e8      	LDI  R30,LOW(120)
000374 e0f0      	LDI  R31,HIGH(120)
000375 940e 1440 	CALL __EEPROMWRW
000377 5f1f      	SUBI R17,-1
000378 cff3      	RJMP _0x7F
                 _0x80:
                 ; 0000 0137 PORTC.7=0;
000379 98af      	CBI  0x15,7
                 ; 0000 0138     while(key==7 || key ==3)
                 _0x83:
00037a e0e7      	LDI  R30,LOW(7)
00037b 15e5      	CP   R30,R5
00037c f021      	BREQ _0x86
00037d e0e3      	LDI  R30,LOW(3)
00037e 15e5      	CP   R30,R5
00037f f009      	BREQ _0x86
000380 c05c      	RJMP _0x85
                 _0x86:
                 ; 0000 0139     {
                 ; 0000 013A         key=keypad();
000381 de0e      	RCALL _keypad
000382 2e5e      	MOV  R5,R30
                 ; 0000 013B         baca_sensor();
000383 df64      	RCALL _baca_sensor
                 ; 0000 013C         b=0;
000384 e000      	LDI  R16,LOW(0)
                 ; 0000 013D         for(b=0;b<8;b++)
000385 e000      	LDI  R16,LOW(0)
                 _0x89:
000386 3008      	CPI  R16,8
000387 f548      	BRSH _0x8A
                 ; 0000 013E         {
                 ; 0000 013F             if(data_sensor[b]<=data_terang[b])  data_terang[b]=data_sensor[b];
000388 940e 11eb 	CALL SUBOPT_0x11
00038a 010f      	MOVW R0,R30
00038b 5fe2      	SUBI R30,LOW(-_data_sensor)
00038c 4ffd      	SBCI R31,HIGH(-_data_sensor)
00038d 81a0      	LD   R26,Z
00038e 01f0      	MOVW R30,R0
00038f 5ee2      	SUBI R30,LOW(-_data_terang)
000390 4ffd      	SBCI R31,HIGH(-_data_terang)
000391 81e0      	LD   R30,Z
000392 17ea      	CP   R30,R26
000393 f028      	BRLO _0x8B
000394 2fa0      	MOV  R26,R16
000395 e0b0      	LDI  R27,0
000396 5ea2      	SUBI R26,LOW(-_data_terang)
000397 4fbd      	SBCI R27,HIGH(-_data_terang)
000398 c010      	RJMP _0x322
                 ; 0000 0140             else if(data_sensor[b]>data_gelap[b])   data_gelap[b]=data_sensor[b];
                 _0x8B:
000399 940e 11eb 	CALL SUBOPT_0x11
00039b 010f      	MOVW R0,R30
00039c 5fe2      	SUBI R30,LOW(-_data_sensor)
00039d 4ffd      	SBCI R31,HIGH(-_data_sensor)
00039e 81a0      	LD   R26,Z
00039f 01f0      	MOVW R30,R0
0003a0 5eea      	SUBI R30,LOW(-_data_gelap)
0003a1 4ffd      	SBCI R31,HIGH(-_data_gelap)
0003a2 81e0      	LD   R30,Z
0003a3 17ea      	CP   R30,R26
0003a4 f450      	BRSH _0x8D
0003a5 2fa0      	MOV  R26,R16
0003a6 e0b0      	LDI  R27,0
0003a7 5eaa      	SUBI R26,LOW(-_data_gelap)
0003a8 4fbd      	SBCI R27,HIGH(-_data_gelap)
                 _0x322:
0003a9 2fe0      	MOV  R30,R16
0003aa e0f0      	LDI  R31,0
0003ab 5fe2      	SUBI R30,LOW(-_data_sensor)
0003ac 4ffd      	SBCI R31,HIGH(-_data_sensor)
0003ad 81e0      	LD   R30,Z
0003ae 93ec      	ST   X,R30
                 ; 0000 0141         }
                 _0x8D:
0003af 5f0f      	SUBI R16,-1
0003b0 cfd5      	RJMP _0x89
                 _0x8A:
                 ; 0000 0142         c=0;
0003b1 e030      	LDI  R19,LOW(0)
                 ; 0000 0143         for(c=0;c<8;c++)
0003b2 e030      	LDI  R19,LOW(0)
                 _0x8F:
0003b3 3038      	CPI  R19,8
0003b4 f538      	BRSH _0x90
                 ; 0000 0144         {
                 ; 0000 0145             data_ref[c]=data_terang[c]+((data_gelap[c]-data_terang[c])/2);
0003b5 2fe3      	MOV  R30,R19
0003b6 940e 120d 	CALL SUBOPT_0x15
0003b8 0fea      	ADD  R30,R26
0003b9 1ffb      	ADC  R31,R27
0003ba 93ff      	PUSH R31
0003bb 93ef      	PUSH R30
0003bc 940e 1213 	CALL SUBOPT_0x16
0003be 5ee2      	SUBI R30,LOW(-_data_terang)
0003bf 4ffd      	SBCI R31,HIGH(-_data_terang)
0003c0 8160      	LD   R22,Z
0003c1 2777      	CLR  R23
0003c2 940e 1213 	CALL SUBOPT_0x16
0003c4 5eea      	SUBI R30,LOW(-_data_gelap)
0003c5 4ffd      	SBCI R31,HIGH(-_data_gelap)
0003c6 81a0      	LD   R26,Z
0003c7 e0b0      	LDI  R27,0
0003c8 940e 1213 	CALL SUBOPT_0x16
0003ca 5ee2      	SUBI R30,LOW(-_data_terang)
0003cb 4ffd      	SBCI R31,HIGH(-_data_terang)
0003cc 81e0      	LD   R30,Z
0003cd e0f0      	LDI  R31,0
0003ce 1bae      	SUB  R26,R30
0003cf 0bbf      	SBC  R27,R31
0003d0 e0e2      	LDI  R30,LOW(2)
0003d1 e0f0      	LDI  R31,HIGH(2)
0003d2 940e 1403 	CALL __DIVW21
0003d4 0fe6      	ADD  R30,R22
0003d5 1ff7      	ADC  R31,R23
0003d6 91af      	POP  R26
0003d7 91bf      	POP  R27
0003d8 940e 1440 	CALL __EEPROMWRW
                 ; 0000 0146         }
0003da 5f3f      	SUBI R19,-1
0003db cfd7      	RJMP _0x8F
                 _0x90:
                 ; 0000 0147 
                 ; 0000 0148     }
0003dc cf9d      	RJMP _0x83
                 _0x85:
                 ; 0000 0149     buz_off;
0003dd 9aaf      	SBI  0x15,7
                 ; 0000 014A     lcd_clear();
0003de 940e 10e4 	CALL _lcd_clear
                 ; 0000 014B     lcd_putsf(" Alhamdulillah  ");
                +
0003e0 ede0     +LDI R30 , LOW ( 2 * _0x0 + ( 90 ) )
0003e1 e0f0     +LDI R31 , HIGH ( 2 * _0x0 + ( 90 ) )
                 	__POINTW1FN _0x0,90
0003e2 940e 11ba 	CALL SUBOPT_0x7
                 ; 0000 014C     lcd_putsf("Semoga Sukses :)");
                +
0003e4 eee1     +LDI R30 , LOW ( 2 * _0x0 + ( 107 ) )
0003e5 e0f0     +LDI R31 , HIGH ( 2 * _0x0 + ( 107 ) )
                 	__POINTW1FN _0x0,107
0003e6 940e 11ba 	CALL SUBOPT_0x7
                 ; 0000 014D     delay_ms(1000);
0003e8 940e 1216 	CALL SUBOPT_0x17
                 ; 0000 014E     lcd_clear();
0003ea 940e 10e4 	CALL _lcd_clear
                 ; 0000 014F 
                 ; 0000 0150 }
0003ec 940e 1462 	CALL __LOADLOCR4
0003ee c32e      	RJMP _0x2080006
                 ;
                 ;
                 ;void tampil_bit(unsigned char xx){
                 ; 0000 0153 void tampil_bit(unsigned char xx){
                 _tampil_bit:
                 ; 0000 0154      if(xx==0) lcd_putchar('0');
                 ;	xx -> Y+0
0003ef 81e8      	LD   R30,Y
0003f0 30e0      	CPI  R30,0
0003f1 f411      	BRNE _0x93
0003f2 e3e0      	LDI  R30,LOW(48)
0003f3 c001      	RJMP _0x323
                 ; 0000 0155      else      lcd_putchar('1');
                 _0x93:
0003f4 e3e1      	LDI  R30,LOW(49)
                 _0x323:
0003f5 93ea      	ST   -Y,R30
0003f6 940e 10fb 	CALL _lcd_putchar
                 ; 0000 0156 }
                 _0x2080008:
0003f8 9621      	ADIW R28,1
0003f9 9508      	RET
                 ;
                 ;void cetak_sensor()
                 ; 0000 0159 {
                 _cetak_sensor:
                 ; 0000 015A     unsigned char i,j=7;
                 ; 0000 015B     lcd_gotoxy(0,0);
0003fa 931a      	ST   -Y,R17
0003fb 930a      	ST   -Y,R16
                 ;	i -> R17
                 ;	j -> R16
0003fc e007      	LDI  R16,7
0003fd e0e0      	LDI  R30,LOW(0)
0003fe 940e 11a5 	CALL SUBOPT_0x3
                 ; 0000 015C              //1234567890123456
                 ; 0000 015D     lcd_putsf(" >>> Sensor <<< ");
                +
000400 efe2     +LDI R30 , LOW ( 2 * _0x0 + ( 124 ) )
000401 e0f0     +LDI R31 , HIGH ( 2 * _0x0 + ( 124 ) )
                 	__POINTW1FN _0x0,124
000402 940e 11ba 	CALL SUBOPT_0x7
                 ; 0000 015E     delay_ms(1);
000404 940e 1194 	CALL SUBOPT_0x0
                 ; 0000 015F     baca();
000406 def6      	RCALL _baca
                 ; 0000 0160     lcd_gotoxy(4,1);
000407 940e 121c 	CALL SUBOPT_0x18
000409 940e 10d2 	CALL _lcd_gotoxy
                 ; 0000 0161     for(i=0;i<8;i++) {tampil_bit(s[j]); j--;}
00040b e010      	LDI  R17,LOW(0)
                 _0x96:
00040c 3018      	CPI  R17,8
00040d f450      	BRSH _0x97
00040e 940e 11eb 	CALL SUBOPT_0x11
000410 5dea      	SUBI R30,LOW(-_s)
000411 4ffd      	SBCI R31,HIGH(-_s)
000412 81e0      	LD   R30,Z
000413 93ea      	ST   -Y,R30
000414 dfda      	RCALL _tampil_bit
000415 5001      	SUBI R16,1
000416 5f1f      	SUBI R17,-1
000417 cff4      	RJMP _0x96
                 _0x97:
                 ; 0000 0162     lcd_gotoxy(2,1);
000418 940e 1221 	CALL SUBOPT_0x19
00041a 940e 10d2 	CALL _lcd_gotoxy
                 ; 0000 0163     if(gt==1) tampil_bit(!syp_ki);
00041c 940e 11ee 	CALL SUBOPT_0x12
00041e f421      	BRNE _0x98
00041f e0e0      	LDI  R30,0
000420 9b82      	SBIS 0x10,2
000421 e0e1      	LDI  R30,1
000422 c003      	RJMP _0x324
                 ; 0000 0164     else tampil_bit(syp_ki);
                 _0x98:
000423 e0e0      	LDI  R30,0
000424 9982      	SBIC 0x10,2
000425 e0e1      	LDI  R30,1
                 _0x324:
000426 93ea      	ST   -Y,R30
000427 dfc7      	RCALL _tampil_bit
                 ; 0000 0165     lcd_gotoxy(13,1);
000428 e0ed      	LDI  R30,LOW(13)
000429 940e 1226 	CALL SUBOPT_0x1A
                 ; 0000 0166     if(gt==1) tampil_bit(!syp_ka);
00042b 940e 11ee 	CALL SUBOPT_0x12
00042d f421      	BRNE _0x9A
00042e e0e0      	LDI  R30,0
00042f 9b83      	SBIS 0x10,3
000430 e0e1      	LDI  R30,1
000431 c003      	RJMP _0x325
                 ; 0000 0167     else tampil_bit(syp_ka);
                 _0x9A:
000432 e0e0      	LDI  R30,0
000433 9983      	SBIC 0x10,3
000434 e0e1      	LDI  R30,1
                 _0x325:
000435 93ea      	ST   -Y,R30
000436 dfb8      	RCALL _tampil_bit
                 ; 0000 0168     delay_ms(10);
000437 e0ea      	LDI  R30,LOW(10)
000438 e0f0      	LDI  R31,HIGH(10)
000439 940e 122b 	CALL SUBOPT_0x1B
                 ; 0000 0169 }
                 _0x2080007:
00043b 9109      	LD   R16,Y+
00043c 9119      	LD   R17,Y+
00043d 9508      	RET
                 ;
                 ;void set_baca()
                 ; 0000 016C {
                 _set_baca:
                 ; 0000 016D     while(key!=12)
                 _0x9C:
00043e e0ec      	LDI  R30,LOW(12)
00043f 15e5      	CP   R30,R5
000440 f0d9      	BREQ _0x9E
                 ; 0000 016E     {
                 ; 0000 016F         lcd_putsf("  Sensor  Baca  ");
                +
000441 e0e3     +LDI R30 , LOW ( 2 * _0x0 + ( 141 ) )
000442 e0f1     +LDI R31 , HIGH ( 2 * _0x0 + ( 141 ) )
                 	__POINTW1FN _0x0,141
000443 940e 11ba 	CALL SUBOPT_0x7
                 ; 0000 0170         lcd_putsf("1:Gelap 2:Terang");
                +
000445 e1e4     +LDI R30 , LOW ( 2 * _0x0 + ( 158 ) )
000446 e0f1     +LDI R31 , HIGH ( 2 * _0x0 + ( 158 ) )
                 	__POINTW1FN _0x0,158
000447 940e 11ba 	CALL SUBOPT_0x7
                 ; 0000 0171         key=inkeypad();
000449 dd92      	RCALL _inkeypad
00044a 2e5e      	MOV  R5,R30
                 ; 0000 0172         if(key==1) {gt=0; lcd_clear(); delay_ms(200); break;}
00044b e0e1      	LDI  R30,LOW(1)
00044c 15e5      	CP   R30,R5
00044d f429      	BRNE _0x9F
00044e 940e 122f 	CALL SUBOPT_0x1C
000450 940e 1235 	CALL SUBOPT_0x1D
000452 c009      	RJMP _0x9E
                 ; 0000 0173         else if(key==2) {gt=1; lcd_clear(); delay_ms(200); break;}
                 _0x9F:
000453 e0e2      	LDI  R30,LOW(2)
000454 15e5      	CP   R30,R5
000455 f429      	BRNE _0xA1
000456 940e 123a 	CALL SUBOPT_0x1E
000458 940e 1235 	CALL SUBOPT_0x1D
00045a c001      	RJMP _0x9E
                 ; 0000 0174     }
                 _0xA1:
00045b cfe2      	RJMP _0x9C
                 _0x9E:
                 ; 0000 0175 }
00045c 9508      	RET
                 ;
                 ;void cek_adc()
                 ; 0000 0178 {
                 _cek_adc:
                 ; 0000 0179     while(key!=12)
                 _0xA2:
00045d e0ec      	LDI  R30,LOW(12)
00045e 15e5      	CP   R30,R5
00045f f1b1      	BREQ _0xA4
                 ; 0000 017A     {
                 ; 0000 017B     key=keypad();
000460 dd2f      	RCALL _keypad
000461 2e5e      	MOV  R5,R30
                 ; 0000 017C     lcd_clear();
000462 940e 10e4 	CALL _lcd_clear
                 ; 0000 017D     //lcd_gotoxy(0,0);
                 ; 0000 017E     //lcd_putsf("Sensor =");
                 ; 0000 017F     //lcd_gotoxy(6,0);
                 ; 0000 0180     sprintf(buf3,"%d %d %d %d",read_adc(7),read_adc(6),read_adc(5),read_adc(4));
000464 940e 1240 	CALL SUBOPT_0x1F
                +
000466 e2e5     +LDI R30 , LOW ( 2 * _0x0 + ( 175 ) )
000467 e0f1     +LDI R31 , HIGH ( 2 * _0x0 + ( 175 ) )
                 	__POINTW1FN _0x0,175
000468 93fa      	ST   -Y,R31
000469 93ea      	ST   -Y,R30
00046a e0e7      	LDI  R30,LOW(7)
00046b 940e 1245 	CALL SUBOPT_0x20
00046d e0e6      	LDI  R30,LOW(6)
00046e 940e 1245 	CALL SUBOPT_0x20
000470 e0e5      	LDI  R30,LOW(5)
000471 940e 1245 	CALL SUBOPT_0x20
000473 e0e4      	LDI  R30,LOW(4)
000474 940e 1245 	CALL SUBOPT_0x20
000476 940e 1249 	CALL SUBOPT_0x21
                 ; 0000 0181     lcd_puts(buf3);
000478 940e 111c 	CALL _lcd_puts
                 ; 0000 0182     lcd_gotoxy(0,1);
00047a e0e0      	LDI  R30,LOW(0)
00047b 940e 1226 	CALL SUBOPT_0x1A
                 ; 0000 0183     sprintf(buf3,"%d %d %d %d",read_adc(3),read_adc(2),read_adc(1),read_adc(0));
00047d 940e 1240 	CALL SUBOPT_0x1F
                +
00047f e2e5     +LDI R30 , LOW ( 2 * _0x0 + ( 175 ) )
000480 e0f1     +LDI R31 , HIGH ( 2 * _0x0 + ( 175 ) )
                 	__POINTW1FN _0x0,175
000481 93fa      	ST   -Y,R31
000482 93ea      	ST   -Y,R30
000483 e0e3      	LDI  R30,LOW(3)
000484 940e 1245 	CALL SUBOPT_0x20
000486 e0e2      	LDI  R30,LOW(2)
000487 940e 1245 	CALL SUBOPT_0x20
000489 e0e1      	LDI  R30,LOW(1)
00048a 940e 1245 	CALL SUBOPT_0x20
00048c e0e0      	LDI  R30,LOW(0)
00048d 940e 1245 	CALL SUBOPT_0x20
00048f 940e 1249 	CALL SUBOPT_0x21
                 ; 0000 0184     lcd_puts(buf3);
000491 940e 111c 	CALL _lcd_puts
                 ; 0000 0185     delay_ms(300);
000493 940e 124e 	CALL SUBOPT_0x22
                 ; 0000 0186     }
000495 cfc7      	RJMP _0xA2
                 _0xA4:
                 ; 0000 0187     lcd_clear();
000496 940e 10e4 	CALL _lcd_clear
                 ; 0000 0188 }
000498 9508      	RET
                 ;
                 ;//void baca() //gelap=1 terang=0
                 ;//{
                 ;//    baca_sensor();
                 ;//    if(gt==1)
                 ;//
                 ;//    {
                 ;//    if(data_sensor[0]<=data_ref[0]) {s1=1; last=0;}  else {s1=0;}
                 ;//    if(data_sensor[1]<=data_ref[1]) {s2=1;}  else {s2=0;}
                 ;//    if(data_sensor[2]<=data_ref[2]) {s3=1;}  else {s3=0;}
                 ;//    if(data_sensor[3]<=data_ref[3]) {s4=1;}  else {s4=0;}
                 ;//    if(data_sensor[4]<=data_ref[4]) {s5=1;}  else {s5=0;}
                 ;//    if(data_sensor[5]<=data_ref[5]) {s6=1;}  else {s6=0;}
                 ;//    if(data_sensor[6]<=data_ref[6]) {s7=1;}  else {s7=0;}
                 ;//    if(data_sensor[7]<=data_ref[7]) {s8=1; last=1;}  else {s8=0;}
                 ;//    }
                 ;//    else
                 ;//    {
                 ;//    if(data_sensor[0]<=data_ref[0]) {s1=0;}  else {s1=1; last=0;}
                 ;//    if(data_sensor[1]<=data_ref[1]) {s2=0;}  else {s2=1;}
                 ;//    if(data_sensor[2]<=data_ref[2]) {s3=0;}  else {s3=1;}
                 ;//    if(data_sensor[3]<=data_ref[3]) {s4=0;}  else {s4=1;}
                 ;//    if(data_sensor[4]<=data_ref[4]) {s5=0;}  else {s5=1;}
                 ;//    if(data_sensor[5]<=data_ref[5]) {s6=0;}  else {s6=1;}
                 ;//    if(data_sensor[6]<=data_ref[6]) {s7=0;}  else {s7=1;}
                 ;//    if(data_sensor[7]<=data_ref[7]) {s8=0;}  else {s8=1; last=1;}
                 ;//    }
                 ;//    sensor=(s1+s2*2+s3*4+s4*8+s5*16+s6*32+s7*64+s8*128);
                 ;//    //for(i=0;i<9;i++) if(data_sensor[i]<=data_ref[i]) {sensor[i]=1;}  else {sensor[i]=0;}
                 ;//}
                 ;
                 ;//void cetak_sensor()
                 ;//{
                 ;//    lcd_gotoxy(0,0);
                 ;//             //1234567890123456
                 ;//    lcd_putsf(" >>> Sensor <<< ");
                 ;//    delay_ms(1);
                 ;//    baca();
                 ;//    lcd_gotoxy(4,1);
                 ;//    tampil_bit(s1);
                 ;//    tampil_bit(s2);
                 ;//    tampil_bit(s3);
                 ;//    tampil_bit(s4);
                 ;//    tampil_bit(s5);
                 ;//    tampil_bit(s6);
                 ;//    tampil_bit(s7);
                 ;//    tampil_bit(s8);
                 ;//    lcd_gotoxy(2,1);
                 ;//    if(gt==1) tampil_bit(!syp_ki);
                 ;//    else tampil_bit(syp_ki);
                 ;//    lcd_gotoxy(13,1);
                 ;//    if(gt==1) tampil_bit(!syp_ka);
                 ;//    else tampil_bit(syp_ka);
                 ;//    delay_ms(10);
                 ;//    //for(i=0;i<9;i++) if(sensor[i]==0) lcd_putchar('0'); else  lcd_putchar('1');
                 ;//}
                 ;//>>>>>>>>>>>>>>>>>>> SENSOR <<<<<<<<<<<<<<<<<<<\\
                 ;
                 ;//>>>>>>>>>>>>>>>>>>> PD CONTROLER <<<<<<<<<<<<<<<<<<<\\
                 ;void pid()
                 ; 0000 01C5 {
                 ; 0000 01C6     int error,kec_ki,kec_ka,rate;
                 ; 0000 01C7     long int sterr;
                 ; 0000 01C8     unsigned char kec=120;
                 ; 0000 01C9     unsigned char kp=15,kd=10,kec_min=50,kec_max=255;
                 ; 0000 01CA     cetak_sensor();
                 ;	error -> R16,R17
                 ;	kec_ki -> R18,R19
                 ;	kec_ka -> R20,R21
                 ;	rate -> Y+15
                 ;	sterr -> Y+11
                 ;	kec -> Y+10
                 ;	kp -> Y+9
                 ;	kd -> Y+8
                 ;	kec_min -> Y+7
                 ;	kec_max -> Y+6
                 ; 0000 01CB     kec=120;
                 ; 0000 01CC //    if(sensor==0b00011000 || sensor==0b00010000 || sensor==0b00001000) kec++;
                 ; 0000 01CD //    if(kec>=kec_max)kec=kec_max;
                 ; 0000 01CE //    else if(kec<kec_min) kec=kec_min;
                 ; 0000 01CF     switch(sensor)
                 ; 0000 01D0     {
                 ; 0000 01D1         case 0b00000001 : error=-8;  break;
                 ; 0000 01D2         case 0b00000011 : error=-6;  break;
                 ; 0000 01D3         case 0b00000010 : error=-5;  break;
                 ; 0000 01D4         case 0b00000110 : error=-4;  break;
                 ; 0000 01D5         case 0b00000100 : error=-3;  break;
                 ; 0000 01D6         case 0b00001100 : error=-2;  break;
                 ; 0000 01D7         case 0b00001000 : error=-1;  break;
                 ; 0000 01D8         case 0b00011000 : error=0;   break;
                 ; 0000 01D9         case 0b00010000 : error=1;   break;
                 ; 0000 01DA         case 0b00110000 : error=2;   break;
                 ; 0000 01DB         case 0b00100000 : error=3;   break;
                 ; 0000 01DC         case 0b01100000 : error=4;   break;
                 ; 0000 01DD         case 0b01000000 : error=5;   break;
                 ; 0000 01DE         case 0b11000000 : error=6;   break;
                 ; 0000 01DF         case 0b10000000 : error=8;   break;
                 ; 0000 01E0         case 0b11110000 : error=10;  break;
                 ; 0000 01E1         case 0b00001111 : error=-10; break;
                 ; 0000 01E2         case 0x00 : if (last==0) error=-10; else if(last==1) error=10; break;
                 ; 0000 01E3         default : error=0; break;
                 ; 0000 01E4     }
                 ; 0000 01E5     rate = error - last_error;
                 ; 0000 01E6     last_error = error;
                 ; 0000 01E7     sterr= (kp*error) + (kd*rate);
                 ; 0000 01E8 
                 ; 0000 01E9     kec_ki= kec - sterr;
                 ; 0000 01EA     kec_ka= kec + sterr;
                 ; 0000 01EB 
                 ; 0000 01EC     if(kec_ki>kec) motor_ki(maju,kec);
                 ; 0000 01ED     else if(kec_ki<0) motor_ki(mundur,-kec_ki);
                 ; 0000 01EE     else motor_ki(maju,kec_ki);
                 ; 0000 01EF 
                 ; 0000 01F0     if(kec_ka>kec) motor_ka(maju,kec);
                 ; 0000 01F1     else if(kec_ka<0) motor_ka(mundur,-kec_ki);
                 ; 0000 01F2     else motor_ka(maju,kec_ka);
                 ; 0000 01F3 
                 ; 0000 01F4     delay_us(1);
                 ; 0000 01F5 
                 ; 0000 01F6 }
                 ;
                 ;void pid2(unsigned char kec,unsigned char kp, unsigned char kd)
                 ; 0000 01F9 {
                 _pid2:
                 ; 0000 01FA     int error,kec_ki,kec_ka,rate;
                 ; 0000 01FB     long int sterr;
                 ; 0000 01FC     //unsigned char kec=200;
                 ; 0000 01FD     //unsigned char kp=30,kd=20;
                 ; 0000 01FE     baca();
000499 9726      	SBIW R28,6
00049a 940e 1459 	CALL __SAVELOCR6
                 ;	kec -> Y+14
                 ;	kp -> Y+13
                 ;	kd -> Y+12
                 ;	error -> R16,R17
                 ;	kec_ki -> R18,R19
                 ;	kec_ka -> R20,R21
                 ;	rate -> Y+10
                 ;	sterr -> Y+6
00049c de60      	RCALL _baca
                 ; 0000 01FF //    if(sensor==0b00011000 || sensor==0b00010000 || sensor==0b00001000) kec++;
                 ; 0000 0200 //    if(kec>=kec_max)kec=kec_max;
                 ; 0000 0201 //    else if(kec<kec_min) kec=kec_min;
                 ; 0000 0202     switch(sensor)
00049d 940e 1251 	CALL SUBOPT_0x23
                 ; 0000 0203     {
                 ; 0000 0204         case 0b00000001 : error=-8;  break;
00049f f419      	BRNE _0xC9
                +
0004a0 ef08     +LDI R16 , LOW ( - 8 )
0004a1 ef1f     +LDI R17 , HIGH ( - 8 )
                 	__GETWRN 16,17,-8
0004a2 c07d      	RJMP _0xC8
                 ; 0000 0205         case 0b00000011 : error=-6;  break;
                 _0xC9:
0004a3 30e3      	CPI  R30,LOW(0x3)
0004a4 e0a0      	LDI  R26,HIGH(0x3)
0004a5 07fa      	CPC  R31,R26
0004a6 f419      	BRNE _0xCA
                +
0004a7 ef0a     +LDI R16 , LOW ( - 6 )
0004a8 ef1f     +LDI R17 , HIGH ( - 6 )
                 	__GETWRN 16,17,-6
0004a9 c076      	RJMP _0xC8
                 ; 0000 0206         case 0b00000010 : error=-5;  break;
                 _0xCA:
0004aa 30e2      	CPI  R30,LOW(0x2)
0004ab e0a0      	LDI  R26,HIGH(0x2)
0004ac 07fa      	CPC  R31,R26
0004ad f419      	BRNE _0xCB
                +
0004ae ef0b     +LDI R16 , LOW ( - 5 )
0004af ef1f     +LDI R17 , HIGH ( - 5 )
                 	__GETWRN 16,17,-5
0004b0 c06f      	RJMP _0xC8
                 ; 0000 0207         case 0b00000110 : error=-4;  break;
                 _0xCB:
0004b1 30e6      	CPI  R30,LOW(0x6)
0004b2 e0a0      	LDI  R26,HIGH(0x6)
0004b3 07fa      	CPC  R31,R26
0004b4 f419      	BRNE _0xCC
                +
0004b5 ef0c     +LDI R16 , LOW ( - 4 )
0004b6 ef1f     +LDI R17 , HIGH ( - 4 )
                 	__GETWRN 16,17,-4
0004b7 c068      	RJMP _0xC8
                 ; 0000 0208         case 0b00000100 : error=-3;  break;
                 _0xCC:
0004b8 30e4      	CPI  R30,LOW(0x4)
0004b9 e0a0      	LDI  R26,HIGH(0x4)
0004ba 07fa      	CPC  R31,R26
0004bb f419      	BRNE _0xCD
                +
0004bc ef0d     +LDI R16 , LOW ( - 3 )
0004bd ef1f     +LDI R17 , HIGH ( - 3 )
                 	__GETWRN 16,17,-3
0004be c061      	RJMP _0xC8
                 ; 0000 0209         case 0b00001100 : error=-2;  break;
                 _0xCD:
0004bf 30ec      	CPI  R30,LOW(0xC)
0004c0 e0a0      	LDI  R26,HIGH(0xC)
0004c1 07fa      	CPC  R31,R26
0004c2 f419      	BRNE _0xCE
                +
0004c3 ef0e     +LDI R16 , LOW ( - 2 )
0004c4 ef1f     +LDI R17 , HIGH ( - 2 )
                 	__GETWRN 16,17,-2
0004c5 c05a      	RJMP _0xC8
                 ; 0000 020A         case 0b00001000 : error=-1;   break;
                 _0xCE:
0004c6 30e8      	CPI  R30,LOW(0x8)
0004c7 e0a0      	LDI  R26,HIGH(0x8)
0004c8 07fa      	CPC  R31,R26
0004c9 f419      	BRNE _0xCF
                +
0004ca ef0f     +LDI R16 , LOW ( - 1 )
0004cb ef1f     +LDI R17 , HIGH ( - 1 )
                 	__GETWRN 16,17,-1
0004cc c053      	RJMP _0xC8
                 ; 0000 020B         case 0b00011000 : error=0;   break;
                 _0xCF:
0004cd 31e8      	CPI  R30,LOW(0x18)
0004ce e0a0      	LDI  R26,HIGH(0x18)
0004cf 07fa      	CPC  R31,R26
0004d0 f409      	BRNE _0xD0
0004d1 c04c      	RJMP _0x329
                 ; 0000 020C         case 0b00010000 : error=1;   break;
                 _0xD0:
0004d2 31e0      	CPI  R30,LOW(0x10)
0004d3 e0a0      	LDI  R26,HIGH(0x10)
0004d4 07fa      	CPC  R31,R26
0004d5 f419      	BRNE _0xD1
                +
0004d6 e001     +LDI R16 , LOW ( 1 )
0004d7 e010     +LDI R17 , HIGH ( 1 )
                 	__GETWRN 16,17,1
0004d8 c047      	RJMP _0xC8
                 ; 0000 020D         case 0b00110000 : error=2;   break;
                 _0xD1:
0004d9 33e0      	CPI  R30,LOW(0x30)
0004da e0a0      	LDI  R26,HIGH(0x30)
0004db 07fa      	CPC  R31,R26
0004dc f419      	BRNE _0xD2
                +
0004dd e002     +LDI R16 , LOW ( 2 )
0004de e010     +LDI R17 , HIGH ( 2 )
                 	__GETWRN 16,17,2
0004df c040      	RJMP _0xC8
                 ; 0000 020E         case 0b00100000 : error=3;   break;
                 _0xD2:
0004e0 32e0      	CPI  R30,LOW(0x20)
0004e1 e0a0      	LDI  R26,HIGH(0x20)
0004e2 07fa      	CPC  R31,R26
0004e3 f419      	BRNE _0xD3
                +
0004e4 e003     +LDI R16 , LOW ( 3 )
0004e5 e010     +LDI R17 , HIGH ( 3 )
                 	__GETWRN 16,17,3
0004e6 c039      	RJMP _0xC8
                 ; 0000 020F         case 0b01100000 : error=4;   break;
                 _0xD3:
0004e7 36e0      	CPI  R30,LOW(0x60)
0004e8 e0a0      	LDI  R26,HIGH(0x60)
0004e9 07fa      	CPC  R31,R26
0004ea f419      	BRNE _0xD4
                +
0004eb e004     +LDI R16 , LOW ( 4 )
0004ec e010     +LDI R17 , HIGH ( 4 )
                 	__GETWRN 16,17,4
0004ed c032      	RJMP _0xC8
                 ; 0000 0210         case 0b01000000 : error=5;   break;
                 _0xD4:
0004ee 34e0      	CPI  R30,LOW(0x40)
0004ef e0a0      	LDI  R26,HIGH(0x40)
0004f0 07fa      	CPC  R31,R26
0004f1 f419      	BRNE _0xD5
                +
0004f2 e005     +LDI R16 , LOW ( 5 )
0004f3 e010     +LDI R17 , HIGH ( 5 )
                 	__GETWRN 16,17,5
0004f4 c02b      	RJMP _0xC8
                 ; 0000 0211         case 0b11000000 : error=6;   break;
                 _0xD5:
0004f5 3ce0      	CPI  R30,LOW(0xC0)
0004f6 e0a0      	LDI  R26,HIGH(0xC0)
0004f7 07fa      	CPC  R31,R26
0004f8 f419      	BRNE _0xD6
                +
0004f9 e006     +LDI R16 , LOW ( 6 )
0004fa e010     +LDI R17 , HIGH ( 6 )
                 	__GETWRN 16,17,6
0004fb c024      	RJMP _0xC8
                 ; 0000 0212         case 0b10000000 : error=8;   break;
                 _0xD6:
0004fc 38e0      	CPI  R30,LOW(0x80)
0004fd e0a0      	LDI  R26,HIGH(0x80)
0004fe 07fa      	CPC  R31,R26
0004ff f419      	BRNE _0xD7
                +
000500 e008     +LDI R16 , LOW ( 8 )
000501 e010     +LDI R17 , HIGH ( 8 )
                 	__GETWRN 16,17,8
000502 c01d      	RJMP _0xC8
                 ; 0000 0213         case 0b11110000 : error=10;  break;
                 _0xD7:
000503 3fe0      	CPI  R30,LOW(0xF0)
000504 e0a0      	LDI  R26,HIGH(0xF0)
000505 07fa      	CPC  R31,R26
000506 f419      	BRNE _0xD8
                +
000507 e00a     +LDI R16 , LOW ( 10 )
000508 e010     +LDI R17 , HIGH ( 10 )
                 	__GETWRN 16,17,10
000509 c016      	RJMP _0xC8
                 ; 0000 0214         case 0b00001111 : error=-10; break;
                 _0xD8:
00050a 30ef      	CPI  R30,LOW(0xF)
00050b e0a0      	LDI  R26,HIGH(0xF)
00050c 07fa      	CPC  R31,R26
00050d f419      	BRNE _0xD9
                +
00050e ef06     +LDI R16 , LOW ( - 10 )
00050f ef1f     +LDI R17 , HIGH ( - 10 )
                 	__GETWRN 16,17,-10
000510 c00f      	RJMP _0xC8
                 ; 0000 0215         case 0x00 : if (last==0) error=-10; else if(last==1) error=10; break;
                 _0xD9:
000511 9730      	SBIW R30,0
000512 f459      	BRNE _0xDE
000513 20dd      	TST  R13
000514 f419      	BRNE _0xDB
                +
000515 ef06     +LDI R16 , LOW ( - 10 )
000516 ef1f     +LDI R17 , HIGH ( - 10 )
                 	__GETWRN 16,17,-10
000517 c005      	RJMP _0xDC
                 _0xDB:
000518 e0e1      	LDI  R30,LOW(1)
000519 15ed      	CP   R30,R13
00051a f411      	BRNE _0xDD
                +
00051b e00a     +LDI R16 , LOW ( 10 )
00051c e010     +LDI R17 , HIGH ( 10 )
                 	__GETWRN 16,17,10
                 _0xDD:
                 _0xDC:
00051d c002      	RJMP _0xC8
                 ; 0000 0216         default : error=0; break;
                 _0xDE:
                 _0x329:
                +
00051e e000     +LDI R16 , LOW ( 0 )
00051f e010     +LDI R17 , HIGH ( 0 )
                 	__GETWRN 16,17,0
                 ; 0000 0217     }
                 _0xC8:
                 ; 0000 0218     rate = error - last_error;
000520 940e 1257 	CALL SUBOPT_0x24
000522 87ea      	STD  Y+10,R30
000523 87fb      	STD  Y+10+1,R31
                 ; 0000 0219     last_error = error;
                +
000524 9300 022e+STS _last_error + ( 0 ) , R16
000526 9310 022f+STS _last_error + ( 0 ) + 1 , R17
                 	__PUTWMRN _last_error,0,16,17
                 ; 0000 021A     sterr= (kp*error) + (kd*rate);
000528 85ad      	LDD  R26,Y+13
000529 940e 125f 	CALL SUBOPT_0x25
00052b 85ec      	LDD  R30,Y+12
00052c e0f0      	LDI  R31,0
00052d 85aa      	LDD  R26,Y+10
00052e 85bb      	LDD  R27,Y+10+1
00052f 940e 1265 	CALL SUBOPT_0x26
                +
000531 83ee     +STD Y + 6 , R30
000532 83ff     +STD Y + 6 + 1 , R31
000533 8768     +STD Y + 6 + 2 , R22
000534 8779     +STD Y + 6 + 3 , R23
                 	__PUTD1S 6
                 ; 0000 021B 
                 ; 0000 021C     kec_ki= kec - sterr;
000535 85ae      	LDD  R26,Y+14
000536 27bb      	CLR  R27
000537 940e 126c 	CALL SUBOPT_0x27
                 ; 0000 021D     kec_ka= kec + sterr;
000539 85ee      	LDD  R30,Y+14
00053a e0f0      	LDI  R31,0
00053b 81ae      	LDD  R26,Y+6
00053c 81bf      	LDD  R27,Y+6+1
00053d 0fea      	ADD  R30,R26
00053e 1ffb      	ADC  R31,R27
00053f 01af      	MOVW R20,R30
                 ; 0000 021E 
                 ; 0000 021F     if(kec_ki>kec) motor_ki(maju,kec);
000540 85ee      	LDD  R30,Y+14
000541 940e 1274 	CALL SUBOPT_0x28
000543 f42c      	BRGE _0xDF
000544 e0e0      	LDI  R30,LOW(0)
000545 93ea      	ST   -Y,R30
000546 85ef      	LDD  R30,Y+15
000547 93ea      	ST   -Y,R30
000548 c008      	RJMP _0x32A
                 ; 0000 0220     else if(kec_ki<0) motor_ki(mundur,-kec_ki);
                 _0xDF:
000549 2333      	TST  R19
00054a f41a      	BRPL _0xE1
00054b 940e 1279 	CALL SUBOPT_0x29
00054d c003      	RJMP _0x32A
                 ; 0000 0221     else motor_ki(maju,kec_ki);
                 _0xE1:
00054e e0e0      	LDI  R30,LOW(0)
00054f 93ea      	ST   -Y,R30
000550 932a      	ST   -Y,R18
                 _0x32A:
000551 dd23      	RCALL _motor_ki
                 ; 0000 0222 
                 ; 0000 0223     if(kec_ka>kec) motor_ka(maju,kec);
000552 85ee      	LDD  R30,Y+14
000553 940e 127f 	CALL SUBOPT_0x2A
000555 f42c      	BRGE _0xE3
000556 e0e0      	LDI  R30,LOW(0)
000557 93ea      	ST   -Y,R30
000558 85ef      	LDD  R30,Y+15
000559 93ea      	ST   -Y,R30
00055a c00b      	RJMP _0x32B
                 ; 0000 0224     else if(kec_ka<0) motor_ka(mundur,-kec_ka);
                 _0xE3:
00055b 2355      	TST  R21
00055c f432      	BRPL _0xE5
00055d e0e1      	LDI  R30,LOW(1)
00055e 93ea      	ST   -Y,R30
00055f 2fe4      	MOV  R30,R20
000560 95e1      	NEG  R30
000561 93ea      	ST   -Y,R30
000562 c003      	RJMP _0x32B
                 ; 0000 0225     else motor_ka(maju,kec_ka);
                 _0xE5:
000563 e0e0      	LDI  R30,LOW(0)
000564 93ea      	ST   -Y,R30
000565 934a      	ST   -Y,R20
                 _0x32B:
000566 dd22      	RCALL _motor_ka
                 ; 0000 0226 
                 ; 0000 0227     //delay_us(10);
                 ; 0000 0228 
                 ; 0000 0229 }
000567 940e 1460 	CALL __LOADLOCR6
000569 962f      	ADIW R28,15
00056a 9508      	RET
                 ;
                 ;void pid_putus2()
                 ; 0000 022C {
                 _pid_putus2:
                 ; 0000 022D     int error,kec_ki,kec_ka,rate;
                 ; 0000 022E     long int sterr;
                 ; 0000 022F     unsigned char kec=150;
                 ; 0000 0230     unsigned char kp=23,kd=15,kec_min=50,kec_max=255;
                 ; 0000 0231     cetak_sensor();
00056b 972b      	SBIW R28,11
00056c efef      	LDI  R30,LOW(255)
00056d 83e8      	ST   Y,R30
00056e e3e2      	LDI  R30,LOW(50)
00056f 83e9      	STD  Y+1,R30
000570 e0ef      	LDI  R30,LOW(15)
000571 83ea      	STD  Y+2,R30
000572 e1e7      	LDI  R30,LOW(23)
000573 83eb      	STD  Y+3,R30
000574 e9e6      	LDI  R30,LOW(150)
000575 83ec      	STD  Y+4,R30
000576 940e 1459 	CALL __SAVELOCR6
                 ;	error -> R16,R17
                 ;	kec_ki -> R18,R19
                 ;	kec_ka -> R20,R21
                 ;	rate -> Y+15
                 ;	sterr -> Y+11
                 ;	kec -> Y+10
                 ;	kp -> Y+9
                 ;	kd -> Y+8
                 ;	kec_min -> Y+7
                 ;	kec_max -> Y+6
000578 de81      	RCALL _cetak_sensor
                 ; 0000 0232     kec=150;
000579 e9e6      	LDI  R30,LOW(150)
00057a 87ea      	STD  Y+10,R30
                 ; 0000 0233 //    if(sensor==0b00011000 || sensor==0b00010000 || sensor==0b00001000) kec++;
                 ; 0000 0234 //    if(kec>=kec_max)kec=kec_max;
                 ; 0000 0235 //    else if(kec<kec_min) kec=kec_min;
                 ; 0000 0236     switch(sensor)
00057b 940e 1251 	CALL SUBOPT_0x23
                 ; 0000 0237     {
                 ; 0000 0238         case 0b00000001 : error=-8;  break;
00057d f419      	BRNE _0xEA
                +
00057e ef08     +LDI R16 , LOW ( - 8 )
00057f ef1f     +LDI R17 , HIGH ( - 8 )
                 	__GETWRN 16,17,-8
000580 c070      	RJMP _0xE9
                 ; 0000 0239         case 0b00000011 : error=-6;  break;
                 _0xEA:
000581 30e3      	CPI  R30,LOW(0x3)
000582 e0a0      	LDI  R26,HIGH(0x3)
000583 07fa      	CPC  R31,R26
000584 f419      	BRNE _0xEB
                +
000585 ef0a     +LDI R16 , LOW ( - 6 )
000586 ef1f     +LDI R17 , HIGH ( - 6 )
                 	__GETWRN 16,17,-6
000587 c069      	RJMP _0xE9
                 ; 0000 023A         case 0b00000010 : error=-5;  break;
                 _0xEB:
000588 30e2      	CPI  R30,LOW(0x2)
000589 e0a0      	LDI  R26,HIGH(0x2)
00058a 07fa      	CPC  R31,R26
00058b f419      	BRNE _0xEC
                +
00058c ef0b     +LDI R16 , LOW ( - 5 )
00058d ef1f     +LDI R17 , HIGH ( - 5 )
                 	__GETWRN 16,17,-5
00058e c062      	RJMP _0xE9
                 ; 0000 023B         case 0b00000110 : error=-4;  break;
                 _0xEC:
00058f 30e6      	CPI  R30,LOW(0x6)
000590 e0a0      	LDI  R26,HIGH(0x6)
000591 07fa      	CPC  R31,R26
000592 f419      	BRNE _0xED
                +
000593 ef0c     +LDI R16 , LOW ( - 4 )
000594 ef1f     +LDI R17 , HIGH ( - 4 )
                 	__GETWRN 16,17,-4
000595 c05b      	RJMP _0xE9
                 ; 0000 023C         case 0b00000100 : error=-3;  break;
                 _0xED:
000596 30e4      	CPI  R30,LOW(0x4)
000597 e0a0      	LDI  R26,HIGH(0x4)
000598 07fa      	CPC  R31,R26
000599 f419      	BRNE _0xEE
                +
00059a ef0d     +LDI R16 , LOW ( - 3 )
00059b ef1f     +LDI R17 , HIGH ( - 3 )
                 	__GETWRN 16,17,-3
00059c c054      	RJMP _0xE9
                 ; 0000 023D         case 0b00001100 : error=-2;  break;
                 _0xEE:
00059d 30ec      	CPI  R30,LOW(0xC)
00059e e0a0      	LDI  R26,HIGH(0xC)
00059f 07fa      	CPC  R31,R26
0005a0 f419      	BRNE _0xEF
                +
0005a1 ef0e     +LDI R16 , LOW ( - 2 )
0005a2 ef1f     +LDI R17 , HIGH ( - 2 )
                 	__GETWRN 16,17,-2
0005a3 c04d      	RJMP _0xE9
                 ; 0000 023E         case 0b00001000 : error=-1;  break;
                 _0xEF:
0005a4 30e8      	CPI  R30,LOW(0x8)
0005a5 e0a0      	LDI  R26,HIGH(0x8)
0005a6 07fa      	CPC  R31,R26
0005a7 f419      	BRNE _0xF0
                +
0005a8 ef0f     +LDI R16 , LOW ( - 1 )
0005a9 ef1f     +LDI R17 , HIGH ( - 1 )
                 	__GETWRN 16,17,-1
0005aa c046      	RJMP _0xE9
                 ; 0000 023F         case 0b00011000 : error=0;   break;
                 _0xF0:
0005ab 31e8      	CPI  R30,LOW(0x18)
0005ac e0a0      	LDI  R26,HIGH(0x18)
0005ad 07fa      	CPC  R31,R26
0005ae f409      	BRNE _0xF1
0005af c03f      	RJMP _0x32C
                 ; 0000 0240         case 0b00010000 : error=1;   break;
                 _0xF1:
0005b0 31e0      	CPI  R30,LOW(0x10)
0005b1 e0a0      	LDI  R26,HIGH(0x10)
0005b2 07fa      	CPC  R31,R26
0005b3 f419      	BRNE _0xF2
                +
0005b4 e001     +LDI R16 , LOW ( 1 )
0005b5 e010     +LDI R17 , HIGH ( 1 )
                 	__GETWRN 16,17,1
0005b6 c03a      	RJMP _0xE9
                 ; 0000 0241         case 0b00110000 : error=2;   break;
                 _0xF2:
0005b7 33e0      	CPI  R30,LOW(0x30)
0005b8 e0a0      	LDI  R26,HIGH(0x30)
0005b9 07fa      	CPC  R31,R26
0005ba f419      	BRNE _0xF3
                +
0005bb e002     +LDI R16 , LOW ( 2 )
0005bc e010     +LDI R17 , HIGH ( 2 )
                 	__GETWRN 16,17,2
0005bd c033      	RJMP _0xE9
                 ; 0000 0242         case 0b00100000 : error=3;   break;
                 _0xF3:
0005be 32e0      	CPI  R30,LOW(0x20)
0005bf e0a0      	LDI  R26,HIGH(0x20)
0005c0 07fa      	CPC  R31,R26
0005c1 f419      	BRNE _0xF4
                +
0005c2 e003     +LDI R16 , LOW ( 3 )
0005c3 e010     +LDI R17 , HIGH ( 3 )
                 	__GETWRN 16,17,3
0005c4 c02c      	RJMP _0xE9
                 ; 0000 0243         case 0b01100000 : error=4;   break;
                 _0xF4:
0005c5 36e0      	CPI  R30,LOW(0x60)
0005c6 e0a0      	LDI  R26,HIGH(0x60)
0005c7 07fa      	CPC  R31,R26
0005c8 f419      	BRNE _0xF5
                +
0005c9 e004     +LDI R16 , LOW ( 4 )
0005ca e010     +LDI R17 , HIGH ( 4 )
                 	__GETWRN 16,17,4
0005cb c025      	RJMP _0xE9
                 ; 0000 0244         case 0b01000000 : error=5;   break;
                 _0xF5:
0005cc 34e0      	CPI  R30,LOW(0x40)
0005cd e0a0      	LDI  R26,HIGH(0x40)
0005ce 07fa      	CPC  R31,R26
0005cf f419      	BRNE _0xF6
                +
0005d0 e005     +LDI R16 , LOW ( 5 )
0005d1 e010     +LDI R17 , HIGH ( 5 )
                 	__GETWRN 16,17,5
0005d2 c01e      	RJMP _0xE9
                 ; 0000 0245         case 0b11000000 : error=6;   break;
                 _0xF6:
0005d3 3ce0      	CPI  R30,LOW(0xC0)
0005d4 e0a0      	LDI  R26,HIGH(0xC0)
0005d5 07fa      	CPC  R31,R26
0005d6 f419      	BRNE _0xF7
                +
0005d7 e006     +LDI R16 , LOW ( 6 )
0005d8 e010     +LDI R17 , HIGH ( 6 )
                 	__GETWRN 16,17,6
0005d9 c017      	RJMP _0xE9
                 ; 0000 0246         case 0b10000000 : error=8;   break;
                 _0xF7:
0005da 38e0      	CPI  R30,LOW(0x80)
0005db e0a0      	LDI  R26,HIGH(0x80)
0005dc 07fa      	CPC  R31,R26
0005dd f419      	BRNE _0xF8
                +
0005de e008     +LDI R16 , LOW ( 8 )
0005df e010     +LDI R17 , HIGH ( 8 )
                 	__GETWRN 16,17,8
0005e0 c010      	RJMP _0xE9
                 ; 0000 0247         case 0b11110000 : error=10;  break;
                 _0xF8:
0005e1 3fe0      	CPI  R30,LOW(0xF0)
0005e2 e0a0      	LDI  R26,HIGH(0xF0)
0005e3 07fa      	CPC  R31,R26
0005e4 f419      	BRNE _0xF9
                +
0005e5 e00a     +LDI R16 , LOW ( 10 )
0005e6 e010     +LDI R17 , HIGH ( 10 )
                 	__GETWRN 16,17,10
0005e7 c009      	RJMP _0xE9
                 ; 0000 0248         case 0b00001111 : error=-10; break;
                 _0xF9:
0005e8 30ef      	CPI  R30,LOW(0xF)
0005e9 e0a0      	LDI  R26,HIGH(0xF)
0005ea 07fa      	CPC  R31,R26
0005eb f419      	BRNE _0xFB
                +
0005ec ef06     +LDI R16 , LOW ( - 10 )
0005ed ef1f     +LDI R17 , HIGH ( - 10 )
                 	__GETWRN 16,17,-10
0005ee c002      	RJMP _0xE9
                 ; 0000 0249 //        case 0x00 : if (last==0) error=-10; else if(last==1) error=10; break;
                 ; 0000 024A         default : error=0; break;
                 _0xFB:
                 _0x32C:
                +
0005ef e000     +LDI R16 , LOW ( 0 )
0005f0 e010     +LDI R17 , HIGH ( 0 )
                 	__GETWRN 16,17,0
                 ; 0000 024B     }
                 _0xE9:
                 ; 0000 024C     rate = error - last_error;
0005f1 940e 1257 	CALL SUBOPT_0x24
0005f3 87ef      	STD  Y+15,R30
0005f4 8bf8      	STD  Y+15+1,R31
                 ; 0000 024D     last_error = error;
                +
0005f5 9300 022e+STS _last_error + ( 0 ) , R16
0005f7 9310 022f+STS _last_error + ( 0 ) + 1 , R17
                 	__PUTWMRN _last_error,0,16,17
                 ; 0000 024E     sterr= (kp*error) + (kd*rate);
0005f9 85a9      	LDD  R26,Y+9
0005fa 940e 125f 	CALL SUBOPT_0x25
0005fc 85e8      	LDD  R30,Y+8
0005fd e0f0      	LDI  R31,0
0005fe 85af      	LDD  R26,Y+15
0005ff 89b8      	LDD  R27,Y+15+1
000600 940e 1265 	CALL SUBOPT_0x26
                +
000602 87eb     +STD Y + 11 , R30
000603 87fc     +STD Y + 11 + 1 , R31
000604 876d     +STD Y + 11 + 2 , R22
000605 877e     +STD Y + 11 + 3 , R23
                 	__PUTD1S 11
                 ; 0000 024F 
                 ; 0000 0250     kec_ki= kec - sterr;
000606 85aa      	LDD  R26,Y+10
000607 27bb      	CLR  R27
000608 940e 126c 	CALL SUBOPT_0x27
                 ; 0000 0251     kec_ka= kec + sterr;
00060a 85ea      	LDD  R30,Y+10
00060b e0f0      	LDI  R31,0
00060c 85ab      	LDD  R26,Y+11
00060d 85bc      	LDD  R27,Y+11+1
00060e 0fea      	ADD  R30,R26
00060f 1ffb      	ADC  R31,R27
000610 01af      	MOVW R20,R30
                 ; 0000 0252 
                 ; 0000 0253     if(kec_ki>kec) motor_ki(maju,kec);
000611 85ea      	LDD  R30,Y+10
000612 940e 1274 	CALL SUBOPT_0x28
000614 f42c      	BRGE _0xFC
000615 e0e0      	LDI  R30,LOW(0)
000616 93ea      	ST   -Y,R30
000617 85eb      	LDD  R30,Y+11
000618 93ea      	ST   -Y,R30
000619 c008      	RJMP _0x32D
                 ; 0000 0254     else if(kec_ki<0) motor_ki(mundur,-kec_ki);
                 _0xFC:
00061a 2333      	TST  R19
00061b f41a      	BRPL _0xFE
00061c 940e 1279 	CALL SUBOPT_0x29
00061e c003      	RJMP _0x32D
                 ; 0000 0255     else motor_ki(maju,kec_ki);
                 _0xFE:
00061f e0e0      	LDI  R30,LOW(0)
000620 93ea      	ST   -Y,R30
000621 932a      	ST   -Y,R18
                 _0x32D:
000622 dc52      	RCALL _motor_ki
                 ; 0000 0256 
                 ; 0000 0257     if(kec_ka>kec) motor_ka(maju,kec);
000623 85ea      	LDD  R30,Y+10
000624 940e 127f 	CALL SUBOPT_0x2A
000626 f42c      	BRGE _0x100
000627 e0e0      	LDI  R30,LOW(0)
000628 93ea      	ST   -Y,R30
000629 85eb      	LDD  R30,Y+11
00062a 93ea      	ST   -Y,R30
00062b c008      	RJMP _0x32E
                 ; 0000 0258     else if(kec_ka<0) motor_ka(mundur,-kec_ki);
                 _0x100:
00062c 2355      	TST  R21
00062d f41a      	BRPL _0x102
00062e 940e 1279 	CALL SUBOPT_0x29
000630 c003      	RJMP _0x32E
                 ; 0000 0259     else motor_ka(maju,kec_ka);
                 _0x102:
000631 e0e0      	LDI  R30,LOW(0)
000632 93ea      	ST   -Y,R30
000633 934a      	ST   -Y,R20
                 _0x32E:
000634 dc54      	RCALL _motor_ka
                 ; 0000 025A 
                 ; 0000 025B     delay_us(10);
                +
000635 e385     +LDI R24 , LOW ( 53 )
                +__DELAY_USB_LOOP :
000636 958a     +DEC R24
000637 f7f1     +BRNE __DELAY_USB_LOOP
                 	__DELAY_USB 53
                 ; 0000 025C 
                 ; 0000 025D }
000638 940e 1460 	CALL __LOADLOCR6
00063a 9661      	ADIW R28,17
00063b 9508      	RET
                 ;
                 ;
                 ;void pid_sampai(unsigned char sens,unsigned char sens2,unsigned char mode_speed,unsigned char mode_rem)
                 ; 0000 0261 {
                 ; 0000 0262 	if(mode_speed==1) while(sensor!=sens && sensor!=sens2) {pid2(150,23,15);}
                 ;	sens -> Y+3
                 ;	sens2 -> Y+2
                 ;	mode_speed -> Y+1
                 ;	mode_rem -> Y+0
                 ; 0000 0263     else if(mode_speed==2) while(sensor!=sens && sensor!=sens2) {pid2(200,32,25);}
                 ; 0000 0264 	else if(mode_speed==slow) while(sensor!=sens && sensor!=sens2) {pid2(120,15,10);}
                 ; 0000 0265     rem(mode_rem);
                 ; 0000 0266 }
                 ;
                 ;void pid_p3an(unsigned char arah,unsigned char counter,unsigned char mode_speed,unsigned char mode_rem)
                 ; 0000 0269 {
                 ; 0000 026A 	unsigned char count=0;
                 ; 0000 026B 	if(arah==kanan)
                 ;	arah -> Y+4
                 ;	counter -> Y+3
                 ;	mode_speed -> Y+2
                 ;	mode_rem -> Y+1
                 ;	count -> R17
                 ; 0000 026C 	while(count<=counter)
                 ; 0000 026D 	{
                 ; 0000 026E 		if(mode_speed==fast) while(sensor!=0b00001100 && sensor!=0b00001110) {pid2(200,35,28);}
                 ; 0000 026F 		count++;
                 ; 0000 0270         while(sensor==0b00001100 || sensor==0b00001110) delay_ms(1);
                 ; 0000 0271 }
                 ; 0000 0272 	else if(arah==kiri)
                 ; 0000 0273 	while(count<=counter)
                 ; 0000 0274 	{
                 ; 0000 0275 		if(mode_speed==fast) while(sensor!=0b01110000 && sensor!=0b00111000) {pid2(200,35,28);}
                 ; 0000 0276 		count++;
                 ; 0000 0277         while(sensor==0b01110000 || sensor==0b11110000) delay_ms(1);
                 ; 0000 0278 }
                 ; 0000 0279 	rem(mode_rem);
                 ; 0000 027A }
                 ;
                 ;void pid_p4an(unsigned char counter,unsigned char mode_speed,unsigned char mode_rem)
                 ; 0000 027D {
                 ; 0000 027E     unsigned char count=0;
                 ; 0000 027F 	while(count<=counter)
                 ;	counter -> Y+3
                 ;	mode_speed -> Y+2
                 ;	mode_rem -> Y+1
                 ;	count -> R17
                 ; 0000 0280 	{
                 ; 0000 0281 		if(mode_speed==fast) while(sensor!=0b00111100 && sensor!=0b01111110) {pid2(200,35,28);}
                 ; 0000 0282         else if(mode_speed==normal) while(sensor!=0b00111100 && sensor!=0b01111110) {pid2(150,23,15);}
                 ; 0000 0283 		count++;
                 ; 0000 0284 	}
                 ; 0000 0285 	rem(mode_rem);
                 ; 0000 0286 }
                 ;
                 ;void pidsayap(unsigned char arah,unsigned char counter,unsigned char mode_speed,unsigned char mode_rem)
                 ; 0000 0289 {
                 _pidsayap:
                 ; 0000 028A 	unsigned char count=0;
                 ; 0000 028B 	if(arah==kiri)
00063c 931a      	ST   -Y,R17
                 ;	arah -> Y+4
                 ;	counter -> Y+3
                 ;	mode_speed -> Y+2
                 ;	mode_rem -> Y+1
                 ;	count -> R17
00063d e010      	LDI  R17,0
00063e 81ec      	LDD  R30,Y+4
00063f 30e0      	CPI  R30,0
000640 f501      	BRNE _0x147
                 ; 0000 028C 	while(count<=counter)
                 _0x148:
000641 81eb      	LDD  R30,Y+3
000642 17e1      	CP   R30,R17
000643 f0e0      	BRLO _0x14A
                 ; 0000 028D 	{
                 ; 0000 028E 		if(mode_speed==fast) while(!syp_ki) {pid2(200,35,28);}
000644 81aa      	LDD  R26,Y+2
000645 30a2      	CPI  R26,LOW(0x2)
000646 f431      	BRNE _0x14B
                 _0x14C:
000647 9982      	SBIC 0x10,2
000648 c003      	RJMP _0x14E
000649 940e 1284 	CALL SUBOPT_0x2B
00064b cffb      	RJMP _0x14C
                 _0x14E:
                 ; 0000 028F         else if(mode_speed==normal) while(!syp_ki) {pid2(150,23,15);}
00064c c011      	RJMP _0x14F
                 _0x14B:
00064d 81aa      	LDD  R26,Y+2
00064e 30a1      	CPI  R26,LOW(0x1)
00064f f431      	BRNE _0x150
                 _0x151:
000650 9982      	SBIC 0x10,2
000651 c003      	RJMP _0x153
000652 940e 128c 	CALL SUBOPT_0x2C
000654 cffb      	RJMP _0x151
                 _0x153:
                 ; 0000 0290         else if(mode_speed==slow) while(!syp_ki) {pid2(120,15,10);}
000655 c008      	RJMP _0x154
                 _0x150:
000656 81ea      	LDD  R30,Y+2
000657 30e0      	CPI  R30,0
000658 f429      	BRNE _0x155
                 _0x156:
000659 9982      	SBIC 0x10,2
00065a c003      	RJMP _0x158
00065b 940e 1294 	CALL SUBOPT_0x2D
00065d cffb      	RJMP _0x156
                 _0x158:
                 ; 0000 0291 		count++;
                 _0x155:
                 _0x154:
                 _0x14F:
00065e 5f1f      	SUBI R17,-1
                 ; 0000 0292 	}
00065f cfe1      	RJMP _0x148
                 _0x14A:
                 ; 0000 0293 	else if(arah==kanan)
000660 c022      	RJMP _0x159
                 _0x147:
000661 81ac      	LDD  R26,Y+4
000662 30a1      	CPI  R26,LOW(0x1)
000663 f4f9      	BRNE _0x15A
                 ; 0000 0294 	while(count<=counter)
                 _0x15B:
000664 81eb      	LDD  R30,Y+3
000665 17e1      	CP   R30,R17
000666 f0e0      	BRLO _0x15D
                 ; 0000 0295 	{
                 ; 0000 0296 		if(mode_speed==fast) while(!syp_ka) {pid2(200,35,28);}
000667 81aa      	LDD  R26,Y+2
000668 30a2      	CPI  R26,LOW(0x2)
000669 f431      	BRNE _0x15E
                 _0x15F:
00066a 9983      	SBIC 0x10,3
00066b c003      	RJMP _0x161
00066c 940e 1284 	CALL SUBOPT_0x2B
00066e cffb      	RJMP _0x15F
                 _0x161:
                 ; 0000 0297         else if(mode_speed==normal) while(!syp_ka) {pid2(150,23,15);}
00066f c011      	RJMP _0x162
                 _0x15E:
000670 81aa      	LDD  R26,Y+2
000671 30a1      	CPI  R26,LOW(0x1)
000672 f431      	BRNE _0x163
                 _0x164:
000673 9983      	SBIC 0x10,3
000674 c003      	RJMP _0x166
000675 940e 128c 	CALL SUBOPT_0x2C
000677 cffb      	RJMP _0x164
                 _0x166:
                 ; 0000 0298         else if(mode_speed==slow) while(!syp_ki) {pid2(120,15,10);}
000678 c008      	RJMP _0x167
                 _0x163:
000679 81ea      	LDD  R30,Y+2
00067a 30e0      	CPI  R30,0
00067b f429      	BRNE _0x168
                 _0x169:
00067c 9982      	SBIC 0x10,2
00067d c003      	RJMP _0x16B
00067e 940e 1294 	CALL SUBOPT_0x2D
000680 cffb      	RJMP _0x169
                 _0x16B:
                 ; 0000 0299 		count++;
                 _0x168:
                 _0x167:
                 _0x162:
000681 5f1f      	SUBI R17,-1
                 ; 0000 029A 	}
000682 cfe1      	RJMP _0x15B
                 _0x15D:
                 ; 0000 029B 	rem(mode_rem);
                 _0x15A:
                 _0x159:
000683 81e9      	LDD  R30,Y+1
000684 93ea      	ST   -Y,R30
000685 dc36      	RCALL _rem
                 ; 0000 029C }
000686 8118      	LDD  R17,Y+0
000687 c3a8      	RJMP _0x2080005
                 ;
                 ;void pidsayapglp(unsigned char arah,unsigned char counter,unsigned char mode_speed,unsigned char mode_rem)
                 ; 0000 029F {
                 _pidsayapglp:
                 ; 0000 02A0 	unsigned char count=0;
                 ; 0000 02A1 	if(arah==kiri)
000688 931a      	ST   -Y,R17
                 ;	arah -> Y+4
                 ;	counter -> Y+3
                 ;	mode_speed -> Y+2
                 ;	mode_rem -> Y+1
                 ;	count -> R17
000689 e010      	LDI  R17,0
00068a 81ec      	LDD  R30,Y+4
00068b 30e0      	CPI  R30,0
00068c f501      	BRNE _0x16C
                 ; 0000 02A2 	while(count<=counter)
                 _0x16D:
00068d 81eb      	LDD  R30,Y+3
00068e 17e1      	CP   R30,R17
00068f f0e0      	BRLO _0x16F
                 ; 0000 02A3 	{
                 ; 0000 02A4 		if(mode_speed==fast) while(syp_ki) {pid2(200,35,28);}
000690 81aa      	LDD  R26,Y+2
000691 30a2      	CPI  R26,LOW(0x2)
000692 f431      	BRNE _0x170
                 _0x171:
000693 9b82      	SBIS 0x10,2
000694 c003      	RJMP _0x173
000695 940e 1284 	CALL SUBOPT_0x2B
000697 cffb      	RJMP _0x171
                 _0x173:
                 ; 0000 02A5         else if(mode_speed==normal) while(syp_ki) {pid2(150,23,15);}
000698 c011      	RJMP _0x174
                 _0x170:
000699 81aa      	LDD  R26,Y+2
00069a 30a1      	CPI  R26,LOW(0x1)
00069b f431      	BRNE _0x175
                 _0x176:
00069c 9b82      	SBIS 0x10,2
00069d c003      	RJMP _0x178
00069e 940e 128c 	CALL SUBOPT_0x2C
0006a0 cffb      	RJMP _0x176
                 _0x178:
                 ; 0000 02A6         else if(mode_speed==slow) while(syp_ki) {pid2(120,15,10);}
0006a1 c008      	RJMP _0x179
                 _0x175:
0006a2 81ea      	LDD  R30,Y+2
0006a3 30e0      	CPI  R30,0
0006a4 f429      	BRNE _0x17A
                 _0x17B:
0006a5 9b82      	SBIS 0x10,2
0006a6 c003      	RJMP _0x17D
0006a7 940e 1294 	CALL SUBOPT_0x2D
0006a9 cffb      	RJMP _0x17B
                 _0x17D:
                 ; 0000 02A7 		count++;
                 _0x17A:
                 _0x179:
                 _0x174:
0006aa 5f1f      	SUBI R17,-1
                 ; 0000 02A8 	}
0006ab cfe1      	RJMP _0x16D
                 _0x16F:
                 ; 0000 02A9 	else if(arah==kanan)
0006ac c022      	RJMP _0x17E
                 _0x16C:
0006ad 81ac      	LDD  R26,Y+4
0006ae 30a1      	CPI  R26,LOW(0x1)
0006af f4f9      	BRNE _0x17F
                 ; 0000 02AA 	while(count<=counter)
                 _0x180:
0006b0 81eb      	LDD  R30,Y+3
0006b1 17e1      	CP   R30,R17
0006b2 f0e0      	BRLO _0x182
                 ; 0000 02AB 	{
                 ; 0000 02AC 		if(mode_speed==fast) while(syp_ka) {pid2(200,35,28);}
0006b3 81aa      	LDD  R26,Y+2
0006b4 30a2      	CPI  R26,LOW(0x2)
0006b5 f431      	BRNE _0x183
                 _0x184:
0006b6 9b83      	SBIS 0x10,3
0006b7 c003      	RJMP _0x186
0006b8 940e 1284 	CALL SUBOPT_0x2B
0006ba cffb      	RJMP _0x184
                 _0x186:
                 ; 0000 02AD         else if(mode_speed==normal) while(syp_ka) {pid2(150,23,15);}
0006bb c011      	RJMP _0x187
                 _0x183:
0006bc 81aa      	LDD  R26,Y+2
0006bd 30a1      	CPI  R26,LOW(0x1)
0006be f431      	BRNE _0x188
                 _0x189:
0006bf 9b83      	SBIS 0x10,3
0006c0 c003      	RJMP _0x18B
0006c1 940e 128c 	CALL SUBOPT_0x2C
0006c3 cffb      	RJMP _0x189
                 _0x18B:
                 ; 0000 02AE         else if(mode_speed==slow) while(syp_ki) {pid2(120,15,10);}
0006c4 c008      	RJMP _0x18C
                 _0x188:
0006c5 81ea      	LDD  R30,Y+2
0006c6 30e0      	CPI  R30,0
0006c7 f429      	BRNE _0x18D
                 _0x18E:
0006c8 9b82      	SBIS 0x10,2
0006c9 c003      	RJMP _0x190
0006ca 940e 1294 	CALL SUBOPT_0x2D
0006cc cffb      	RJMP _0x18E
                 _0x190:
                 ; 0000 02AF 		count++;
                 _0x18D:
                 _0x18C:
                 _0x187:
0006cd 5f1f      	SUBI R17,-1
                 ; 0000 02B0 	}
0006ce cfe1      	RJMP _0x180
                 _0x182:
                 ; 0000 02B1 	rem(mode_rem);
                 _0x17F:
                 _0x17E:
0006cf 81e9      	LDD  R30,Y+1
0006d0 93ea      	ST   -Y,R30
0006d1 dbea      	RCALL _rem
                 ; 0000 02B2 }
0006d2 8118      	LDD  R17,Y+0
0006d3 c35c      	RJMP _0x2080005
                 ;
                 ;void pidbit(unsigned char sen1, unsigned char sen2, unsigned char mode_speed,unsigned char mode_rem)
                 ; 0000 02B5 {
                 _pidbit:
                 ; 0000 02B6     if(mode_speed==fast) while(s[sen1]==0 || s[sen2]==0) {pid2(200,35,28);}
                 ;	sen1 -> Y+3
                 ;	sen2 -> Y+2
                 ;	mode_speed -> Y+1
                 ;	mode_rem -> Y+0
0006d4 81a9      	LDD  R26,Y+1
0006d5 30a2      	CPI  R26,LOW(0x2)
0006d6 f451      	BRNE _0x191
                 _0x192:
0006d7 940e 129c 	CALL SUBOPT_0x2E
0006d9 f019      	BREQ _0x195
0006da 940e 12a3 	CALL SUBOPT_0x2F
0006dc f419      	BRNE _0x194
                 _0x195:
0006dd 940e 1284 	CALL SUBOPT_0x2B
0006df cff7      	RJMP _0x192
                 _0x194:
                 ; 0000 02B7     else if(mode_speed==normal) while(s[sen1]==0 || s[sen2]==0) {pid2(150,23,15);}
0006e0 c039      	RJMP _0x197
                 _0x191:
0006e1 81a9      	LDD  R26,Y+1
0006e2 30a1      	CPI  R26,LOW(0x1)
0006e3 f451      	BRNE _0x198
                 _0x199:
0006e4 940e 129c 	CALL SUBOPT_0x2E
0006e6 f019      	BREQ _0x19C
0006e7 940e 12a3 	CALL SUBOPT_0x2F
0006e9 f419      	BRNE _0x19B
                 _0x19C:
0006ea 940e 128c 	CALL SUBOPT_0x2C
0006ec cff7      	RJMP _0x199
                 _0x19B:
                 ; 0000 02B8     else if(mode_speed==veryfast) while(s[sen1]==0 ||!syp_ki) pid2(200,35,28); //pid2(255,35,20);
0006ed c02c      	RJMP _0x19E
                 _0x198:
0006ee 81a9      	LDD  R26,Y+1
0006ef 30a3      	CPI  R26,LOW(0x3)
0006f0 f449      	BRNE _0x19F
                 _0x1A0:
0006f1 940e 129c 	CALL SUBOPT_0x2E
0006f3 f011      	BREQ _0x1A3
0006f4 9982      	SBIC 0x10,2
0006f5 c003      	RJMP _0x1A2
                 _0x1A3:
0006f6 940e 1284 	CALL SUBOPT_0x2B
0006f8 cff8      	RJMP _0x1A0
                 _0x1A2:
                 ; 0000 02B9 else if(mode_speed==4) while(s[sen1]==0 ||!PIND.3) pid2(200,35,28);
0006f9 c020      	RJMP _0x1A5
                 _0x19F:
0006fa 81a9      	LDD  R26,Y+1
0006fb 30a4      	CPI  R26,LOW(0x4)
0006fc f449      	BRNE _0x1A6
                 _0x1A7:
0006fd 940e 129c 	CALL SUBOPT_0x2E
0006ff f011      	BREQ _0x1AA
000700 9983      	SBIC 0x10,3
000701 c003      	RJMP _0x1A9
                 _0x1AA:
000702 940e 1284 	CALL SUBOPT_0x2B
000704 cff8      	RJMP _0x1A7
                 _0x1A9:
                 ; 0000 02BA else if(mode_speed==10) while(s[sen1]==0 || s[sen2]==0) {pid_putus2();}
000705 c014      	RJMP _0x1AC
                 _0x1A6:
000706 81a9      	LDD  R26,Y+1
000707 30aa      	CPI  R26,LOW(0xA)
000708 f449      	BRNE _0x1AD
                 _0x1AE:
000709 940e 129c 	CALL SUBOPT_0x2E
00070b f019      	BREQ _0x1B1
00070c 940e 12a3 	CALL SUBOPT_0x2F
00070e f411      	BRNE _0x1B0
                 _0x1B1:
00070f de5b      	RCALL _pid_putus2
000710 cff8      	RJMP _0x1AE
                 _0x1B0:
                 ; 0000 02BB     else if(mode_speed==slow) while(!syp_ki) {pid2(120,15,10);}
000711 c008      	RJMP _0x1B3
                 _0x1AD:
000712 81e9      	LDD  R30,Y+1
000713 30e0      	CPI  R30,0
000714 f429      	BRNE _0x1B4
                 _0x1B5:
000715 9982      	SBIC 0x10,2
000716 c003      	RJMP _0x1B7
000717 940e 1294 	CALL SUBOPT_0x2D
000719 cffb      	RJMP _0x1B5
                 _0x1B7:
                 ; 0000 02BC     rem(mode_rem);
                 _0x1B4:
                 _0x1B3:
                 _0x1AC:
                 _0x1A5:
                 _0x19E:
                 _0x197:
00071a 81e8      	LD   R30,Y
00071b 93ea      	ST   -Y,R30
00071c db9f      	RCALL _rem
                 ; 0000 02BD }
                 _0x2080006:
00071d 9624      	ADIW R28,4
00071e 9508      	RET
                 ;
                 ;void zigzag(unsigned char arah,unsigned char mode_speed,unsigned char mode_rem)
                 ; 0000 02C0 {
                 _zigzag:
                 ; 0000 02C1     if(arah==kanan)
                 ;	arah -> Y+2
                 ;	mode_speed -> Y+1
                 ;	mode_rem -> Y+0
00071f 81aa      	LDD  R26,Y+2
000720 30a1      	CPI  R26,LOW(0x1)
000721 f4f1      	BRNE _0x1B8
                 ; 0000 02C2     {
                 ; 0000 02C3         if(mode_speed==normal) while(s[0]==0 || s[2]==0) {pid2(150,23,15);}
000722 81a9      	LDD  R26,Y+1
000723 30a1      	CPI  R26,LOW(0x1)
000724 f461      	BRNE _0x1B9
                 _0x1BA:
000725 91a0 0226 	LDS  R26,_s
000727 30a0      	CPI  R26,LOW(0x0)
000728 f021      	BREQ _0x1BD
                +
000729 91a0 0228+LDS R26 , _s + ( 2 )
                 	__GETB2MN _s,2
00072b 30a0      	CPI  R26,LOW(0x0)
00072c f419      	BRNE _0x1BC
                 _0x1BD:
00072d 940e 128c 	CALL SUBOPT_0x2C
00072f cff5      	RJMP _0x1BA
                 _0x1BC:
                 ; 0000 02C4         else if(mode_speed==fast) while(s[0]==0 || s[2]==0) {pid2(200,35,28);}
000730 c00e      	RJMP _0x1BF
                 _0x1B9:
000731 81a9      	LDD  R26,Y+1
000732 30a2      	CPI  R26,LOW(0x2)
000733 f459      	BRNE _0x1C0
                 _0x1C1:
000734 91a0 0226 	LDS  R26,_s
000736 30a0      	CPI  R26,LOW(0x0)
000737 f021      	BREQ _0x1C4
                +
000738 91a0 0228+LDS R26 , _s + ( 2 )
                 	__GETB2MN _s,2
00073a 30a0      	CPI  R26,LOW(0x0)
00073b f419      	BRNE _0x1C3
                 _0x1C4:
00073c 940e 1284 	CALL SUBOPT_0x2B
00073e cff5      	RJMP _0x1C1
                 _0x1C3:
                 ; 0000 02C5     }
                 _0x1C0:
                 _0x1BF:
                 ; 0000 02C6     else if(arah==kiri)
00073f c020      	RJMP _0x1C6
                 _0x1B8:
000740 81ea      	LDD  R30,Y+2
000741 30e0      	CPI  R30,0
000742 f4e9      	BRNE _0x1C7
                 ; 0000 02C7     {
                 ; 0000 02C8         if(mode_speed==normal) while(s[5]==0 || s[7]==0) {pid2(150,23,15);}
000743 81a9      	LDD  R26,Y+1
000744 30a1      	CPI  R26,LOW(0x1)
000745 f461      	BRNE _0x1C8
                 _0x1C9:
                +
000746 91a0 022b+LDS R26 , _s + ( 5 )
                 	__GETB2MN _s,5
000748 30a0      	CPI  R26,LOW(0x0)
000749 f021      	BREQ _0x1CC
                +
00074a 91a0 022d+LDS R26 , _s + ( 7 )
                 	__GETB2MN _s,7
00074c 30a0      	CPI  R26,LOW(0x0)
00074d f419      	BRNE _0x1CB
                 _0x1CC:
00074e 940e 128c 	CALL SUBOPT_0x2C
000750 cff5      	RJMP _0x1C9
                 _0x1CB:
                 ; 0000 02C9         else if(mode_speed==fast) while(s[5]==0 || s[7]==0) {pid2(200,35,28);}
000751 c00e      	RJMP _0x1CE
                 _0x1C8:
000752 81a9      	LDD  R26,Y+1
000753 30a2      	CPI  R26,LOW(0x2)
000754 f459      	BRNE _0x1CF
                 _0x1D0:
                +
000755 91a0 022b+LDS R26 , _s + ( 5 )
                 	__GETB2MN _s,5
000757 30a0      	CPI  R26,LOW(0x0)
000758 f021      	BREQ _0x1D3
                +
000759 91a0 022d+LDS R26 , _s + ( 7 )
                 	__GETB2MN _s,7
00075b 30a0      	CPI  R26,LOW(0x0)
00075c f419      	BRNE _0x1D2
                 _0x1D3:
00075d 940e 1284 	CALL SUBOPT_0x2B
00075f cff5      	RJMP _0x1D0
                 _0x1D2:
                 ; 0000 02CA     }
                 _0x1CF:
                 _0x1CE:
                 ; 0000 02CB     rem(mode_rem);
                 _0x1C7:
                 _0x1C6:
000760 81e8      	LD   R30,Y
000761 93ea      	ST   -Y,R30
000762 db59      	RCALL _rem
                 ; 0000 02CC }
000763 9623      	ADIW R28,3
000764 9508      	RET
                 ;
                 ;void program_lintasan2(unsigned char checkpoin)
                 ; 0000 02CF {
                 _program_lintasan2:
                 ; 0000 02D0     int i,j;
                 ; 0000 02D1     if(checkpoin==0) goto start;
000765 940e 145b 	CALL __SAVELOCR4
                 ;	checkpoin -> Y+4
                 ;	i -> R16,R17
                 ;	j -> R18,R19
000767 81ec      	LDD  R30,Y+4
000768 30e0      	CPI  R30,0
000769 f0a1      	BREQ _0x1D6
                 ; 0000 02D2     else if(checkpoin==1) goto cp1;
00076a 81ac      	LDD  R26,Y+4
00076b 30a1      	CPI  R26,LOW(0x1)
00076c f409      	BRNE _0x1D8
00076d c04e      	RJMP _0x1D9
                 ; 0000 02D3     else if(checkpoin==2) goto cp2;
                 _0x1D8:
00076e 81ac      	LDD  R26,Y+4
00076f 30a2      	CPI  R26,LOW(0x2)
000770 f409      	BRNE _0x1DB
000771 c0bf      	RJMP _0x1DC
                 ; 0000 02D4     else if(checkpoin==3) goto cp3;
                 _0x1DB:
000772 81ac      	LDD  R26,Y+4
000773 30a3      	CPI  R26,LOW(0x3)
000774 f409      	BRNE _0x1DE
000775 c129      	RJMP _0x1DF
                 ; 0000 02D5     else if(checkpoin==4) goto cp4;
                 _0x1DE:
000776 81ac      	LDD  R26,Y+4
000777 30a4      	CPI  R26,LOW(0x4)
000778 f409      	BRNE _0x1E1
000779 c1bf      	RJMP _0x1E2
                 ; 0000 02D6     else if(checkpoin==5) goto cp5;
                 _0x1E1:
00077a 81ac      	LDD  R26,Y+4
00077b 30a5      	CPI  R26,LOW(0x5)
00077c f409      	BRNE _0x1E4
00077d c23d      	RJMP _0x1E5
                 ; 0000 02D7 
                 ; 0000 02D8     start :
                 _0x1E4:
                 _0x1D6:
                 ; 0000 02D9     gt=0;
00077e 940e 122f 	CALL SUBOPT_0x1C
                 ; 0000 02DA     jalan(maju,200,maju,200,200);
000780 940e 12aa 	CALL SUBOPT_0x30
000782 940e 12aa 	CALL SUBOPT_0x30
000784 940e 12af 	CALL SUBOPT_0x31
                 ; 0000 02DB     pidbit(0,1,normal,1);
000786 940e 12b5 	CALL SUBOPT_0x32
000788 940e 12bb 	CALL SUBOPT_0x33
                 ; 0000 02DC     jalan(maju,200,mundur,100,200);
00078a e0e1      	LDI  R30,LOW(1)
00078b 940e 11e5 	CALL SUBOPT_0x10
00078d 940e 12c0 	CALL SUBOPT_0x34
                 ; 0000 02DD     for(i=0;i<300;i++) pid2(150,23,15);
                +
00078f e000     +LDI R16 , LOW ( 0 )
000790 e010     +LDI R17 , HIGH ( 0 )
                 	__GETWRN 16,17,0
                 _0x1E7:
                +
000791 320c     +CPI R16 , LOW ( 300 )
000792 e0e1     +LDI R30 , HIGH ( 300 )
000793 071e     +CPC R17 , R30
                 	__CPWRN 16,17,300
000794 f42c      	BRGE _0x1E8
000795 940e 128c 	CALL SUBOPT_0x2C
                +
000797 5f0f     +SUBI R16 , LOW ( - 1 )
000798 4f1f     +SBCI R17 , HIGH ( - 1 )
                 	__ADDWRN 16,17,1
000799 cff7      	RJMP _0x1E7
                 _0x1E8:
                 ; 0000 02E0 for(i=0;i<3;i++)
                +
00079a e000     +LDI R16 , LOW ( 0 )
00079b e010     +LDI R17 , HIGH ( 0 )
                 	__GETWRN 16,17,0
                 _0x1EA:
                +
00079c 3003     +CPI R16 , LOW ( 3 )
00079d e0e0     +LDI R30 , HIGH ( 3 )
00079e 071e     +CPC R17 , R30
                 	__CPWRN 16,17,3
00079f f47c      	BRGE _0x1EB
                 ; 0000 02E1    {
                 ; 0000 02E2 
                 ; 0000 02E3         zigzag(kanan,normal,1);
0007a0 940e 12c4 	CALL SUBOPT_0x35
0007a2 940e 12c8 	CALL SUBOPT_0x36
                 ; 0000 02E4         jalan(maju,250,mundur,100,200);
0007a4 940e 11e5 	CALL SUBOPT_0x10
0007a6 940e 12c0 	CALL SUBOPT_0x34
                 ; 0000 02E5         zigzag(kiri,normal,1);
0007a8 940e 12b5 	CALL SUBOPT_0x32
0007aa 940e 12d2 	CALL SUBOPT_0x37
                 ; 0000 02E6         jalan(mundur,100,maju,250,200);
                 ; 0000 02E7     }
                +
0007ac 5f0f     +SUBI R16 , LOW ( - 1 )
0007ad 4f1f     +SBCI R17 , HIGH ( - 1 )
                 	__ADDWRN 16,17,1
0007ae cfed      	RJMP _0x1EA
                 _0x1EB:
                 ; 0000 02E8     gt=0;
0007af 940e 122f 	CALL SUBOPT_0x1C
                 ; 0000 02E9     for(i=0;i<500;i++) pid2(150,23,15);
                +
0007b1 e000     +LDI R16 , LOW ( 0 )
0007b2 e010     +LDI R17 , HIGH ( 0 )
                 	__GETWRN 16,17,0
                 _0x1ED:
                +
0007b3 3f04     +CPI R16 , LOW ( 500 )
0007b4 e0e1     +LDI R30 , HIGH ( 500 )
0007b5 071e     +CPC R17 , R30
                 	__CPWRN 16,17,500
0007b6 f42c      	BRGE _0x1EE
0007b7 940e 128c 	CALL SUBOPT_0x2C
                +
0007b9 5f0f     +SUBI R16 , LOW ( - 1 )
0007ba 4f1f     +SBCI R17 , HIGH ( - 1 )
                 	__ADDWRN 16,17,1
0007bb cff7      	RJMP _0x1ED
                 _0x1EE:
                 ; 0000 02EA cp1 :
                 _0x1D9:
                 ; 0000 02EB     pidbit(6,7,normal,1);
0007bc 940e 12dd 	CALL SUBOPT_0x38
0007be 940e 12c4 	CALL SUBOPT_0x35
0007c0 940e 12e2 	CALL SUBOPT_0x39
                 ; 0000 02EC     jalan(mundur,100,maju,200,200);
0007c2 940e 12e7 	CALL SUBOPT_0x3A
0007c4 940e 12af 	CALL SUBOPT_0x31
                 ; 0000 02ED     for(i=0;i<2250;i++) pid2(200,35,28);
                +
0007c6 e000     +LDI R16 , LOW ( 0 )
0007c7 e010     +LDI R17 , HIGH ( 0 )
                 	__GETWRN 16,17,0
                 _0x1F0:
                +
0007c8 3c0a     +CPI R16 , LOW ( 2250 )
0007c9 e0e8     +LDI R30 , HIGH ( 2250 )
0007ca 071e     +CPC R17 , R30
                 	__CPWRN 16,17,2250
0007cb f42c      	BRGE _0x1F1
0007cc 940e 1284 	CALL SUBOPT_0x2B
                +
0007ce 5f0f     +SUBI R16 , LOW ( - 1 )
0007cf 4f1f     +SBCI R17 , HIGH ( - 1 )
                 	__ADDWRN 16,17,1
0007d0 cff7      	RJMP _0x1F0
                 _0x1F1:
                 ; 0000 02EE for(i=0;i<3000;i++) pid2(150,23,15);
                +
0007d1 e000     +LDI R16 , LOW ( 0 )
0007d2 e010     +LDI R17 , HIGH ( 0 )
                 	__GETWRN 16,17,0
                 _0x1F3:
                +
0007d3 3b08     +CPI R16 , LOW ( 3000 )
0007d4 e0eb     +LDI R30 , HIGH ( 3000 )
0007d5 071e     +CPC R17 , R30
                 	__CPWRN 16,17,3000
0007d6 f42c      	BRGE _0x1F4
0007d7 940e 128c 	CALL SUBOPT_0x2C
                +
0007d9 5f0f     +SUBI R16 , LOW ( - 1 )
0007da 4f1f     +SBCI R17 , HIGH ( - 1 )
                 	__ADDWRN 16,17,1
0007db cff7      	RJMP _0x1F3
                 _0x1F4:
                 ; 0000 02EF pidsayap(0,1,1,2);
0007dc 940e 12b5 	CALL SUBOPT_0x32
0007de e0e2      	LDI  R30,LOW(2)
0007df 940e 12ea 	CALL SUBOPT_0x3B
                 ; 0000 02F0     jalan(mundur,150,maju,200,200);
0007e1 e9e6      	LDI  R30,LOW(150)
0007e2 93ea      	ST   -Y,R30
0007e3 940e 12aa 	CALL SUBOPT_0x30
0007e5 940e 12af 	CALL SUBOPT_0x31
                 ; 0000 02F1 
                 ; 0000 02F2     for(i=0;i<1300;i++) pid2(150,23,15);
                +
0007e7 e000     +LDI R16 , LOW ( 0 )
0007e8 e010     +LDI R17 , HIGH ( 0 )
                 	__GETWRN 16,17,0
                 _0x1F6:
                +
0007e9 3104     +CPI R16 , LOW ( 1300 )
0007ea e0e5     +LDI R30 , HIGH ( 1300 )
0007eb 071e     +CPC R17 , R30
                 	__CPWRN 16,17,1300
0007ec f42c      	BRGE _0x1F7
0007ed 940e 128c 	CALL SUBOPT_0x2C
                +
0007ef 5f0f     +SUBI R16 , LOW ( - 1 )
0007f0 4f1f     +SBCI R17 , HIGH ( - 1 )
                 	__ADDWRN 16,17,1
0007f1 cff7      	RJMP _0x1F6
                 _0x1F7:
                 ; 0000 02F3 pidsayap(1,1,1,1);
0007f2 940e 12c4 	CALL SUBOPT_0x35
0007f4 940e 12c4 	CALL SUBOPT_0x35
0007f6 940e 12f0 	CALL SUBOPT_0x3C
                 ; 0000 02F4     jalan(maju,200,mundur,100,150);
0007f8 940e 12f3 	CALL SUBOPT_0x3D
                 ; 0000 02F5 
                 ; 0000 02F6 
                 ; 0000 02F7     for(i=0;i<1500;i++) pid2(150,23,15);
                +
0007fa e000     +LDI R16 , LOW ( 0 )
0007fb e010     +LDI R17 , HIGH ( 0 )
                 	__GETWRN 16,17,0
                 _0x1F9:
                +
0007fc 3d0c     +CPI R16 , LOW ( 1500 )
0007fd e0e5     +LDI R30 , HIGH ( 1500 )
0007fe 071e     +CPC R17 , R30
                 	__CPWRN 16,17,1500
0007ff f42c      	BRGE _0x1FA
000800 940e 128c 	CALL SUBOPT_0x2C
                +
000802 5f0f     +SUBI R16 , LOW ( - 1 )
000803 4f1f     +SBCI R17 , HIGH ( - 1 )
                 	__ADDWRN 16,17,1
000804 cff7      	RJMP _0x1F9
                 _0x1FA:
                 ; 0000 02F8 pidbit(1,6,1,1);
000805 940e 12fa 	CALL SUBOPT_0x3E
000807 940e 12c4 	CALL SUBOPT_0x35
000809 940e 12ff 	CALL SUBOPT_0x3F
                 ; 0000 02F9     jalan(maju,200,mundur,100,150);
00080b 940e 12f3 	CALL SUBOPT_0x3D
                 ; 0000 02FA     last=0;
00080d 24dd      	CLR  R13
                 ; 0000 02FB 
                 ; 0000 02FC     for(i=0;i<800;i++) pid2(150,23,15); buz_on;
                +
00080e e000     +LDI R16 , LOW ( 0 )
00080f e010     +LDI R17 , HIGH ( 0 )
                 	__GETWRN 16,17,0
                 _0x1FC:
                +
000810 3200     +CPI R16 , LOW ( 800 )
000811 e0e3     +LDI R30 , HIGH ( 800 )
000812 071e     +CPC R17 , R30
                 	__CPWRN 16,17,800
000813 f42c      	BRGE _0x1FD
000814 940e 128c 	CALL SUBOPT_0x2C
                +
000816 5f0f     +SUBI R16 , LOW ( - 1 )
000817 4f1f     +SBCI R17 , HIGH ( - 1 )
                 	__ADDWRN 16,17,1
000818 cff7      	RJMP _0x1FC
                 _0x1FD:
000819 98af      	CBI  0x15,7
                 ; 0000 02FD     for(i=0;i<1300;i++) pid2(200,35,28); buz_off;
                +
00081a e000     +LDI R16 , LOW ( 0 )
00081b e010     +LDI R17 , HIGH ( 0 )
                 	__GETWRN 16,17,0
                 _0x201:
                +
00081c 3104     +CPI R16 , LOW ( 1300 )
00081d e0e5     +LDI R30 , HIGH ( 1300 )
00081e 071e     +CPC R17 , R30
                 	__CPWRN 16,17,1300
00081f f42c      	BRGE _0x202
000820 940e 1284 	CALL SUBOPT_0x2B
                +
000822 5f0f     +SUBI R16 , LOW ( - 1 )
000823 4f1f     +SBCI R17 , HIGH ( - 1 )
                 	__ADDWRN 16,17,1
000824 cff7      	RJMP _0x201
                 _0x202:
000825 9aaf      	SBI  0x15,7
                 ; 0000 02FE     for(i=0;i<1000;i++) pid2(150,23,15);
                +
000826 e000     +LDI R16 , LOW ( 0 )
000827 e010     +LDI R17 , HIGH ( 0 )
                 	__GETWRN 16,17,0
                 _0x206:
                +
000828 3e08     +CPI R16 , LOW ( 1000 )
000829 e0e3     +LDI R30 , HIGH ( 1000 )
00082a 071e     +CPC R17 , R30
                 	__CPWRN 16,17,1000
00082b f42c      	BRGE _0x207
00082c 940e 128c 	CALL SUBOPT_0x2C
                +
00082e 5f0f     +SUBI R16 , LOW ( - 1 )
00082f 4f1f     +SBCI R17 , HIGH ( - 1 )
                 	__ADDWRN 16,17,1
000830 cff7      	RJMP _0x206
                 _0x207:
                 ; 0000 0300 cp2 :
                 _0x1DC:
                 ; 0000 0301     gt=0;
000831 940e 122f 	CALL SUBOPT_0x1C
                 ; 0000 0302     if(checkpoin==2)
000833 81ac      	LDD  R26,Y+4
000834 30a2      	CPI  R26,LOW(0x2)
000835 f461      	BRNE _0x208
                 ; 0000 0303     {
                 ; 0000 0304     pidbit(1,6,normal,2);
000836 940e 12fa 	CALL SUBOPT_0x3E
000838 940e 1302 	CALL SUBOPT_0x40
00083a de99      	RCALL _pidbit
                 ; 0000 0305     jalan(maju,0,maju,200,200);
00083b 940e 11d3 	CALL SUBOPT_0xB
00083d 940e 12aa 	CALL SUBOPT_0x30
00083f 940e 12af 	CALL SUBOPT_0x31
                 ; 0000 0306     }
                 ; 0000 0307     else
000841 c00b      	RJMP _0x209
                 _0x208:
                 ; 0000 0308     {
                 ; 0000 0309     pidbit(1,6,normal,1);
000842 940e 12fa 	CALL SUBOPT_0x3E
000844 940e 12c4 	CALL SUBOPT_0x35
000846 940e 12e2 	CALL SUBOPT_0x39
                 ; 0000 030A     jalan(mundur,50,maju,200,150);
000848 940e 1307 	CALL SUBOPT_0x41
00084a 940e 130a 	CALL SUBOPT_0x42
                 ; 0000 030B     last = 0;
00084c 24dd      	CLR  R13
                 ; 0000 030C     }
                 _0x209:
                 ; 0000 030D     for(i=0;i<850;i++) pid2(150,23,15);
                +
00084d e000     +LDI R16 , LOW ( 0 )
00084e e010     +LDI R17 , HIGH ( 0 )
                 	__GETWRN 16,17,0
                 _0x20B:
                +
00084f 3502     +CPI R16 , LOW ( 850 )
000850 e0e3     +LDI R30 , HIGH ( 850 )
000851 071e     +CPC R17 , R30
                 	__CPWRN 16,17,850
000852 f42c      	BRGE _0x20C
000853 940e 128c 	CALL SUBOPT_0x2C
                +
000855 5f0f     +SUBI R16 , LOW ( - 1 )
000856 4f1f     +SBCI R17 , HIGH ( - 1 )
                 	__ADDWRN 16,17,1
000857 cff7      	RJMP _0x20B
                 _0x20C:
                 ; 0000 030E pidsayap(0,1,1,1);
000858 940e 12b5 	CALL SUBOPT_0x32
00085a e0e1      	LDI  R30,LOW(1)
00085b 940e 12ea 	CALL SUBOPT_0x3B
                 ; 0000 030F     jalan(mundur,100,maju,200,150);
00085d 940e 12e7 	CALL SUBOPT_0x3A
00085f 940e 130a 	CALL SUBOPT_0x42
                 ; 0000 0310     for(i=0;i<4000;i++) pid2(200,35,28);
                +
000861 e000     +LDI R16 , LOW ( 0 )
000862 e010     +LDI R17 , HIGH ( 0 )
                 	__GETWRN 16,17,0
                 _0x20E:
                +
000863 3a00     +CPI R16 , LOW ( 4000 )
000864 e0ef     +LDI R30 , HIGH ( 4000 )
000865 071e     +CPC R17 , R30
                 	__CPWRN 16,17,4000
000866 f42c      	BRGE _0x20F
000867 940e 1284 	CALL SUBOPT_0x2B
                +
000869 5f0f     +SUBI R16 , LOW ( - 1 )
00086a 4f1f     +SBCI R17 , HIGH ( - 1 )
                 	__ADDWRN 16,17,1
00086b cff7      	RJMP _0x20E
                 _0x20F:
                 ; 0000 0311 PORTC.7=0;
00086c 98af      	CBI  0x15,7
                 ; 0000 0312     for(i=0;i<4000;i++) pid2(255,35,20);
                +
00086d e000     +LDI R16 , LOW ( 0 )
00086e e010     +LDI R17 , HIGH ( 0 )
                 	__GETWRN 16,17,0
                 _0x213:
                +
00086f 3a00     +CPI R16 , LOW ( 4000 )
000870 e0ef     +LDI R30 , HIGH ( 4000 )
000871 071e     +CPC R17 , R30
                 	__CPWRN 16,17,4000
000872 f42c      	BRGE _0x214
000873 940e 130d 	CALL SUBOPT_0x43
                +
000875 5f0f     +SUBI R16 , LOW ( - 1 )
000876 4f1f     +SBCI R17 , HIGH ( - 1 )
                 	__ADDWRN 16,17,1
000877 cff7      	RJMP _0x213
                 _0x214:
                 ; 0000 0313 PORTC.7=1;
000878 9aaf      	SBI  0x15,7
                 ; 0000 0314     for(i=0;i<2500;i++) pid2(200,35,28);
                +
000879 e000     +LDI R16 , LOW ( 0 )
00087a e010     +LDI R17 , HIGH ( 0 )
                 	__GETWRN 16,17,0
                 _0x218:
                +
00087b 3c04     +CPI R16 , LOW ( 2500 )
00087c e0e9     +LDI R30 , HIGH ( 2500 )
00087d 071e     +CPC R17 , R30
                 	__CPWRN 16,17,2500
00087e f42c      	BRGE _0x219
00087f 940e 1284 	CALL SUBOPT_0x2B
                +
000881 5f0f     +SUBI R16 , LOW ( - 1 )
000882 4f1f     +SBCI R17 , HIGH ( - 1 )
                 	__ADDWRN 16,17,1
000883 cff7      	RJMP _0x218
                 _0x219:
                 ; 0000 0316 pidbit(7,0,4,1);
000884 940e 1315 	CALL SUBOPT_0x44
000886 940e 131a 	CALL SUBOPT_0x45
                 ; 0000 0317 
                 ; 0000 0318     gt=1; gt=1;
000888 940e 123a 	CALL SUBOPT_0x1E
                 ; 0000 0319 
                 ; 0000 031A     gt=1; gt=1;
00088a 940e 123a 	CALL SUBOPT_0x1E
00088c 940e 123a 	CALL SUBOPT_0x1E
                 ; 0000 031B 
                 ; 0000 031C     jalan(maju,100,maju,200,200);
00088e e0e0      	LDI  R30,LOW(0)
00088f 93ea      	ST   -Y,R30
000890 940e 12e7 	CALL SUBOPT_0x3A
000892 940e 12af 	CALL SUBOPT_0x31
                 ; 0000 031D     last=1;
000894 940e 131d 	CALL SUBOPT_0x46
                 ; 0000 031E     for(i=0;i<1500;i++) pid2(150,25,15);
                 _0x21B:
                +
000896 3d0c     +CPI R16 , LOW ( 1500 )
000897 e0e5     +LDI R30 , HIGH ( 1500 )
000898 071e     +CPC R17 , R30
                 	__CPWRN 16,17,1500
000899 f42c      	BRGE _0x21C
00089a 940e 1322 	CALL SUBOPT_0x47
                +
00089c 5f0f     +SUBI R16 , LOW ( - 1 )
00089d 4f1f     +SBCI R17 , HIGH ( - 1 )
                 	__ADDWRN 16,17,1
00089e cff7      	RJMP _0x21B
                 _0x21C:
                 ; 0000 0320 cp3 :
                 _0x1DF:
                 ; 0000 0321     gt=1; gt=1;
00089f 940e 123a 	CALL SUBOPT_0x1E
0008a1 940e 123a 	CALL SUBOPT_0x1E
                 ; 0000 0322     last=1;
0008a3 940e 131d 	CALL SUBOPT_0x46
                 ; 0000 0323     for(i=0;i<200;i++) pid2(150,25,15);
                 _0x21E:
                +
0008a5 3c08     +CPI R16 , LOW ( 200 )
0008a6 e0e0     +LDI R30 , HIGH ( 200 )
0008a7 071e     +CPC R17 , R30
                 	__CPWRN 16,17,200
0008a8 f42c      	BRGE _0x21F
0008a9 940e 1322 	CALL SUBOPT_0x47
                +
0008ab 5f0f     +SUBI R16 , LOW ( - 1 )
0008ac 4f1f     +SBCI R17 , HIGH ( - 1 )
                 	__ADDWRN 16,17,1
0008ad cff7      	RJMP _0x21E
                 _0x21F:
                 ; 0000 0324 last=1;
0008ae e0e1      	LDI  R30,LOW(1)
0008af 2ede      	MOV  R13,R30
                 ; 0000 0325 
                 ; 0000 0326     pidbit(0,1,1,1);
0008b0 940e 12b5 	CALL SUBOPT_0x32
0008b2 940e 12bb 	CALL SUBOPT_0x33
                 ; 0000 0327     jalan(maju,200,mundur,100,200);
0008b4 e0e1      	LDI  R30,LOW(1)
0008b5 940e 11e5 	CALL SUBOPT_0x10
0008b7 940e 12c0 	CALL SUBOPT_0x34
                 ; 0000 0328     for(i=0;i<100;i++) pid2(150,25,15);
                +
0008b9 e000     +LDI R16 , LOW ( 0 )
0008ba e010     +LDI R17 , HIGH ( 0 )
                 	__GETWRN 16,17,0
                 _0x221:
                +
0008bb 3604     +CPI R16 , LOW ( 100 )
0008bc e0e0     +LDI R30 , HIGH ( 100 )
0008bd 071e     +CPC R17 , R30
                 	__CPWRN 16,17,100
0008be f42c      	BRGE _0x222
0008bf 940e 1322 	CALL SUBOPT_0x47
                +
0008c1 5f0f     +SUBI R16 , LOW ( - 1 )
0008c2 4f1f     +SBCI R17 , HIGH ( - 1 )
                 	__ADDWRN 16,17,1
0008c3 cff7      	RJMP _0x221
                 _0x222:
                 ; 0000 0329 pidbit(0,1,1,1);
0008c4 940e 12b5 	CALL SUBOPT_0x32
0008c6 940e 12bb 	CALL SUBOPT_0x33
                 ; 0000 032A     jalan(maju,200,mundur,0,200);
0008c8 940e 132a 	CALL SUBOPT_0x48
0008ca 940e 12af 	CALL SUBOPT_0x31
                 ; 0000 032B     last=1;
0008cc 940e 131d 	CALL SUBOPT_0x46
                 ; 0000 032C     for(i=0;i<200;i++) pid2(150,25,15);
                 _0x224:
                +
0008ce 3c08     +CPI R16 , LOW ( 200 )
0008cf e0e0     +LDI R30 , HIGH ( 200 )
0008d0 071e     +CPC R17 , R30
                 	__CPWRN 16,17,200
0008d1 f42c      	BRGE _0x225
0008d2 940e 1322 	CALL SUBOPT_0x47
                +
0008d4 5f0f     +SUBI R16 , LOW ( - 1 )
0008d5 4f1f     +SBCI R17 , HIGH ( - 1 )
                 	__ADDWRN 16,17,1
0008d6 cff7      	RJMP _0x224
                 _0x225:
                 ; 0000 0335 pidbit(0,7,1,1);
0008d7 940e 132f 	CALL SUBOPT_0x49
0008d9 940e 12c4 	CALL SUBOPT_0x35
0008db ddf8      	RCALL _pidbit
                 ; 0000 0336     gt=0; gt=0;
0008dc 940e 122f 	CALL SUBOPT_0x1C
0008de 940e 122f 	CALL SUBOPT_0x1C
                 ; 0000 0337 
                 ; 0000 0338     jalan(maju,100,maju,100,180);
0008e0 940e 1334 	CALL SUBOPT_0x4A
0008e2 940e 1334 	CALL SUBOPT_0x4A
0008e4 ebe4      	LDI  R30,LOW(180)
0008e5 e0f0      	LDI  R31,HIGH(180)
0008e6 940e 12c0 	CALL SUBOPT_0x34
                 ; 0000 0339 
                 ; 0000 033A     pidsayap(kanan,1,slow,1); buz_on;
0008e8 940e 12c4 	CALL SUBOPT_0x35
0008ea 940e 1339 	CALL SUBOPT_0x4B
0008ec 940e 133e 	CALL SUBOPT_0x4C
                 ; 0000 033B     jalan(maju,150,maju,75,100);buz_off;
0008ee d9bf      	RCALL _jalan
0008ef 9aaf      	SBI  0x15,7
                 ; 0000 033C     for(i=0;i<100;i++)pid2(120,15,10);
                +
0008f0 e000     +LDI R16 , LOW ( 0 )
0008f1 e010     +LDI R17 , HIGH ( 0 )
                 	__GETWRN 16,17,0
                 _0x22B:
                +
0008f2 3604     +CPI R16 , LOW ( 100 )
0008f3 e0e0     +LDI R30 , HIGH ( 100 )
0008f4 071e     +CPC R17 , R30
                 	__CPWRN 16,17,100
0008f5 f42c      	BRGE _0x22C
0008f6 940e 1294 	CALL SUBOPT_0x2D
                +
0008f8 5f0f     +SUBI R16 , LOW ( - 1 )
0008f9 4f1f     +SBCI R17 , HIGH ( - 1 )
                 	__ADDWRN 16,17,1
0008fa cff7      	RJMP _0x22B
                 _0x22C:
                 ; 0000 033D pidsayap(0,1,0,1);
0008fb 940e 134a 	CALL SUBOPT_0x4D
0008fd e0e1      	LDI  R30,LOW(1)
0008fe 93ea      	ST   -Y,R30
0008ff 940e 134d 	CALL SUBOPT_0x4E
                 ; 0000 033E     jalan(maju,150,maju,100,100);
000901 940e 119a 	CALL SUBOPT_0x1
000903 d9aa      	RCALL _jalan
                 ; 0000 033F 
                 ; 0000 0340     for(i=0;i<=3000;i++) pid2(150,25,15);
                +
000904 e000     +LDI R16 , LOW ( 0 )
000905 e010     +LDI R17 , HIGH ( 0 )
                 	__GETWRN 16,17,0
                 _0x22E:
                +
000906 3b09     +CPI R16 , LOW ( 3001 )
000907 e0eb     +LDI R30 , HIGH ( 3001 )
000908 071e     +CPC R17 , R30
                 	__CPWRN 16,17,3001
000909 f42c      	BRGE _0x22F
00090a 940e 1322 	CALL SUBOPT_0x47
                +
00090c 5f0f     +SUBI R16 , LOW ( - 1 )
00090d 4f1f     +SBCI R17 , HIGH ( - 1 )
                 	__ADDWRN 16,17,1
00090e cff7      	RJMP _0x22E
                 _0x22F:
                 ; 0000 0341 PORTC.7=0;
00090f 98af      	CBI  0x15,7
                 ; 0000 0342     pidbit(0,7,10,1);
000910 940e 132f 	CALL SUBOPT_0x49
000912 940e 1354 	CALL SUBOPT_0x4F
                 ; 0000 0343     jalan(maju,50,maju,200,100);
000914 940e 1307 	CALL SUBOPT_0x41
000916 940e 119a 	CALL SUBOPT_0x1
000918 d995      	RCALL _jalan
                 ; 0000 0344     buz_off;
000919 9aaf      	SBI  0x15,7
                 ; 0000 0345     gt=1; gt=1;
00091a 940e 123a 	CALL SUBOPT_0x1E
00091c 940e 123a 	CALL SUBOPT_0x1E
                 ; 0000 0346     pidbit(2,5,0,1);
00091e 940e 135d 	CALL SUBOPT_0x50
000920 940e 1339 	CALL SUBOPT_0x4B
000922 940e 1362 	CALL SUBOPT_0x51
                 ; 0000 0347 
                 ; 0000 0348     for(i=0;i<=200;i++) pid2(120,15,10);
                 _0x235:
                +
000924 3c09     +CPI R16 , LOW ( 201 )
000925 e0e0     +LDI R30 , HIGH ( 201 )
000926 071e     +CPC R17 , R30
                 	__CPWRN 16,17,201
000927 f42c      	BRGE _0x236
000928 940e 1294 	CALL SUBOPT_0x2D
                +
00092a 5f0f     +SUBI R16 , LOW ( - 1 )
00092b 4f1f     +SBCI R17 , HIGH ( - 1 )
                 	__ADDWRN 16,17,1
00092c cff7      	RJMP _0x235
                 _0x236:
                 ; 0000 0349 pidsayapglp(1,0,1,1);
00092d e0e1      	LDI  R30,LOW(1)
00092e 93ea      	ST   -Y,R30
00092f 940e 12b5 	CALL SUBOPT_0x32
000931 dd56      	RCALL _pidsayapglp
                 ; 0000 034A     jalan(maju,200,maju,200,100);
000932 940e 12aa 	CALL SUBOPT_0x30
000934 940e 12aa 	CALL SUBOPT_0x30
000936 940e 119a 	CALL SUBOPT_0x1
000938 d975      	RCALL _jalan
                 ; 0000 034B 
                 ; 0000 034C     cp4 :
                 _0x1E2:
                 ; 0000 034D     if(checkpoin==4){
000939 81ac      	LDD  R26,Y+4
00093a 30a4      	CPI  R26,LOW(0x4)
00093b f449      	BRNE _0x237
                 ; 0000 034E         jalan(maju,70,maju,255,255);
00093c e0e0      	LDI  R30,LOW(0)
00093d 93ea      	ST   -Y,R30
00093e e4e6      	LDI  R30,LOW(70)
00093f 93ea      	ST   -Y,R30
000940 940e 1367 	CALL SUBOPT_0x52
000942 efef      	LDI  R30,LOW(255)
000943 e0f0      	LDI  R31,HIGH(255)
000944 c006      	RJMP _0x32F
                 ; 0000 034F         //jalan(maju,200,maju,200,100);
                 ; 0000 0350         //jalan(maju,50,maju,200,300);
                 ; 0000 0351     }
                 ; 0000 0352     else jalan(mundur,50,maju,200,450);
                 _0x237:
000945 e0e1      	LDI  R30,LOW(1)
000946 93ea      	ST   -Y,R30
000947 940e 1307 	CALL SUBOPT_0x41
000949 ece2      	LDI  R30,LOW(450)
00094a e0f1      	LDI  R31,HIGH(450)
                 _0x32F:
00094b 93fa      	ST   -Y,R31
00094c 93ea      	ST   -Y,R30
00094d d960      	RCALL _jalan
                 ; 0000 0353     last=0;
00094e 24dd      	CLR  R13
                 ; 0000 0354 
                 ; 0000 0355     gt=0; gt=0;
00094f 940e 122f 	CALL SUBOPT_0x1C
000951 940e 122f 	CALL SUBOPT_0x1C
                 ; 0000 0356     for(i=0;i<300;i++) pid2(200,35,28);
                +
000953 e000     +LDI R16 , LOW ( 0 )
000954 e010     +LDI R17 , HIGH ( 0 )
                 	__GETWRN 16,17,0
                 _0x23A:
                +
000955 320c     +CPI R16 , LOW ( 300 )
000956 e0e1     +LDI R30 , HIGH ( 300 )
000957 071e     +CPC R17 , R30
                 	__CPWRN 16,17,300
000958 f42c      	BRGE _0x23B
000959 940e 1284 	CALL SUBOPT_0x2B
                +
00095b 5f0f     +SUBI R16 , LOW ( - 1 )
00095c 4f1f     +SBCI R17 , HIGH ( - 1 )
                 	__ADDWRN 16,17,1
00095d cff7      	RJMP _0x23A
                 _0x23B:
                 ; 0000 0357 pidbit(0,7,2,1);
00095e 940e 132f 	CALL SUBOPT_0x49
000960 940e 1221 	CALL SUBOPT_0x19
000962 940e 131a 	CALL SUBOPT_0x45
                 ; 0000 0358 
                 ; 0000 0359     gt=1; gt=1;
000964 940e 123a 	CALL SUBOPT_0x1E
                 ; 0000 035A     //jalan(maju,200,maju,100,370);
                 ; 0000 035B     buz_on;
000966 98af      	CBI  0x15,7
                 ; 0000 035C     for(i=0;i<2000;i++) pid2(200,35,28);
                +
000967 e000     +LDI R16 , LOW ( 0 )
000968 e010     +LDI R17 , HIGH ( 0 )
                 	__GETWRN 16,17,0
                 _0x23F:
                +
000969 3d00     +CPI R16 , LOW ( 2000 )
00096a e0e7     +LDI R30 , HIGH ( 2000 )
00096b 071e     +CPC R17 , R30
                 	__CPWRN 16,17,2000
00096c f42c      	BRGE _0x240
00096d 940e 1284 	CALL SUBOPT_0x2B
                +
00096f 5f0f     +SUBI R16 , LOW ( - 1 )
000970 4f1f     +SBCI R17 , HIGH ( - 1 )
                 	__ADDWRN 16,17,1
000971 cff7      	RJMP _0x23F
                 _0x240:
                 ; 0000 035D PORTC.7=1;
000972 9aaf      	SBI  0x15,7
                 ; 0000 035E     for(i=0;i<800;i++) pid2(200,35,28);
                +
000973 e000     +LDI R16 , LOW ( 0 )
000974 e010     +LDI R17 , HIGH ( 0 )
                 	__GETWRN 16,17,0
                 _0x244:
                +
000975 3200     +CPI R16 , LOW ( 800 )
000976 e0e3     +LDI R30 , HIGH ( 800 )
000977 071e     +CPC R17 , R30
                 	__CPWRN 16,17,800
000978 f42c      	BRGE _0x245
000979 940e 1284 	CALL SUBOPT_0x2B
                +
00097b 5f0f     +SUBI R16 , LOW ( - 1 )
00097c 4f1f     +SBCI R17 , HIGH ( - 1 )
                 	__ADDWRN 16,17,1
00097d cff7      	RJMP _0x244
                 _0x245:
                 ; 0000 035F pidbit(0,3,2,2);
00097e e0e0      	LDI  R30,LOW(0)
00097f 93ea      	ST   -Y,R30
000980 e0e3      	LDI  R30,LOW(3)
000981 93ea      	ST   -Y,R30
000982 940e 136c 	CALL SUBOPT_0x53
000984 940e 12ff 	CALL SUBOPT_0x3F
                 ; 0000 0360     jalan(maju,200,mundur,50,250);
000986 940e 1370 	CALL SUBOPT_0x54
000988 940e 1375 	CALL SUBOPT_0x55
                 ; 0000 0361     last=1;
00098a e0e1      	LDI  R30,LOW(1)
00098b 2ede      	MOV  R13,R30
                 ; 0000 0362     buz_on;
00098c 98af      	CBI  0x15,7
                 ; 0000 0363     for(i=0;i<100;i++) pid2(150,23,15);
                +
00098d e000     +LDI R16 , LOW ( 0 )
00098e e010     +LDI R17 , HIGH ( 0 )
                 	__GETWRN 16,17,0
                 _0x249:
                +
00098f 3604     +CPI R16 , LOW ( 100 )
000990 e0e0     +LDI R30 , HIGH ( 100 )
000991 071e     +CPC R17 , R30
                 	__CPWRN 16,17,100
000992 f42c      	BRGE _0x24A
000993 940e 128c 	CALL SUBOPT_0x2C
                +
000995 5f0f     +SUBI R16 , LOW ( - 1 )
000996 4f1f     +SBCI R17 , HIGH ( - 1 )
                 	__ADDWRN 16,17,1
000997 cff7      	RJMP _0x249
                 _0x24A:
                 ; 0000 0364 stop(10);
000998 e0ea      	LDI  R30,LOW(10)
000999 e0f0      	LDI  R31,HIGH(10)
00099a 940e 11db 	CALL SUBOPT_0xD
                 ; 0000 0365     buz_off;
00099c 9aaf      	SBI  0x15,7
                 ; 0000 0366     jalan(maju,200,maju,50,150);
00099d 940e 12aa 	CALL SUBOPT_0x30
00099f e0e0      	LDI  R30,LOW(0)
0009a0 93ea      	ST   -Y,R30
0009a1 e3e2      	LDI  R30,LOW(50)
0009a2 93ea      	ST   -Y,R30
0009a3 940e 130a 	CALL SUBOPT_0x42
                 ; 0000 0367     jalan(maju,200,maju,200,50);
0009a5 940e 12aa 	CALL SUBOPT_0x30
0009a7 940e 12aa 	CALL SUBOPT_0x30
0009a9 e3e2      	LDI  R30,LOW(50)
0009aa e0f0      	LDI  R31,HIGH(50)
0009ab 940e 12c0 	CALL SUBOPT_0x34
                 ; 0000 0368     stop(100);
0009ad 940e 119a 	CALL SUBOPT_0x1
0009af d8f6      	RCALL _stop
                 ; 0000 0369 
                 ; 0000 036A 
                 ; 0000 036B     for(i=0;i<70;i++) pid2(150,25,15);
                +
0009b0 e000     +LDI R16 , LOW ( 0 )
0009b1 e010     +LDI R17 , HIGH ( 0 )
                 	__GETWRN 16,17,0
                 _0x24E:
                +
0009b2 3406     +CPI R16 , LOW ( 70 )
0009b3 e0e0     +LDI R30 , HIGH ( 70 )
0009b4 071e     +CPC R17 , R30
                 	__CPWRN 16,17,70
0009b5 f42c      	BRGE _0x24F
0009b6 940e 1322 	CALL SUBOPT_0x47
                +
0009b8 5f0f     +SUBI R16 , LOW ( - 1 )
0009b9 4f1f     +SBCI R17 , HIGH ( - 1 )
                 	__ADDWRN 16,17,1
0009ba cff7      	RJMP _0x24E
                 _0x24F:
                 ; 0000 036C cp5 :
                 _0x1E5:
                 ; 0000 036D     gt=1; gt=1;
0009bb 940e 123a 	CALL SUBOPT_0x1E
0009bd 940e 123a 	CALL SUBOPT_0x1E
                 ; 0000 036E     pidbit(2,7,normal,2);
0009bf e0e2      	LDI  R30,LOW(2)
0009c0 93ea      	ST   -Y,R30
0009c1 e0e7      	LDI  R30,LOW(7)
0009c2 93ea      	ST   -Y,R30
0009c3 940e 1302 	CALL SUBOPT_0x40
0009c5 940e 12e2 	CALL SUBOPT_0x39
                 ; 0000 036F     jalan(mundur,50,maju,200,150); //sarang lebah
0009c7 940e 1307 	CALL SUBOPT_0x41
0009c9 940e 130a 	CALL SUBOPT_0x42
                 ; 0000 0370     last=0;
0009cb 24dd      	CLR  R13
                 ; 0000 0371     for(i=0;i<100;i++) pid2(150,23,15);
                +
0009cc e000     +LDI R16 , LOW ( 0 )
0009cd e010     +LDI R17 , HIGH ( 0 )
                 	__GETWRN 16,17,0
                 _0x251:
                +
0009ce 3604     +CPI R16 , LOW ( 100 )
0009cf e0e0     +LDI R30 , HIGH ( 100 )
0009d0 071e     +CPC R17 , R30
                 	__CPWRN 16,17,100
0009d1 f42c      	BRGE _0x252
0009d2 940e 128c 	CALL SUBOPT_0x2C
                +
0009d4 5f0f     +SUBI R16 , LOW ( - 1 )
0009d5 4f1f     +SBCI R17 , HIGH ( - 1 )
                 	__ADDWRN 16,17,1
0009d6 cff7      	RJMP _0x251
                 _0x252:
                 ; 0000 0372 pidbit(6,7,1,2);
0009d7 940e 12dd 	CALL SUBOPT_0x38
0009d9 940e 1302 	CALL SUBOPT_0x40
0009db dcf8      	RCALL _pidbit
                 ; 0000 0373 
                 ; 0000 0374     jalan(maju,50,maju,200,200);
0009dc e0e0      	LDI  R30,LOW(0)
0009dd 93ea      	ST   -Y,R30
0009de 940e 1307 	CALL SUBOPT_0x41
0009e0 940e 12af 	CALL SUBOPT_0x31
                 ; 0000 0375 
                 ; 0000 0376     delay_ms(100);
0009e2 940e 119a 	CALL SUBOPT_0x1
0009e4 940e 13c0 	CALL _delay_ms
                 ; 0000 0377     last=0;
0009e6 24dd      	CLR  R13
                 ; 0000 0378     pidbit(0,7,1,1);
0009e7 940e 132f 	CALL SUBOPT_0x49
0009e9 940e 12c4 	CALL SUBOPT_0x35
0009eb dce8      	RCALL _pidbit
                 ; 0000 0379     last=1;
0009ec e0e1      	LDI  R30,LOW(1)
0009ed 2ede      	MOV  R13,R30
                 ; 0000 037A     jalan(maju,100,maju,200,100);
0009ee e0e0      	LDI  R30,LOW(0)
0009ef 93ea      	ST   -Y,R30
0009f0 940e 12e7 	CALL SUBOPT_0x3A
0009f2 940e 119a 	CALL SUBOPT_0x1
0009f4 d8b9      	RCALL _jalan
                 ; 0000 037B 
                 ; 0000 037C     gt=0; gt=0;
0009f5 940e 122f 	CALL SUBOPT_0x1C
0009f7 940e 122f 	CALL SUBOPT_0x1C
                 ; 0000 037D     for(i=0;i<1000;i++) pid2(150,23,15);
                +
0009f9 e000     +LDI R16 , LOW ( 0 )
0009fa e010     +LDI R17 , HIGH ( 0 )
                 	__GETWRN 16,17,0
                 _0x254:
                +
0009fb 3e08     +CPI R16 , LOW ( 1000 )
0009fc e0e3     +LDI R30 , HIGH ( 1000 )
0009fd 071e     +CPC R17 , R30
                 	__CPWRN 16,17,1000
0009fe f42c      	BRGE _0x255
0009ff 940e 128c 	CALL SUBOPT_0x2C
                +
000a01 5f0f     +SUBI R16 , LOW ( - 1 )
000a02 4f1f     +SBCI R17 , HIGH ( - 1 )
                 	__ADDWRN 16,17,1
000a03 cff7      	RJMP _0x254
                 _0x255:
                 ; 0000 037E pidbit(2,5,2,2);
000a04 940e 135d 	CALL SUBOPT_0x50
000a06 940e 136c 	CALL SUBOPT_0x53
000a08 940e 12e2 	CALL SUBOPT_0x39
                 ; 0000 037F     pidbit(1,6,fast,1);
000a0a e0e6      	LDI  R30,LOW(6)
000a0b 93ea      	ST   -Y,R30
000a0c 940e 1221 	CALL SUBOPT_0x19
000a0e dcc5      	RCALL _pidbit
                 ; 0000 0380     delay_ms(1000);
000a0f 940e 1216 	CALL SUBOPT_0x17
                 ; 0000 0381     jalan(maju,200,maju,200,200);
000a11 940e 12aa 	CALL SUBOPT_0x30
000a13 940e 12aa 	CALL SUBOPT_0x30
000a15 940e 12af 	CALL SUBOPT_0x31
                 ; 0000 0382     pidbit(1,6,normal,1);
000a17 940e 12fa 	CALL SUBOPT_0x3E
000a19 940e 12c4 	CALL SUBOPT_0x35
000a1b 940e 1362 	CALL SUBOPT_0x51
                 ; 0000 0383     for(i=0;i<10;i++) {delay_ms(100); bip;}
                 _0x257:
                +
000a1d 300a     +CPI R16 , LOW ( 10 )
000a1e e0e0     +LDI R30 , HIGH ( 10 )
000a1f 071e     +CPC R17 , R30
                 	__CPWRN 16,17,10
000a20 f46c      	BRGE _0x258
000a21 940e 119a 	CALL SUBOPT_0x1
000a23 940e 13c0 	CALL _delay_ms
000a25 98af      	CBI  0x15,7
000a26 940e 119a 	CALL SUBOPT_0x1
000a28 940e 13c0 	CALL _delay_ms
000a2a 9aaf      	SBI  0x15,7
                +
000a2b 5f0f     +SUBI R16 , LOW ( - 1 )
000a2c 4f1f     +SBCI R17 , HIGH ( - 1 )
                 	__ADDWRN 16,17,1
000a2d cfef      	RJMP _0x257
                 _0x258:
                 ; 0000 0384 
                 ; 0000 0385 
                 ; 0000 0386 }
000a2e 940e 1462 	CALL __LOADLOCR4
                 _0x2080005:
000a30 9625      	ADIW R28,5
000a31 9508      	RET
                 ;
                 ;void program_lintasan1(unsigned char checkpoin)
                 ; 0000 0389 {
                 _program_lintasan1:
                 ; 0000 038A     int i,j;
                 ; 0000 038B     if(checkpoin==0) goto start;
000a32 940e 145b 	CALL __SAVELOCR4
                 ;	checkpoin -> Y+4
                 ;	i -> R16,R17
                 ;	j -> R18,R19
000a34 81ec      	LDD  R30,Y+4
000a35 30e0      	CPI  R30,0
000a36 f0a1      	BREQ _0x25E
                 ; 0000 038C     else if(checkpoin==1) goto cp1;
000a37 81ac      	LDD  R26,Y+4
000a38 30a1      	CPI  R26,LOW(0x1)
000a39 f409      	BRNE _0x260
000a3a c050      	RJMP _0x261
                 ; 0000 038D     else if(checkpoin==2) goto cp2;
                 _0x260:
000a3b 81ac      	LDD  R26,Y+4
000a3c 30a2      	CPI  R26,LOW(0x2)
000a3d f409      	BRNE _0x263
000a3e c0bc      	RJMP _0x264
                 ; 0000 038E     else if(checkpoin==3) goto cp3;
                 _0x263:
000a3f 81ac      	LDD  R26,Y+4
000a40 30a3      	CPI  R26,LOW(0x3)
000a41 f409      	BRNE _0x266
000a42 c12c      	RJMP _0x267
                 ; 0000 038F     else if(checkpoin==4) goto cp4;
                 _0x266:
000a43 81ac      	LDD  R26,Y+4
000a44 30a4      	CPI  R26,LOW(0x4)
000a45 f409      	BRNE _0x269
000a46 c1cd      	RJMP _0x26A
                 ; 0000 0390     else if(checkpoin==5) goto cp5;
                 _0x269:
000a47 81ac      	LDD  R26,Y+4
000a48 30a5      	CPI  R26,LOW(0x5)
000a49 f409      	BRNE _0x26C
000a4a c24b      	RJMP _0x26D
                 ; 0000 0391 
                 ; 0000 0392     start :
                 _0x26C:
                 _0x25E:
                 ; 0000 0393     gt=0;
000a4b 940e 122f 	CALL SUBOPT_0x1C
                 ; 0000 0394     jalan(maju,200,maju,200,200);
000a4d 940e 12aa 	CALL SUBOPT_0x30
000a4f 940e 12aa 	CALL SUBOPT_0x30
000a51 940e 12af 	CALL SUBOPT_0x31
                 ; 0000 0395     pidbit(6,7,normal,1);
000a53 940e 12dd 	CALL SUBOPT_0x38
000a55 940e 12c4 	CALL SUBOPT_0x35
000a57 940e 12e2 	CALL SUBOPT_0x39
                 ; 0000 0396     jalan(mundur,125,maju,200,200);
000a59 e7ed      	LDI  R30,LOW(125)
000a5a 93ea      	ST   -Y,R30
000a5b 940e 12aa 	CALL SUBOPT_0x30
000a5d 940e 12af 	CALL SUBOPT_0x31
                 ; 0000 0397     last=1;
000a5f 940e 131d 	CALL SUBOPT_0x46
                 ; 0000 0398     for(i=0;i<300;i++) pid2(150,23,15);
                 _0x26F:
                +
000a61 320c     +CPI R16 , LOW ( 300 )
000a62 e0e1     +LDI R30 , HIGH ( 300 )
000a63 071e     +CPC R17 , R30
                 	__CPWRN 16,17,300
000a64 f42c      	BRGE _0x270
000a65 940e 128c 	CALL SUBOPT_0x2C
                +
000a67 5f0f     +SUBI R16 , LOW ( - 1 )
000a68 4f1f     +SBCI R17 , HIGH ( - 1 )
                 	__ADDWRN 16,17,1
000a69 cff7      	RJMP _0x26F
                 _0x270:
                 ; 0000 039B for(i=0;i<3;i++)
                +
000a6a e000     +LDI R16 , LOW ( 0 )
000a6b e010     +LDI R17 , HIGH ( 0 )
                 	__GETWRN 16,17,0
                 _0x272:
                +
000a6c 3003     +CPI R16 , LOW ( 3 )
000a6d e0e0     +LDI R30 , HIGH ( 3 )
000a6e 071e     +CPC R17 , R30
                 	__CPWRN 16,17,3
000a6f f484      	BRGE _0x273
                 ; 0000 039C    {
                 ; 0000 039D         zigzag(kiri,normal,1);
000a70 940e 12b5 	CALL SUBOPT_0x32
000a72 940e 12d2 	CALL SUBOPT_0x37
                 ; 0000 039E         jalan(mundur,100,maju,250,200);
                 ; 0000 039F         zigzag(kanan,normal,1);
000a74 940e 12c4 	CALL SUBOPT_0x35
000a76 940e 12c8 	CALL SUBOPT_0x36
                 ; 0000 03A0         jalan(maju,250,mundur,150,200);
000a78 93ea      	ST   -Y,R30
000a79 e9e6      	LDI  R30,LOW(150)
000a7a 93ea      	ST   -Y,R30
000a7b 940e 12af 	CALL SUBOPT_0x31
                 ; 0000 03A1    }
                +
000a7d 5f0f     +SUBI R16 , LOW ( - 1 )
000a7e 4f1f     +SBCI R17 , HIGH ( - 1 )
                 	__ADDWRN 16,17,1
000a7f cfec      	RJMP _0x272
                 _0x273:
                 ; 0000 03A2 
                 ; 0000 03A3    for(i=0;i<800;i++) pid2(150,23,15);
                +
000a80 e000     +LDI R16 , LOW ( 0 )
000a81 e010     +LDI R17 , HIGH ( 0 )
                 	__GETWRN 16,17,0
                 _0x275:
                +
000a82 3200     +CPI R16 , LOW ( 800 )
000a83 e0e3     +LDI R30 , HIGH ( 800 )
000a84 071e     +CPC R17 , R30
                 	__CPWRN 16,17,800
000a85 f42c      	BRGE _0x276
000a86 940e 128c 	CALL SUBOPT_0x2C
                +
000a88 5f0f     +SUBI R16 , LOW ( - 1 )
000a89 4f1f     +SBCI R17 , HIGH ( - 1 )
                 	__ADDWRN 16,17,1
000a8a cff7      	RJMP _0x275
                 _0x276:
                 ; 0000 03A4 cp1 :
                 _0x261:
                 ; 0000 03A5    gt=0;
000a8b 940e 122f 	CALL SUBOPT_0x1C
                 ; 0000 03A6 
                 ; 0000 03A7    pidbit(0,1,1,1);
000a8d 940e 12b5 	CALL SUBOPT_0x32
000a8f 940e 12bb 	CALL SUBOPT_0x33
                 ; 0000 03A8    jalan(maju,200,mundur,100,200);
000a91 e0e1      	LDI  R30,LOW(1)
000a92 940e 11e5 	CALL SUBOPT_0x10
000a94 940e 12c0 	CALL SUBOPT_0x34
                 ; 0000 03A9    for(i=0;i<2000;i++) pid2(150,23,15);
                +
000a96 e000     +LDI R16 , LOW ( 0 )
000a97 e010     +LDI R17 , HIGH ( 0 )
                 	__GETWRN 16,17,0
                 _0x278:
                +
000a98 3d00     +CPI R16 , LOW ( 2000 )
000a99 e0e7     +LDI R30 , HIGH ( 2000 )
000a9a 071e     +CPC R17 , R30
                 	__CPWRN 16,17,2000
000a9b f42c      	BRGE _0x279
000a9c 940e 128c 	CALL SUBOPT_0x2C
                +
000a9e 5f0f     +SUBI R16 , LOW ( - 1 )
000a9f 4f1f     +SBCI R17 , HIGH ( - 1 )
                 	__ADDWRN 16,17,1
000aa0 cff7      	RJMP _0x278
                 _0x279:
                 ; 0000 03AA pidsayap(1,1,1,2);
000aa1 940e 12c4 	CALL SUBOPT_0x35
000aa3 940e 1302 	CALL SUBOPT_0x40
000aa5 940e 12f0 	CALL SUBOPT_0x3C
                 ; 0000 03AB    jalan(maju,200,mundur,150,200);
000aa7 e0e1      	LDI  R30,LOW(1)
000aa8 93ea      	ST   -Y,R30
000aa9 e9e6      	LDI  R30,LOW(150)
000aaa 93ea      	ST   -Y,R30
000aab 940e 12af 	CALL SUBOPT_0x31
                 ; 0000 03AC 
                 ; 0000 03AD    for(i=0;i<1000;i++) pid2(150,23,15);
                +
000aad e000     +LDI R16 , LOW ( 0 )
000aae e010     +LDI R17 , HIGH ( 0 )
                 	__GETWRN 16,17,0
                 _0x27B:
                +
000aaf 3e08     +CPI R16 , LOW ( 1000 )
000ab0 e0e3     +LDI R30 , HIGH ( 1000 )
000ab1 071e     +CPC R17 , R30
                 	__CPWRN 16,17,1000
000ab2 f42c      	BRGE _0x27C
000ab3 940e 128c 	CALL SUBOPT_0x2C
                +
000ab5 5f0f     +SUBI R16 , LOW ( - 1 )
000ab6 4f1f     +SBCI R17 , HIGH ( - 1 )
                 	__ADDWRN 16,17,1
000ab7 cff7      	RJMP _0x27B
                 _0x27C:
                 ; 0000 03AE pidsayap(0,1,1,1);
000ab8 940e 12b5 	CALL SUBOPT_0x32
000aba e0e1      	LDI  R30,LOW(1)
000abb 940e 12ea 	CALL SUBOPT_0x3B
                 ; 0000 03AF    jalan(mundur,120,maju,200,150);
000abd e7e8      	LDI  R30,LOW(120)
000abe 93ea      	ST   -Y,R30
000abf 940e 12aa 	CALL SUBOPT_0x30
000ac1 940e 130a 	CALL SUBOPT_0x42
                 ; 0000 03B0    last=1;
000ac3 940e 131d 	CALL SUBOPT_0x46
                 ; 0000 03B1 
                 ; 0000 03B2    for(i=0;i<1000;i++) pid2(150,23,15);
                 _0x27E:
                +
000ac5 3e08     +CPI R16 , LOW ( 1000 )
000ac6 e0e3     +LDI R30 , HIGH ( 1000 )
000ac7 071e     +CPC R17 , R30
                 	__CPWRN 16,17,1000
000ac8 f42c      	BRGE _0x27F
000ac9 940e 128c 	CALL SUBOPT_0x2C
                +
000acb 5f0f     +SUBI R16 , LOW ( - 1 )
000acc 4f1f     +SBCI R17 , HIGH ( - 1 )
                 	__ADDWRN 16,17,1
000acd cff7      	RJMP _0x27E
                 _0x27F:
                 ; 0000 03B3 pidbit(1,6,1,1);
000ace 940e 12fa 	CALL SUBOPT_0x3E
000ad0 940e 12c4 	CALL SUBOPT_0x35
000ad2 940e 12e2 	CALL SUBOPT_0x39
                 ; 0000 03B4    jalan(mundur,100,maju,200,150);
000ad4 940e 12e7 	CALL SUBOPT_0x3A
000ad6 940e 130a 	CALL SUBOPT_0x42
                 ; 0000 03B5    last=1;
000ad8 940e 131d 	CALL SUBOPT_0x46
                 ; 0000 03B6    for(i=0;i<800;i++) pid2(150,23,15); buz_on;
                 _0x281:
                +
000ada 3200     +CPI R16 , LOW ( 800 )
000adb e0e3     +LDI R30 , HIGH ( 800 )
000adc 071e     +CPC R17 , R30
                 	__CPWRN 16,17,800
000add f42c      	BRGE _0x282
000ade 940e 128c 	CALL SUBOPT_0x2C
                +
000ae0 5f0f     +SUBI R16 , LOW ( - 1 )
000ae1 4f1f     +SBCI R17 , HIGH ( - 1 )
                 	__ADDWRN 16,17,1
000ae2 cff7      	RJMP _0x281
                 _0x282:
000ae3 98af      	CBI  0x15,7
                 ; 0000 03B7     for(i=0;i<1300;i++) pid2(200,35,28); buz_off;
                +
000ae4 e000     +LDI R16 , LOW ( 0 )
000ae5 e010     +LDI R17 , HIGH ( 0 )
                 	__GETWRN 16,17,0
                 _0x286:
                +
000ae6 3104     +CPI R16 , LOW ( 1300 )
000ae7 e0e5     +LDI R30 , HIGH ( 1300 )
000ae8 071e     +CPC R17 , R30
                 	__CPWRN 16,17,1300
000ae9 f42c      	BRGE _0x287
000aea 940e 1284 	CALL SUBOPT_0x2B
                +
000aec 5f0f     +SUBI R16 , LOW ( - 1 )
000aed 4f1f     +SBCI R17 , HIGH ( - 1 )
                 	__ADDWRN 16,17,1
000aee cff7      	RJMP _0x286
                 _0x287:
000aef 9aaf      	SBI  0x15,7
                 ; 0000 03B8     for(i=0;i<1000;i++) pid2(150,23,15);
                +
000af0 e000     +LDI R16 , LOW ( 0 )
000af1 e010     +LDI R17 , HIGH ( 0 )
                 	__GETWRN 16,17,0
                 _0x28B:
                +
000af2 3e08     +CPI R16 , LOW ( 1000 )
000af3 e0e3     +LDI R30 , HIGH ( 1000 )
000af4 071e     +CPC R17 , R30
                 	__CPWRN 16,17,1000
000af5 f42c      	BRGE _0x28C
000af6 940e 128c 	CALL SUBOPT_0x2C
                +
000af8 5f0f     +SUBI R16 , LOW ( - 1 )
000af9 4f1f     +SBCI R17 , HIGH ( - 1 )
                 	__ADDWRN 16,17,1
000afa cff7      	RJMP _0x28B
                 _0x28C:
                 ; 0000 03BA cp2 :
                 _0x264:
                 ; 0000 03BB    gt=0;
000afb 940e 122f 	CALL SUBOPT_0x1C
                 ; 0000 03BC    if(checkpoin==2)
000afd 81ac      	LDD  R26,Y+4
000afe 30a2      	CPI  R26,LOW(0x2)
000aff f459      	BRNE _0x28D
                 ; 0000 03BD    {
                 ; 0000 03BE     pidbit(1,6,normal,2);
000b00 940e 12fa 	CALL SUBOPT_0x3E
000b02 940e 1302 	CALL SUBOPT_0x40
000b04 940e 12ff 	CALL SUBOPT_0x3F
                 ; 0000 03BF     jalan(maju,200,maju,0,200);
000b06 940e 11d3 	CALL SUBOPT_0xB
000b08 ece8      	LDI  R30,LOW(200)
000b09 e0f0      	LDI  R31,HIGH(200)
000b0a c00a      	RJMP _0x330
                 ; 0000 03C0     }
                 ; 0000 03C1    else
                 _0x28D:
                 ; 0000 03C2    {
                 ; 0000 03C3     pidbit(1,6,normal,1);
000b0b 940e 12fa 	CALL SUBOPT_0x3E
000b0d 940e 12c4 	CALL SUBOPT_0x35
000b0f 940e 12ff 	CALL SUBOPT_0x3F
                 ; 0000 03C4     jalan(maju,200,mundur,50,150);
000b11 940e 1370 	CALL SUBOPT_0x54
000b13 e9e6      	LDI  R30,LOW(150)
000b14 e0f0      	LDI  R31,HIGH(150)
                 _0x330:
000b15 93fa      	ST   -Y,R31
000b16 93ea      	ST   -Y,R30
000b17 940e 02ae 	CALL _jalan
                 ; 0000 03C5    }
                 ; 0000 03C6    for(i=0;i<850;i++) pid2(150,23,15);
                +
000b19 e000     +LDI R16 , LOW ( 0 )
000b1a e010     +LDI R17 , HIGH ( 0 )
                 	__GETWRN 16,17,0
                 _0x290:
                +
000b1b 3502     +CPI R16 , LOW ( 850 )
000b1c e0e3     +LDI R30 , HIGH ( 850 )
000b1d 071e     +CPC R17 , R30
                 	__CPWRN 16,17,850
000b1e f42c      	BRGE _0x291
000b1f 940e 128c 	CALL SUBOPT_0x2C
                +
000b21 5f0f     +SUBI R16 , LOW ( - 1 )
000b22 4f1f     +SBCI R17 , HIGH ( - 1 )
                 	__ADDWRN 16,17,1
000b23 cff7      	RJMP _0x290
                 _0x291:
                 ; 0000 03C7 pidsayap(1,1,1,1);
000b24 940e 12c4 	CALL SUBOPT_0x35
000b26 940e 12c4 	CALL SUBOPT_0x35
000b28 940e 12f0 	CALL SUBOPT_0x3C
                 ; 0000 03C8    jalan(maju,200,mundur,200,200);
000b2a e0e1      	LDI  R30,LOW(1)
000b2b 93ea      	ST   -Y,R30
000b2c ece8      	LDI  R30,LOW(200)
000b2d 93ea      	ST   -Y,R30
000b2e 940e 12af 	CALL SUBOPT_0x31
                 ; 0000 03C9    for(i=0;i<4000;i++) pid2(200,35,28);
                +
000b30 e000     +LDI R16 , LOW ( 0 )
000b31 e010     +LDI R17 , HIGH ( 0 )
                 	__GETWRN 16,17,0
                 _0x293:
                +
000b32 3a00     +CPI R16 , LOW ( 4000 )
000b33 e0ef     +LDI R30 , HIGH ( 4000 )
000b34 071e     +CPC R17 , R30
                 	__CPWRN 16,17,4000
000b35 f42c      	BRGE _0x294
000b36 940e 1284 	CALL SUBOPT_0x2B
                +
000b38 5f0f     +SUBI R16 , LOW ( - 1 )
000b39 4f1f     +SBCI R17 , HIGH ( - 1 )
                 	__ADDWRN 16,17,1
000b3a cff7      	RJMP _0x293
                 _0x294:
                 ; 0000 03CA PORTC.7=0;
000b3b 98af      	CBI  0x15,7
                 ; 0000 03CB    for(i=0;i<4000;i++) pid2(255,35,20);
                +
000b3c e000     +LDI R16 , LOW ( 0 )
000b3d e010     +LDI R17 , HIGH ( 0 )
                 	__GETWRN 16,17,0
                 _0x298:
                +
000b3e 3a00     +CPI R16 , LOW ( 4000 )
000b3f e0ef     +LDI R30 , HIGH ( 4000 )
000b40 071e     +CPC R17 , R30
                 	__CPWRN 16,17,4000
000b41 f42c      	BRGE _0x299
000b42 940e 130d 	CALL SUBOPT_0x43
                +
000b44 5f0f     +SUBI R16 , LOW ( - 1 )
000b45 4f1f     +SBCI R17 , HIGH ( - 1 )
                 	__ADDWRN 16,17,1
000b46 cff7      	RJMP _0x298
                 _0x299:
                 ; 0000 03CC PORTC.7=1;
000b47 9aaf      	SBI  0x15,7
                 ; 0000 03CD    for(i=0;i<2000;i++) pid2(200,35,28);
                +
000b48 e000     +LDI R16 , LOW ( 0 )
000b49 e010     +LDI R17 , HIGH ( 0 )
                 	__GETWRN 16,17,0
                 _0x29D:
                +
000b4a 3d00     +CPI R16 , LOW ( 2000 )
000b4b e0e7     +LDI R30 , HIGH ( 2000 )
000b4c 071e     +CPC R17 , R30
                 	__CPWRN 16,17,2000
000b4d f42c      	BRGE _0x29E
000b4e 940e 1284 	CALL SUBOPT_0x2B
                +
000b50 5f0f     +SUBI R16 , LOW ( - 1 )
000b51 4f1f     +SBCI R17 , HIGH ( - 1 )
                 	__ADDWRN 16,17,1
000b52 cff7      	RJMP _0x29D
                 _0x29E:
                 ; 0000 03CE pidbit(7,0,4,1);
000b53 940e 1315 	CALL SUBOPT_0x44
000b55 940e 131a 	CALL SUBOPT_0x45
                 ; 0000 03CF 
                 ; 0000 03D0    gt=1; gt=1;
000b57 940e 123a 	CALL SUBOPT_0x1E
                 ; 0000 03D1    gt=1; gt=1;
000b59 940e 123a 	CALL SUBOPT_0x1E
000b5b 940e 123a 	CALL SUBOPT_0x1E
                 ; 0000 03D2 
                 ; 0000 03D3    jalan(maju,200,maju,0,250);
000b5d 940e 12aa 	CALL SUBOPT_0x30
000b5f 940e 11d3 	CALL SUBOPT_0xB
000b61 940e 1375 	CALL SUBOPT_0x55
                 ; 0000 03D4    last=0;
000b63 24dd      	CLR  R13
                 ; 0000 03D5    for(i=0;i<500;i++) pid2(150,25,15);
                +
000b64 e000     +LDI R16 , LOW ( 0 )
000b65 e010     +LDI R17 , HIGH ( 0 )
                 	__GETWRN 16,17,0
                 _0x2A0:
                +
000b66 3f04     +CPI R16 , LOW ( 500 )
000b67 e0e1     +LDI R30 , HIGH ( 500 )
000b68 071e     +CPC R17 , R30
                 	__CPWRN 16,17,500
000b69 f42c      	BRGE _0x2A1
000b6a 940e 1322 	CALL SUBOPT_0x47
                +
000b6c 5f0f     +SUBI R16 , LOW ( - 1 )
000b6d 4f1f     +SBCI R17 , HIGH ( - 1 )
                 	__ADDWRN 16,17,1
000b6e cff7      	RJMP _0x2A0
                 _0x2A1:
                 ; 0000 03D7 cp3 :
                 _0x267:
                 ; 0000 03D8    gt=1; gt=1;
000b6f 940e 123a 	CALL SUBOPT_0x1E
000b71 940e 123a 	CALL SUBOPT_0x1E
                 ; 0000 03D9    last=0;
000b73 24dd      	CLR  R13
                 ; 0000 03DA    for(i=0;i<200;i++) pid2(150,25,15);
                +
000b74 e000     +LDI R16 , LOW ( 0 )
000b75 e010     +LDI R17 , HIGH ( 0 )
                 	__GETWRN 16,17,0
                 _0x2A3:
                +
000b76 3c08     +CPI R16 , LOW ( 200 )
000b77 e0e0     +LDI R30 , HIGH ( 200 )
000b78 071e     +CPC R17 , R30
                 	__CPWRN 16,17,200
000b79 f42c      	BRGE _0x2A4
000b7a 940e 1322 	CALL SUBOPT_0x47
                +
000b7c 5f0f     +SUBI R16 , LOW ( - 1 )
000b7d 4f1f     +SBCI R17 , HIGH ( - 1 )
                 	__ADDWRN 16,17,1
000b7e cff7      	RJMP _0x2A3
                 _0x2A4:
                 ; 0000 03DB last=0;
000b7f 24dd      	CLR  R13
                 ; 0000 03DC    pidbit(6,7,1,1);  //
000b80 940e 12dd 	CALL SUBOPT_0x38
000b82 940e 12c4 	CALL SUBOPT_0x35
000b84 940e 12e2 	CALL SUBOPT_0x39
                 ; 0000 03DD    jalan(mundur,100,maju,200,200);
000b86 940e 12e7 	CALL SUBOPT_0x3A
000b88 940e 12af 	CALL SUBOPT_0x31
                 ; 0000 03DE    for(i=0;i<100;i++) pid2(150,25,15);
                +
000b8a e000     +LDI R16 , LOW ( 0 )
000b8b e010     +LDI R17 , HIGH ( 0 )
                 	__GETWRN 16,17,0
                 _0x2A6:
                +
000b8c 3604     +CPI R16 , LOW ( 100 )
000b8d e0e0     +LDI R30 , HIGH ( 100 )
000b8e 071e     +CPC R17 , R30
                 	__CPWRN 16,17,100
000b8f f42c      	BRGE _0x2A7
000b90 940e 1322 	CALL SUBOPT_0x47
                +
000b92 5f0f     +SUBI R16 , LOW ( - 1 )
000b93 4f1f     +SBCI R17 , HIGH ( - 1 )
                 	__ADDWRN 16,17,1
000b94 cff7      	RJMP _0x2A6
                 _0x2A7:
                 ; 0000 03DF pidbit(6,7,1,1);
000b95 940e 12dd 	CALL SUBOPT_0x38
000b97 940e 12c4 	CALL SUBOPT_0x35
000b99 db3a      	RCALL _pidbit
                 ; 0000 03E0    jalan(maju,0,maju,200,200);
000b9a 940e 11d3 	CALL SUBOPT_0xB
000b9c 940e 12aa 	CALL SUBOPT_0x30
000b9e 940e 12af 	CALL SUBOPT_0x31
                 ; 0000 03E1    last=0;
000ba0 24dd      	CLR  R13
                 ; 0000 03E2    for(i=0;i<200;i++) pid2(150,25,15);
                +
000ba1 e000     +LDI R16 , LOW ( 0 )
000ba2 e010     +LDI R17 , HIGH ( 0 )
                 	__GETWRN 16,17,0
                 _0x2A9:
                +
000ba3 3c08     +CPI R16 , LOW ( 200 )
000ba4 e0e0     +LDI R30 , HIGH ( 200 )
000ba5 071e     +CPC R17 , R30
                 	__CPWRN 16,17,200
000ba6 f42c      	BRGE _0x2AA
000ba7 940e 1322 	CALL SUBOPT_0x47
                +
000ba9 5f0f     +SUBI R16 , LOW ( - 1 )
000baa 4f1f     +SBCI R17 , HIGH ( - 1 )
                 	__ADDWRN 16,17,1
000bab cff7      	RJMP _0x2A9
                 _0x2AA:
                 ; 0000 03E3 pidbit(0,7,1,1);
000bac 940e 132f 	CALL SUBOPT_0x49
000bae 940e 12c4 	CALL SUBOPT_0x35
000bb0 db23      	RCALL _pidbit
                 ; 0000 03E4    gt=0; gt=0;
000bb1 940e 122f 	CALL SUBOPT_0x1C
000bb3 940e 122f 	CALL SUBOPT_0x1C
                 ; 0000 03E5 
                 ; 0000 03E6 //   jalan(maju,100,maju,120,180);
                 ; 0000 03E7 //   last=1;
                 ; 0000 03E8 //   pidsayap(kiri,1,slow,1);
                 ; 0000 03E9 //   jalan(maju,150,maju,50,100);
                 ; 0000 03EA //   for(i=0;i<200;i++)pid2(120,15,10);
                 ; 0000 03EB //   pidsayap(kanan,1,slow,1);
                 ; 0000 03EC //   jalan(maju,100,maju,150,100);
                 ; 0000 03ED //   for(i=0;i<2500;i++) pid2(150,25,15);
                 ; 0000 03EE //   while(sensor!=0) pid2(120,15,10);
                 ; 0000 03EF 
                 ; 0000 03F0     jalan(maju,100,maju,100,180);
000bb5 940e 1334 	CALL SUBOPT_0x4A
000bb7 940e 1334 	CALL SUBOPT_0x4A
000bb9 ebe4      	LDI  R30,LOW(180)
000bba e0f0      	LDI  R31,HIGH(180)
000bbb 940e 12c0 	CALL SUBOPT_0x34
                 ; 0000 03F1     pidsayap(kiri,1,slow,1); buz_on;
000bbd 940e 134a 	CALL SUBOPT_0x4D
000bbf e0e1      	LDI  R30,LOW(1)
000bc0 93ea      	ST   -Y,R30
000bc1 940e 133e 	CALL SUBOPT_0x4C
                 ; 0000 03F2     jalan(maju,150,maju,75,100);buz_off;
000bc3 940e 02ae 	CALL _jalan
000bc5 9aaf      	SBI  0x15,7
                 ; 0000 03F3     for(i=0;i<100;i++)pid2(120,15,10);
                +
000bc6 e000     +LDI R16 , LOW ( 0 )
000bc7 e010     +LDI R17 , HIGH ( 0 )
                 	__GETWRN 16,17,0
                 _0x2B0:
                +
000bc8 3604     +CPI R16 , LOW ( 100 )
000bc9 e0e0     +LDI R30 , HIGH ( 100 )
000bca 071e     +CPC R17 , R30
                 	__CPWRN 16,17,100
000bcb f42c      	BRGE _0x2B1
000bcc 940e 1294 	CALL SUBOPT_0x2D
                +
000bce 5f0f     +SUBI R16 , LOW ( - 1 )
000bcf 4f1f     +SBCI R17 , HIGH ( - 1 )
                 	__ADDWRN 16,17,1
000bd0 cff7      	RJMP _0x2B0
                 _0x2B1:
                 ; 0000 03F4 pidsayap(1,1,0,1);
000bd1 940e 12c4 	CALL SUBOPT_0x35
000bd3 940e 1339 	CALL SUBOPT_0x4B
000bd5 940e 134d 	CALL SUBOPT_0x4E
                 ; 0000 03F5     jalan(maju,150,maju,100,100);
000bd7 940e 119a 	CALL SUBOPT_0x1
000bd9 940e 02ae 	CALL _jalan
                 ; 0000 03F6     for(i=0;i<=3000;i++) pid2(150,25,15);
                +
000bdb e000     +LDI R16 , LOW ( 0 )
000bdc e010     +LDI R17 , HIGH ( 0 )
                 	__GETWRN 16,17,0
                 _0x2B3:
                +
000bdd 3b09     +CPI R16 , LOW ( 3001 )
000bde e0eb     +LDI R30 , HIGH ( 3001 )
000bdf 071e     +CPC R17 , R30
                 	__CPWRN 16,17,3001
000be0 f42c      	BRGE _0x2B4
000be1 940e 1322 	CALL SUBOPT_0x47
                +
000be3 5f0f     +SUBI R16 , LOW ( - 1 )
000be4 4f1f     +SBCI R17 , HIGH ( - 1 )
                 	__ADDWRN 16,17,1
000be5 cff7      	RJMP _0x2B3
                 _0x2B4:
                 ; 0000 03F8 PORTC.7=0;
000be6 98af      	CBI  0x15,7
                 ; 0000 03F9    pidbit(0,7,10,1);
000be7 940e 132f 	CALL SUBOPT_0x49
000be9 940e 1354 	CALL SUBOPT_0x4F
                 ; 0000 03FA    jalan(maju,150,maju,0,100);
000beb e9e6      	LDI  R30,LOW(150)
000bec 93ea      	ST   -Y,R30
000bed 940e 11d3 	CALL SUBOPT_0xB
000bef 940e 119a 	CALL SUBOPT_0x1
000bf1 940e 02ae 	CALL _jalan
                 ; 0000 03FB    buz_off;
000bf3 9aaf      	SBI  0x15,7
                 ; 0000 03FC    gt=1; gt=1;
000bf4 940e 123a 	CALL SUBOPT_0x1E
000bf6 940e 123a 	CALL SUBOPT_0x1E
                 ; 0000 03FD    pidbit(2,5,0,1);
000bf8 940e 135d 	CALL SUBOPT_0x50
000bfa 940e 1339 	CALL SUBOPT_0x4B
000bfc 940e 1362 	CALL SUBOPT_0x51
                 ; 0000 03FE 
                 ; 0000 03FF    for(i=0;i<=500;i++) pid2(120,15,10);
                 _0x2BA:
                +
000bfe 3f05     +CPI R16 , LOW ( 501 )
000bff e0e1     +LDI R30 , HIGH ( 501 )
000c00 071e     +CPC R17 , R30
                 	__CPWRN 16,17,501
000c01 f42c      	BRGE _0x2BB
000c02 940e 1294 	CALL SUBOPT_0x2D
                +
000c04 5f0f     +SUBI R16 , LOW ( - 1 )
000c05 4f1f     +SBCI R17 , HIGH ( - 1 )
                 	__ADDWRN 16,17,1
000c06 cff7      	RJMP _0x2BA
                 _0x2BB:
                 ; 0000 0400 pidsayapglp(0,1,0,1);
000c07 940e 134a 	CALL SUBOPT_0x4D
000c09 e0e1      	LDI  R30,LOW(1)
000c0a 93ea      	ST   -Y,R30
000c0b da7c      	RCALL _pidsayapglp
                 ; 0000 0401    jalan(maju,200,maju,200,75);
000c0c 940e 12aa 	CALL SUBOPT_0x30
000c0e 940e 12aa 	CALL SUBOPT_0x30
000c10 e4eb      	LDI  R30,LOW(75)
000c11 e0f0      	LDI  R31,HIGH(75)
000c12 940e 12c0 	CALL SUBOPT_0x34
                 ; 0000 0402 
                 ; 0000 0403    cp4 :
                 _0x26A:
                 ; 0000 0404    if(checkpoin==4){
000c14 81ac      	LDD  R26,Y+4
000c15 30a4      	CPI  R26,LOW(0x4)
000c16 f449      	BRNE _0x2BC
                 ; 0000 0405        jalan(maju,255,maju,70,255);
000c17 940e 1367 	CALL SUBOPT_0x52
000c19 e0e0      	LDI  R30,LOW(0)
000c1a 93ea      	ST   -Y,R30
000c1b e4e6      	LDI  R30,LOW(70)
000c1c 93ea      	ST   -Y,R30
000c1d efef      	LDI  R30,LOW(255)
000c1e e0f0      	LDI  R31,HIGH(255)
000c1f c006      	RJMP _0x331
                 ; 0000 0406 
                 ; 0000 0407    }
                 ; 0000 0408    else jalan(maju,200,mundur,50,450);
                 _0x2BC:
000c20 940e 12aa 	CALL SUBOPT_0x30
000c22 940e 1370 	CALL SUBOPT_0x54
000c24 ece2      	LDI  R30,LOW(450)
000c25 e0f1      	LDI  R31,HIGH(450)
                 _0x331:
000c26 93fa      	ST   -Y,R31
000c27 93ea      	ST   -Y,R30
000c28 940e 02ae 	CALL _jalan
                 ; 0000 0409    last=1;
000c2a e0e1      	LDI  R30,LOW(1)
000c2b 2ede      	MOV  R13,R30
                 ; 0000 040A 
                 ; 0000 040B    gt=0; gt=0;
000c2c 940e 122f 	CALL SUBOPT_0x1C
000c2e 940e 122f 	CALL SUBOPT_0x1C
                 ; 0000 040C    for(i=0;i<300;i++) pid2(200,35,28);
                +
000c30 e000     +LDI R16 , LOW ( 0 )
000c31 e010     +LDI R17 , HIGH ( 0 )
                 	__GETWRN 16,17,0
                 _0x2BF:
                +
000c32 320c     +CPI R16 , LOW ( 300 )
000c33 e0e1     +LDI R30 , HIGH ( 300 )
000c34 071e     +CPC R17 , R30
                 	__CPWRN 16,17,300
000c35 f42c      	BRGE _0x2C0
000c36 940e 1284 	CALL SUBOPT_0x2B
                +
000c38 5f0f     +SUBI R16 , LOW ( - 1 )
000c39 4f1f     +SBCI R17 , HIGH ( - 1 )
                 	__ADDWRN 16,17,1
000c3a cff7      	RJMP _0x2BF
                 _0x2C0:
                 ; 0000 040D pidbit(0,7,2,1);
000c3b 940e 132f 	CALL SUBOPT_0x49
000c3d 940e 1221 	CALL SUBOPT_0x19
000c3f 940e 131a 	CALL SUBOPT_0x45
                 ; 0000 040E 
                 ; 0000 040F    gt=1; gt=1;
000c41 940e 123a 	CALL SUBOPT_0x1E
                 ; 0000 0410    buz_on;
000c43 98af      	CBI  0x15,7
                 ; 0000 0411    for(i=0;i<2000;i++) pid2(200,35,28);
                +
000c44 e000     +LDI R16 , LOW ( 0 )
000c45 e010     +LDI R17 , HIGH ( 0 )
                 	__GETWRN 16,17,0
                 _0x2C4:
                +
000c46 3d00     +CPI R16 , LOW ( 2000 )
000c47 e0e7     +LDI R30 , HIGH ( 2000 )
000c48 071e     +CPC R17 , R30
                 	__CPWRN 16,17,2000
000c49 f42c      	BRGE _0x2C5
000c4a 940e 1284 	CALL SUBOPT_0x2B
                +
000c4c 5f0f     +SUBI R16 , LOW ( - 1 )
000c4d 4f1f     +SBCI R17 , HIGH ( - 1 )
                 	__ADDWRN 16,17,1
000c4e cff7      	RJMP _0x2C4
                 _0x2C5:
                 ; 0000 0412 PORTC.7=1;
000c4f 9aaf      	SBI  0x15,7
                 ; 0000 0413    //jalan(maju,150,maju,200,325);
                 ; 0000 0414    for(i=0;i<300;i++) pid2(200,35,28);
                +
000c50 e000     +LDI R16 , LOW ( 0 )
000c51 e010     +LDI R17 , HIGH ( 0 )
                 	__GETWRN 16,17,0
                 _0x2C9:
                +
000c52 320c     +CPI R16 , LOW ( 300 )
000c53 e0e1     +LDI R30 , HIGH ( 300 )
000c54 071e     +CPC R17 , R30
                 	__CPWRN 16,17,300
000c55 f42c      	BRGE _0x2CA
000c56 940e 1284 	CALL SUBOPT_0x2B
                +
000c58 5f0f     +SUBI R16 , LOW ( - 1 )
000c59 4f1f     +SBCI R17 , HIGH ( - 1 )
                 	__ADDWRN 16,17,1
000c5a cff7      	RJMP _0x2C9
                 _0x2CA:
                 ; 0000 0415 pidbit(7,4,2,2);
000c5b e0e7      	LDI  R30,LOW(7)
000c5c 93ea      	ST   -Y,R30
000c5d e0e4      	LDI  R30,LOW(4)
000c5e 93ea      	ST   -Y,R30
000c5f 940e 136c 	CALL SUBOPT_0x53
000c61 940e 12e2 	CALL SUBOPT_0x39
                 ; 0000 0416    jalan(mundur,50,maju,200,250);
000c63 940e 1307 	CALL SUBOPT_0x41
000c65 940e 1375 	CALL SUBOPT_0x55
                 ; 0000 0417    last=0;
000c67 24dd      	CLR  R13
                 ; 0000 0418    buz_on;
000c68 98af      	CBI  0x15,7
                 ; 0000 0419 
                 ; 0000 041A    for(i=0;i<100;i++) pid2(150,23,15);
                +
000c69 e000     +LDI R16 , LOW ( 0 )
000c6a e010     +LDI R17 , HIGH ( 0 )
                 	__GETWRN 16,17,0
                 _0x2CE:
                +
000c6b 3604     +CPI R16 , LOW ( 100 )
000c6c e0e0     +LDI R30 , HIGH ( 100 )
000c6d 071e     +CPC R17 , R30
                 	__CPWRN 16,17,100
000c6e f42c      	BRGE _0x2CF
000c6f 940e 128c 	CALL SUBOPT_0x2C
                +
000c71 5f0f     +SUBI R16 , LOW ( - 1 )
000c72 4f1f     +SBCI R17 , HIGH ( - 1 )
                 	__ADDWRN 16,17,1
000c73 cff7      	RJMP _0x2CE
                 _0x2CF:
                 ; 0000 041B stop(10);
000c74 e0ea      	LDI  R30,LOW(10)
000c75 e0f0      	LDI  R31,HIGH(10)
000c76 940e 11db 	CALL SUBOPT_0xD
                 ; 0000 041C    buz_off;
000c78 9aaf      	SBI  0x15,7
                 ; 0000 041D    jalan(maju,50,maju,200,150);
000c79 e0e0      	LDI  R30,LOW(0)
000c7a 93ea      	ST   -Y,R30
000c7b 940e 1307 	CALL SUBOPT_0x41
000c7d 940e 130a 	CALL SUBOPT_0x42
                 ; 0000 041E    jalan(maju,200,maju,200,50);
000c7f 940e 12aa 	CALL SUBOPT_0x30
000c81 940e 12aa 	CALL SUBOPT_0x30
000c83 e3e2      	LDI  R30,LOW(50)
000c84 e0f0      	LDI  R31,HIGH(50)
000c85 940e 12c0 	CALL SUBOPT_0x34
                 ; 0000 041F    stop(100);
000c87 940e 119a 	CALL SUBOPT_0x1
000c89 940e 02a6 	CALL _stop
                 ; 0000 0420 
                 ; 0000 0421    for(i=0;i<70;i++) pid2(150,25,15);
                +
000c8b e000     +LDI R16 , LOW ( 0 )
000c8c e010     +LDI R17 , HIGH ( 0 )
                 	__GETWRN 16,17,0
                 _0x2D3:
                +
000c8d 3406     +CPI R16 , LOW ( 70 )
000c8e e0e0     +LDI R30 , HIGH ( 70 )
000c8f 071e     +CPC R17 , R30
                 	__CPWRN 16,17,70
000c90 f42c      	BRGE _0x2D4
000c91 940e 1322 	CALL SUBOPT_0x47
                +
000c93 5f0f     +SUBI R16 , LOW ( - 1 )
000c94 4f1f     +SBCI R17 , HIGH ( - 1 )
                 	__ADDWRN 16,17,1
000c95 cff7      	RJMP _0x2D3
                 _0x2D4:
                 ; 0000 0423 cp5 :
                 _0x26D:
                 ; 0000 0424    gt=1; gt=1;
000c96 940e 123a 	CALL SUBOPT_0x1E
000c98 940e 123a 	CALL SUBOPT_0x1E
                 ; 0000 0425    pidbit(5,0,normal,2);
000c9a e0e5      	LDI  R30,LOW(5)
000c9b 93ea      	ST   -Y,R30
000c9c e0e0      	LDI  R30,LOW(0)
000c9d 93ea      	ST   -Y,R30
000c9e 940e 1302 	CALL SUBOPT_0x40
000ca0 940e 12ff 	CALL SUBOPT_0x3F
                 ; 0000 0426    jalan(maju,200,mundur,50,150); //sarang lebah
000ca2 940e 1370 	CALL SUBOPT_0x54
000ca4 940e 130a 	CALL SUBOPT_0x42
                 ; 0000 0427    last=1;
000ca6 940e 131d 	CALL SUBOPT_0x46
                 ; 0000 0428    for(i=0;i<100;i++) pid2(150,23,15);
                 _0x2D6:
                +
000ca8 3604     +CPI R16 , LOW ( 100 )
000ca9 e0e0     +LDI R30 , HIGH ( 100 )
000caa 071e     +CPC R17 , R30
                 	__CPWRN 16,17,100
000cab f42c      	BRGE _0x2D7
000cac 940e 128c 	CALL SUBOPT_0x2C
                +
000cae 5f0f     +SUBI R16 , LOW ( - 1 )
000caf 4f1f     +SBCI R17 , HIGH ( - 1 )
                 	__ADDWRN 16,17,1
000cb0 cff7      	RJMP _0x2D6
                 _0x2D7:
                 ; 0000 0429 pidbit(1,0,1,2);
000cb1 940e 132a 	CALL SUBOPT_0x48
000cb3 940e 1302 	CALL SUBOPT_0x40
000cb5 940e 12ff 	CALL SUBOPT_0x3F
                 ; 0000 042A 
                 ; 0000 042B    jalan(maju,200,maju,50,200);
000cb7 e0e0      	LDI  R30,LOW(0)
000cb8 93ea      	ST   -Y,R30
000cb9 e3e2      	LDI  R30,LOW(50)
000cba 93ea      	ST   -Y,R30
000cbb 940e 12af 	CALL SUBOPT_0x31
                 ; 0000 042C 
                 ; 0000 042D    delay_ms(100);
000cbd 940e 119a 	CALL SUBOPT_0x1
000cbf 940e 13c0 	CALL _delay_ms
                 ; 0000 042E    last=1;
000cc1 e0e1      	LDI  R30,LOW(1)
000cc2 2ede      	MOV  R13,R30
                 ; 0000 042F    pidbit(0,7,1,1);
000cc3 940e 132f 	CALL SUBOPT_0x49
000cc5 940e 12c4 	CALL SUBOPT_0x35
000cc7 da0c      	RCALL _pidbit
                 ; 0000 0430    last=0;
000cc8 24dd      	CLR  R13
                 ; 0000 0431    jalan(maju,200,maju,100,100);
000cc9 940e 12aa 	CALL SUBOPT_0x30
000ccb 940e 1334 	CALL SUBOPT_0x4A
000ccd 940e 119a 	CALL SUBOPT_0x1
000ccf 940e 02ae 	CALL _jalan
                 ; 0000 0432 
                 ; 0000 0433    gt=0; gt=0;
000cd1 940e 122f 	CALL SUBOPT_0x1C
000cd3 940e 122f 	CALL SUBOPT_0x1C
                 ; 0000 0434    for(i=0;i<1000;i++) pid2(150,23,15);
                +
000cd5 e000     +LDI R16 , LOW ( 0 )
000cd6 e010     +LDI R17 , HIGH ( 0 )
                 	__GETWRN 16,17,0
                 _0x2D9:
                +
000cd7 3e08     +CPI R16 , LOW ( 1000 )
000cd8 e0e3     +LDI R30 , HIGH ( 1000 )
000cd9 071e     +CPC R17 , R30
                 	__CPWRN 16,17,1000
000cda f42c      	BRGE _0x2DA
000cdb 940e 128c 	CALL SUBOPT_0x2C
                +
000cdd 5f0f     +SUBI R16 , LOW ( - 1 )
000cde 4f1f     +SBCI R17 , HIGH ( - 1 )
                 	__ADDWRN 16,17,1
000cdf cff7      	RJMP _0x2D9
                 _0x2DA:
                 ; 0000 0435 pidbit(2,5,2,2);
000ce0 940e 135d 	CALL SUBOPT_0x50
000ce2 940e 136c 	CALL SUBOPT_0x53
000ce4 940e 12e2 	CALL SUBOPT_0x39
                 ; 0000 0436    pidbit(1,6,fast,1);
000ce6 e0e6      	LDI  R30,LOW(6)
000ce7 93ea      	ST   -Y,R30
000ce8 940e 1221 	CALL SUBOPT_0x19
000cea d9e9      	RCALL _pidbit
                 ; 0000 0437    delay_ms(1000);
000ceb 940e 1216 	CALL SUBOPT_0x17
                 ; 0000 0438    jalan(maju,200,maju,200,200);
000ced 940e 12aa 	CALL SUBOPT_0x30
000cef 940e 12aa 	CALL SUBOPT_0x30
000cf1 940e 12af 	CALL SUBOPT_0x31
                 ; 0000 0439    pidbit(1,6,normal,1);
000cf3 940e 12fa 	CALL SUBOPT_0x3E
000cf5 940e 12c4 	CALL SUBOPT_0x35
000cf7 940e 1362 	CALL SUBOPT_0x51
                 ; 0000 043A    for(i=0;i<10;i++) {delay_ms(100); bip;}
                 _0x2DC:
                +
000cf9 300a     +CPI R16 , LOW ( 10 )
000cfa e0e0     +LDI R30 , HIGH ( 10 )
000cfb 071e     +CPC R17 , R30
                 	__CPWRN 16,17,10
000cfc f46c      	BRGE _0x2DD
000cfd 940e 119a 	CALL SUBOPT_0x1
000cff 940e 13c0 	CALL _delay_ms
000d01 98af      	CBI  0x15,7
000d02 940e 119a 	CALL SUBOPT_0x1
000d04 940e 13c0 	CALL _delay_ms
000d06 9aaf      	SBI  0x15,7
                +
000d07 5f0f     +SUBI R16 , LOW ( - 1 )
000d08 4f1f     +SBCI R17 , HIGH ( - 1 )
                 	__ADDWRN 16,17,1
000d09 cfef      	RJMP _0x2DC
                 _0x2DD:
                 ; 0000 043B 
                 ; 0000 043C }
000d0a 940e 1462 	CALL __LOADLOCR4
000d0c c219      	RJMP _0x2080004
                 ;
                 ;void pilih_start()
                 ; 0000 043F {
                 _pilih_start:
                 ; 0000 0440     lcd_clear();
000d0d 940e 10e4 	CALL _lcd_clear
                 ; 0000 0441     lcd_putsf("  Masukan Mode ");
                +
000d0f e3e1     +LDI R30 , LOW ( 2 * _0x0 + ( 187 ) )
000d10 e0f1     +LDI R31 , HIGH ( 2 * _0x0 + ( 187 ) )
                 	__POINTW1FN _0x0,187
000d11 940e 11ba 	CALL SUBOPT_0x7
                 ; 0000 0442     lcd_putsf("     Start     ");
                +
000d13 e4e1     +LDI R30 , LOW ( 2 * _0x0 + ( 203 ) )
000d14 e0f1     +LDI R31 , HIGH ( 2 * _0x0 + ( 203 ) )
                 	__POINTW1FN _0x0,203
000d15 940e 11ba 	CALL SUBOPT_0x7
                 ; 0000 0443     while(key>5)
                 _0x2E2:
000d17 e0e5      	LDI  R30,LOW(5)
000d18 15e5      	CP   R30,R5
000d19 f4d0      	BRSH _0x2E4
                 ; 0000 0444     {
                 ; 0000 0445         key=keypad();
000d1a 940e 0190 	CALL _keypad
000d1c 2e5e      	MOV  R5,R30
                 ; 0000 0446         if(key==1 || key==4) pilihstart=0;
000d1d e0e1      	LDI  R30,LOW(1)
000d1e 15e5      	CP   R30,R5
000d1f f019      	BREQ _0x2E6
000d20 e0e4      	LDI  R30,LOW(4)
000d21 15e5      	CP   R30,R5
000d22 f429      	BRNE _0x2E5
                 _0x2E6:
000d23 e1a4      	LDI  R26,LOW(_pilihstart)
000d24 e0b0      	LDI  R27,HIGH(_pilihstart)
000d25 e0e0      	LDI  R30,LOW(0)
000d26 940e 1448 	CALL __EEPROMWRB
                 ; 0000 0447         if(key==2 || key==3) pilihstart=1;
                 _0x2E5:
000d28 e0e2      	LDI  R30,LOW(2)
000d29 15e5      	CP   R30,R5
000d2a f019      	BREQ _0x2E9
000d2b e0e3      	LDI  R30,LOW(3)
000d2c 15e5      	CP   R30,R5
000d2d f429      	BRNE _0x2E8
                 _0x2E9:
000d2e e1a4      	LDI  R26,LOW(_pilihstart)
000d2f e0b0      	LDI  R27,HIGH(_pilihstart)
000d30 e0e1      	LDI  R30,LOW(1)
000d31 940e 1448 	CALL __EEPROMWRB
                 ; 0000 0448     }
                 _0x2E8:
000d33 cfe3      	RJMP _0x2E2
                 _0x2E4:
                 ; 0000 0449     lcd_clear();
000d34 940e 10e4 	CALL _lcd_clear
                 ; 0000 044A     lcd_putsf(" Alhamdulillah ");
                +
000d36 e5e1     +LDI R30 , LOW ( 2 * _0x0 + ( 219 ) )
000d37 e0f1     +LDI R31 , HIGH ( 2 * _0x0 + ( 219 ) )
                 	__POINTW1FN _0x0,219
000d38 940e 11ba 	CALL SUBOPT_0x7
                 ; 0000 044B     delay_ms(500);
000d3a 940e 119f 	CALL SUBOPT_0x2
                 ; 0000 044C     lcd_clear();
000d3c 940e 10e4 	CALL _lcd_clear
                 ; 0000 044D     key=kosong;
000d3e e7eb      	LDI  R30,LOW(123)
000d3f 2e5e      	MOV  R5,R30
                 ; 0000 044E }
000d40 9508      	RET
                 ;
                 ;void menulama()
                 ; 0000 0451 {
                 _menulama:
                 ; 0000 0452     while(key!=12)
                 _0x2EB:
000d41 e0ec      	LDI  R30,LOW(12)
000d42 15e5      	CP   R30,R5
000d43 f411      	BRNE PC+3
000d44 940c 0e35 	JMP _0x2ED
                 ; 0000 0453     {
                 ; 0000 0454         key=keypad();
000d46 940e 0190 	CALL _keypad
000d48 2e5e      	MOV  R5,R30
                 ; 0000 0455         if(key==1)
000d49 e0e1      	LDI  R30,LOW(1)
000d4a 15e5      	CP   R30,R5
000d4b f469      	BRNE _0x2EE
                 ; 0000 0456         {
                 ; 0000 0457             lcd_clear();
000d4c 940e 10e4 	CALL _lcd_clear
                 ; 0000 0458             lcd_puts(" Masukan CheckP ");
                +
000d4e e6e0     +LDI R30 , LOW ( _0x2EF + ( 0 ) )
000d4f e0f1     +LDI R31 , HIGH ( _0x2EF + ( 0 ) )
                 	__POINTW1MN _0x2EF,0
000d50 940e 1378 	CALL SUBOPT_0x56
                 ; 0000 0459             delay_ms(500);
                 ; 0000 045A             key=inkeypad();
000d52 940e 01dc 	CALL _inkeypad
000d54 2e5e      	MOV  R5,R30
                 ; 0000 045B             program_lintasan2(key);
000d55 925a      	ST   -Y,R5
000d56 da0e      	RCALL _program_lintasan2
                 ; 0000 045C             key=kosong;
000d57 e7eb      	LDI  R30,LOW(123)
000d58 2e5e      	MOV  R5,R30
                 ; 0000 045D 
                 ; 0000 045E 
                 ; 0000 045F         }
                 ; 0000 0460         while(key==3) kalibrasi();
                 _0x2EE:
                 _0x2F0:
000d59 e0e3      	LDI  R30,LOW(3)
000d5a 15e5      	CP   R30,R5
000d5b f419      	BRNE _0x2F2
000d5c 940e 035c 	CALL _kalibrasi
000d5e cffa      	RJMP _0x2F0
                 _0x2F2:
                 ; 0000 0461 if(key==2)
000d5f e0e2      	LDI  R30,LOW(2)
000d60 15e5      	CP   R30,R5
000d61 f469      	BRNE _0x2F3
                 ; 0000 0462         {
                 ; 0000 0463             lcd_clear();
000d62 940e 10e4 	CALL _lcd_clear
                 ; 0000 0464             while(key!=12)
                 _0x2F4:
000d64 e0ec      	LDI  R30,LOW(12)
000d65 15e5      	CP   R30,R5
000d66 f031      	BREQ _0x2F6
                 ; 0000 0465             {
                 ; 0000 0466                 key=keypad();
000d67 940e 0190 	CALL _keypad
000d69 2e5e      	MOV  R5,R30
                 ; 0000 0467                 cetak_sensor();
000d6a 940e 03fa 	CALL _cetak_sensor
                 ; 0000 0468             }
000d6c cff7      	RJMP _0x2F4
                 _0x2F6:
                 ; 0000 0469             lcd_clear();
000d6d 940e 10e4 	CALL _lcd_clear
                 ; 0000 046A         }
                 ; 0000 046B         if(key==5) {lcd_clear(); cek_adc();}
                 _0x2F3:
000d6f e0e5      	LDI  R30,LOW(5)
000d70 15e5      	CP   R30,R5
000d71 f421      	BRNE _0x2F7
000d72 940e 10e4 	CALL _lcd_clear
000d74 940e 045d 	CALL _cek_adc
                 ; 0000 046C         if(key==4) {delay_ms(300); set_baca();}
                 _0x2F7:
000d76 e0e4      	LDI  R30,LOW(4)
000d77 15e5      	CP   R30,R5
000d78 f421      	BRNE _0x2F8
000d79 940e 124e 	CALL SUBOPT_0x22
000d7b 940e 043e 	CALL _set_baca
                 ; 0000 046D         if(key==6) {
                 _0x2F8:
000d7d e0e6      	LDI  R30,LOW(6)
000d7e 15e5      	CP   R30,R5
000d7f f469      	BRNE _0x2F9
                 ; 0000 046E             lcd_clear();
000d80 940e 10e4 	CALL _lcd_clear
                 ; 0000 046F             lcd_puts(" Masukan CheckP ");
                +
000d82 e7e1     +LDI R30 , LOW ( _0x2EF + ( 17 ) )
000d83 e0f1     +LDI R31 , HIGH ( _0x2EF + ( 17 ) )
                 	__POINTW1MN _0x2EF,17
000d84 940e 1378 	CALL SUBOPT_0x56
                 ; 0000 0470             delay_ms(500);
                 ; 0000 0471             key=inkeypad();
000d86 940e 01dc 	CALL _inkeypad
000d88 2e5e      	MOV  R5,R30
                 ; 0000 0472             program_lintasan1(key);
000d89 925a      	ST   -Y,R5
000d8a dca7      	RCALL _program_lintasan1
                 ; 0000 0473             key=kosong;
000d8b e7eb      	LDI  R30,LOW(123)
000d8c 2e5e      	MOV  R5,R30
                 ; 0000 0474 
                 ; 0000 0475 
                 ; 0000 0476         }
                 ; 0000 0477          //program_masukhitam();
                 ; 0000 0478         if(key==7) {
                 _0x2F9:
000d8d e0e7      	LDI  R30,LOW(7)
000d8e 15e5      	CP   R30,R5
000d8f f011      	BREQ PC+3
000d90 940c 0de1 	JMP _0x2FA
                 ; 0000 0479             delay_ms(300);
000d92 940e 124e 	CALL SUBOPT_0x22
                 ; 0000 047A             lcd_clear();
000d94 940e 10e4 	CALL _lcd_clear
                 ; 0000 047B             lcd_puts("   MOTOR KIRI   ");
                +
000d96 e8e2     +LDI R30 , LOW ( _0x2EF + ( 34 ) )
000d97 e0f1     +LDI R31 , HIGH ( _0x2EF + ( 34 ) )
                 	__POINTW1MN _0x2EF,34
000d98 940e 137d 	CALL SUBOPT_0x57
                 ; 0000 047C             lcd_puts("1:Maju  2:Mundur");
                +
000d9a e9e3     +LDI R30 , LOW ( _0x2EF + ( 51 ) )
000d9b e0f1     +LDI R31 , HIGH ( _0x2EF + ( 51 ) )
                 	__POINTW1MN _0x2EF,51
000d9c 940e 137d 	CALL SUBOPT_0x57
                 ; 0000 047D             key2=inkeypad();
000d9e 940e 01dc 	CALL _inkeypad
000da0 2e4e      	MOV  R4,R30
                 ; 0000 047E             if(key2==1) in_arah_kiri=maju;
000da1 e0e1      	LDI  R30,LOW(1)
000da2 15e4      	CP   R30,R4
000da3 f411      	BRNE _0x2FB
000da4 2466      	CLR  R6
                 ; 0000 047F             else in_arah_kiri=mundur;
000da5 c002      	RJMP _0x2FC
                 _0x2FB:
000da6 e0e1      	LDI  R30,LOW(1)
000da7 2e6e      	MOV  R6,R30
                 ; 0000 0480 
                 ; 0000 0481             lcd_clear();
                 _0x2FC:
000da8 940e 10e4 	CALL _lcd_clear
                 ; 0000 0482             lcd_puts("Speed : ");
                +
000daa eae4     +LDI R30 , LOW ( _0x2EF + ( 68 ) )
000dab e0f1     +LDI R31 , HIGH ( _0x2EF + ( 68 ) )
                 	__POINTW1MN _0x2EF,68
000dac 940e 137d 	CALL SUBOPT_0x57
                 ; 0000 0483             in_kec_kiri=inputnilai(8);
000dae 940e 1381 	CALL SUBOPT_0x58
000db0 2e9e      	MOV  R9,R30
                 ; 0000 0484 
                 ; 0000 0485             lcd_clear();
000db1 940e 10e4 	CALL _lcd_clear
                 ; 0000 0486             lcd_puts("  MOTOR  KANAN  ");
                +
000db3 eaed     +LDI R30 , LOW ( _0x2EF + ( 77 ) )
000db4 e0f1     +LDI R31 , HIGH ( _0x2EF + ( 77 ) )
                 	__POINTW1MN _0x2EF,77
000db5 940e 137d 	CALL SUBOPT_0x57
                 ; 0000 0487             lcd_puts("1:Maju  2:Mundur");
                +
000db7 ebee     +LDI R30 , LOW ( _0x2EF + ( 94 ) )
000db8 e0f1     +LDI R31 , HIGH ( _0x2EF + ( 94 ) )
                 	__POINTW1MN _0x2EF,94
000db9 940e 137d 	CALL SUBOPT_0x57
                 ; 0000 0488             key2=inkeypad();
000dbb 940e 01dc 	CALL _inkeypad
000dbd 2e4e      	MOV  R4,R30
                 ; 0000 0489             if(key2==1) in_arah_kanan=maju;
000dbe e0e1      	LDI  R30,LOW(1)
000dbf 15e4      	CP   R30,R4
000dc0 f411      	BRNE _0x2FD
000dc1 2488      	CLR  R8
                 ; 0000 048A             else in_arah_kanan=mundur;
000dc2 c002      	RJMP _0x2FE
                 _0x2FD:
000dc3 e0e1      	LDI  R30,LOW(1)
000dc4 2e8e      	MOV  R8,R30
                 ; 0000 048B 
                 ; 0000 048C             lcd_clear();
                 _0x2FE:
000dc5 940e 10e4 	CALL _lcd_clear
                 ; 0000 048D             lcd_puts("Speed : ");
                +
000dc7 ecef     +LDI R30 , LOW ( _0x2EF + ( 111 ) )
000dc8 e0f1     +LDI R31 , HIGH ( _0x2EF + ( 111 ) )
                 	__POINTW1MN _0x2EF,111
000dc9 940e 137d 	CALL SUBOPT_0x57
                 ; 0000 048E             in_kec_kanan=inputnilai(8);
000dcb 940e 1381 	CALL SUBOPT_0x58
000dcd 2ebe      	MOV  R11,R30
                 ; 0000 048F 
                 ; 0000 0490             lcd_clear();
000dce 940e 10e4 	CALL _lcd_clear
                 ; 0000 0491             lcd_puts("Delay : ");
                +
000dd0 ede8     +LDI R30 , LOW ( _0x2EF + ( 120 ) )
000dd1 e0f1     +LDI R31 , HIGH ( _0x2EF + ( 120 ) )
                 	__POINTW1MN _0x2EF,120
000dd2 940e 137d 	CALL SUBOPT_0x57
                 ; 0000 0492             delay_belok=inputnilai(8);
000dd4 940e 1381 	CALL SUBOPT_0x58
000dd6 2eae      	MOV  R10,R30
                 ; 0000 0493 
                 ; 0000 0494             lcd_clear();
000dd7 940e 10e4 	CALL _lcd_clear
                 ; 0000 0495             jalan(in_arah_kiri,in_kec_kiri,in_arah_kanan,in_kec_kanan,delay_belok);
000dd9 926a      	ST   -Y,R6
000dda 929a      	ST   -Y,R9
000ddb 928a      	ST   -Y,R8
000ddc 92ba      	ST   -Y,R11
000ddd 2dea      	MOV  R30,R10
000dde e0f0      	LDI  R31,0
000ddf 940e 12c0 	CALL SUBOPT_0x34
                 ; 0000 0496         }
                 ; 0000 0497         if(key==8) {lcd_clear(); while(1) {pid2(150,23,15);}}
                 _0x2FA:
000de1 e0e8      	LDI  R30,LOW(8)
000de2 15e5      	CP   R30,R5
000de3 f429      	BRNE _0x2FF
000de4 940e 10e4 	CALL _lcd_clear
                 _0x300:
000de6 940e 128c 	CALL SUBOPT_0x2C
000de8 cffd      	RJMP _0x300
                 ; 0000 0498         if(key==9) {
                 _0x2FF:
000de9 e0e9      	LDI  R30,LOW(9)
000dea 15e5      	CP   R30,R5
000deb f5f1      	BRNE _0x303
                 ; 0000 0499             delay_ms(300);
000dec 940e 124e 	CALL SUBOPT_0x22
                 ; 0000 049A             lcd_clear(); lcd_puts("Speed : ");
000dee 940e 10e4 	CALL _lcd_clear
                +
000df0 eee1     +LDI R30 , LOW ( _0x2EF + ( 129 ) )
000df1 e0f1     +LDI R31 , HIGH ( _0x2EF + ( 129 ) )
                 	__POINTW1MN _0x2EF,129
000df2 940e 137d 	CALL SUBOPT_0x57
                 ; 0000 049B             inkec=inputnilai(7);
000df4 e0e7      	LDI  R30,LOW(7)
000df5 93ea      	ST   -Y,R30
000df6 940e 01f9 	CALL _inputnilai
000df8 e1a1      	LDI  R26,LOW(_inkec)
000df9 e0b0      	LDI  R27,HIGH(_inkec)
000dfa 940e 1448 	CALL __EEPROMWRB
                 ; 0000 049C             lcd_clear(); lcd_puts("KP : ");
000dfc 940e 10e4 	CALL _lcd_clear
                +
000dfe eeea     +LDI R30 , LOW ( _0x2EF + ( 138 ) )
000dff e0f1     +LDI R31 , HIGH ( _0x2EF + ( 138 ) )
                 	__POINTW1MN _0x2EF,138
000e00 940e 137d 	CALL SUBOPT_0x57
                 ; 0000 049D             inkp=inputnilai(5);
000e02 e0e5      	LDI  R30,LOW(5)
000e03 93ea      	ST   -Y,R30
000e04 940e 01f9 	CALL _inputnilai
000e06 e1a2      	LDI  R26,LOW(_inkp)
000e07 e0b0      	LDI  R27,HIGH(_inkp)
000e08 940e 1448 	CALL __EEPROMWRB
                 ; 0000 049E             lcd_clear(); lcd_puts("KD : ");
000e0a 940e 10e4 	CALL _lcd_clear
                +
000e0c efe0     +LDI R30 , LOW ( _0x2EF + ( 144 ) )
000e0d e0f1     +LDI R31 , HIGH ( _0x2EF + ( 144 ) )
                 	__POINTW1MN _0x2EF,144
000e0e 940e 137d 	CALL SUBOPT_0x57
                 ; 0000 049F             inkd=inputnilai(5);
000e10 e0e5      	LDI  R30,LOW(5)
000e11 93ea      	ST   -Y,R30
000e12 940e 01f9 	CALL _inputnilai
000e14 e1a3      	LDI  R26,LOW(_inkd)
000e15 e0b0      	LDI  R27,HIGH(_inkd)
000e16 940e 1448 	CALL __EEPROMWRB
                 ; 0000 04A0             while(1) pid2(inkec,inkp,inkd);
                 _0x304:
000e18 e1a1      	LDI  R26,LOW(_inkec)
000e19 e0b0      	LDI  R27,HIGH(_inkec)
000e1a 940e 1434 	CALL __EEPROMRDB
000e1c 93ea      	ST   -Y,R30
000e1d e1a2      	LDI  R26,LOW(_inkp)
000e1e e0b0      	LDI  R27,HIGH(_inkp)
000e1f 940e 1434 	CALL __EEPROMRDB
000e21 93ea      	ST   -Y,R30
000e22 e1a3      	LDI  R26,LOW(_inkd)
000e23 e0b0      	LDI  R27,HIGH(_inkd)
000e24 940e 1434 	CALL __EEPROMRDB
000e26 93ea      	ST   -Y,R30
000e27 940e 0499 	CALL _pid2
000e29 cfee      	RJMP _0x304
                 ; 0000 04A2 }
                 ; 0000 04A3         if(key==0) {motor_ki(maju,255); motor_ka(maju,255);}
                 _0x303:
000e2a 2055      	TST  R5
000e2b f441      	BRNE _0x307
000e2c 940e 1367 	CALL SUBOPT_0x52
000e2e 940e 0275 	CALL _motor_ki
000e30 940e 1367 	CALL SUBOPT_0x52
000e32 940e 0289 	CALL _motor_ka
                 ; 0000 04A4 
                 ; 0000 04A5     }
                 _0x307:
000e34 cf0c      	RJMP _0x2EB
                 _0x2ED:
                 ; 0000 04A6 }
000e35 9508      	RET
                 
                 	.DSEG
                 _0x2EF:
000160           	.BYTE 0x96
                 ;
                 ;void menubaru()
                 ; 0000 04A9 {
                 
                 	.CSEG
                 _menubaru:
                 ; 0000 04AA     while(1)
                 _0x308:
                 ; 0000 04AB     {
                 ; 0000 04AC         lcd_gotoxy(0,0);
000e36 e0e0      	LDI  R30,LOW(0)
000e37 940e 11a5 	CALL SUBOPT_0x3
                 ; 0000 04AD         lcd_putsf("   Bismillah    ");
                +
000e39 ece3     +LDI R30 , LOW ( 2 * _0x0 + ( 333 ) )
000e3a e0f1     +LDI R31 , HIGH ( 2 * _0x0 + ( 333 ) )
                 	__POINTW1FN _0x0,333
000e3b 940e 11ba 	CALL SUBOPT_0x7
                 ; 0000 04AE         if(pilihstart==0) lcd_putsf("Mode Start : 1/4");
000e3d e1a4      	LDI  R26,LOW(_pilihstart)
000e3e e0b0      	LDI  R27,HIGH(_pilihstart)
000e3f 940e 1434 	CALL __EEPROMRDB
000e41 30e0      	CPI  R30,0
000e42 f419      	BRNE _0x30B
                +
000e43 ede4     +LDI R30 , LOW ( 2 * _0x0 + ( 350 ) )
000e44 e0f1     +LDI R31 , HIGH ( 2 * _0x0 + ( 350 ) )
                 	__POINTW1FN _0x0,350
000e45 c002      	RJMP _0x332
                 ; 0000 04AF         else lcd_putsf("Mode Start : 2/3");
                 _0x30B:
                +
000e46 eee5     +LDI R30 , LOW ( 2 * _0x0 + ( 367 ) )
000e47 e0f1     +LDI R31 , HIGH ( 2 * _0x0 + ( 367 ) )
                 	__POINTW1FN _0x0,367
                 _0x332:
000e48 93fa      	ST   -Y,R31
000e49 93ea      	ST   -Y,R30
000e4a 940e 1129 	CALL _lcd_putsf
                 ; 0000 04B0 
                 ; 0000 04B1         key=keypad();
000e4c 940e 0190 	CALL _keypad
000e4e 2e5e      	MOV  R5,R30
                 ; 0000 04B2         if(key>=0 && key <=5)
000e4f e0e0      	LDI  R30,LOW(0)
000e50 165e      	CP   R5,R30
000e51 f018      	BRLO _0x30E
000e52 e0e5      	LDI  R30,LOW(5)
000e53 15e5      	CP   R30,R5
000e54 f408      	BRSH _0x30F
                 _0x30E:
000e55 c00d      	RJMP _0x30D
                 _0x30F:
                 ; 0000 04B3         {
                 ; 0000 04B4             if(pilihstart == 0) program_lintasan1(key);
000e56 e1a4      	LDI  R26,LOW(_pilihstart)
000e57 e0b0      	LDI  R27,HIGH(_pilihstart)
000e58 940e 1434 	CALL __EEPROMRDB
000e5a 30e0      	CPI  R30,0
000e5b f419      	BRNE _0x310
000e5c 925a      	ST   -Y,R5
000e5d dbd4      	RCALL _program_lintasan1
                 ; 0000 04B5             else program_lintasan2(key);
000e5e c002      	RJMP _0x311
                 _0x310:
000e5f 925a      	ST   -Y,R5
000e60 d904      	RCALL _program_lintasan2
                 ; 0000 04B6             key=kosong;
                 _0x311:
000e61 e7eb      	LDI  R30,LOW(123)
000e62 2e5e      	MOV  R5,R30
                 ; 0000 04B7         }
                 ; 0000 04B8         if(key==6)
                 _0x30D:
000e63 e0e6      	LDI  R30,LOW(6)
000e64 15e5      	CP   R30,R5
000e65 f419      	BRNE _0x312
                 ; 0000 04B9         {
                 ; 0000 04BA             delay_ms(500);
000e66 940e 119f 	CALL SUBOPT_0x2
                 ; 0000 04BB             menulama();
000e68 ded8      	RCALL _menulama
                 ; 0000 04BC         }
                 ; 0000 04BD         if(key==7)
                 _0x312:
000e69 e0e7      	LDI  R30,LOW(7)
000e6a 15e5      	CP   R30,R5
000e6b f411      	BRNE _0x313
                 ; 0000 04BE         {
                 ; 0000 04BF             kalibrasi();
000e6c 940e 035c 	CALL _kalibrasi
                 ; 0000 04C0 
                 ; 0000 04C1         }
                 ; 0000 04C2         if(key==8)
                 _0x313:
000e6e e0e8      	LDI  R30,LOW(8)
000e6f 15e5      	CP   R30,R5
000e70 f469      	BRNE _0x314
                 ; 0000 04C3         {
                 ; 0000 04C4             lcd_clear();
000e71 940e 10e4 	CALL _lcd_clear
                 ; 0000 04C5             while(key!=12)
                 _0x315:
000e73 e0ec      	LDI  R30,LOW(12)
000e74 15e5      	CP   R30,R5
000e75 f031      	BREQ _0x317
                 ; 0000 04C6             {
                 ; 0000 04C7                 key=keypad();
000e76 940e 0190 	CALL _keypad
000e78 2e5e      	MOV  R5,R30
                 ; 0000 04C8                 cetak_sensor();
000e79 940e 03fa 	CALL _cetak_sensor
                 ; 0000 04C9             }
000e7b cff7      	RJMP _0x315
                 _0x317:
                 ; 0000 04CA             lcd_clear();
000e7c 940e 10e4 	CALL _lcd_clear
                 ; 0000 04CB         }
                 ; 0000 04CC         if(key==9)
                 _0x314:
000e7e e0e9      	LDI  R30,LOW(9)
000e7f 15e5      	CP   R30,R5
000e80 f409      	BRNE _0x318
                 ; 0000 04CD         {
                 ; 0000 04CE             pilih_start();
000e81 de8b      	RCALL _pilih_start
                 ; 0000 04CF         }
                 ; 0000 04D0 
                 ; 0000 04D1     }
                 _0x318:
000e82 cfb3      	RJMP _0x308
                 ; 0000 04D2 }
                 ;
                 ;// Declare your global variables here
                 ;void main(void)
                 ; 0000 04D6 {
                 _main:
                 ; 0000 04D7 // Declare your local variables here
                 ; 0000 04D8 
                 ; 0000 04D9 // Input/Output Ports initialization
                 ; 0000 04DA // Port A initialization
                 ; 0000 04DB // Func7=In Func6=In Func5=In Func4=In Func3=In Func2=In Func1=In Func0=In
                 ; 0000 04DC // State7=T State6=T State5=T State4=T State3=T State2=T State1=T State0=T
                 ; 0000 04DD PORTA=0x00;
000e83 e0e0      	LDI  R30,LOW(0)
000e84 bbeb      	OUT  0x1B,R30
                 ; 0000 04DE DDRA=0x00;
000e85 bbea      	OUT  0x1A,R30
                 ; 0000 04DF 
                 ; 0000 04E0 // Port B initialization
                 ; 0000 04E1 // Func7=In Func6=In Func5=In Func4=In Func3=In Func2=In Func1=In Func0=In
                 ; 0000 04E2 // State7=T State6=T State5=T State4=T State3=T State2=T State1=T State0=T
                 ; 0000 04E3 PORTB=0x00;
000e86 bbe8      	OUT  0x18,R30
                 ; 0000 04E4 DDRB=0x00;
000e87 bbe7      	OUT  0x17,R30
                 ; 0000 04E5 
                 ; 0000 04E6 // Port C initialization
                 ; 0000 04E7 // Func7=Out Func6=Out Func5=Out Func4=In Func3=Out Func2=In Func1=Out Func0=In
                 ; 0000 04E8 // State7=1 State6=1 State5=1 State4=P State3=1 State2=P State1=1 State0=P
                 ; 0000 04E9 PORTC=0xFF;
000e88 efef      	LDI  R30,LOW(255)
000e89 bbe5      	OUT  0x15,R30
                 ; 0000 04EA DDRC=0b11101010;
000e8a eeea      	LDI  R30,LOW(234)
000e8b bbe4      	OUT  0x14,R30
                 ; 0000 04EB 
                 ; 0000 04EC // Port D initialization
                 ; 0000 04ED // Func7=Out Func6=Out Func5=Out Func4=In Func3=Out Func2=In Func1=Out Func0=In
                 ; 0000 04EE // State7=1 State6=1 State5=1 State4=P State3=1 State2=P State1=1 State0=P
                 ; 0000 04EF PORTD=0x0C;
000e8c e0ec      	LDI  R30,LOW(12)
000e8d bbe2      	OUT  0x12,R30
                 ; 0000 04F0 DDRD=0xF3;
000e8e efe3      	LDI  R30,LOW(243)
000e8f bbe1      	OUT  0x11,R30
                 ; 0000 04F1 
                 ; 0000 04F2 // Timer/Counter 0 initialization
                 ; 0000 04F3 // Clock source: System Clock
                 ; 0000 04F4 // Clock value: Timer 0 Stopped
                 ; 0000 04F5 // Mode: Normal top=FFh
                 ; 0000 04F6 // OC0 output: Disconnected
                 ; 0000 04F7 TCCR0=0x00;
000e90 e0e0      	LDI  R30,LOW(0)
000e91 bfe3      	OUT  0x33,R30
                 ; 0000 04F8 TCNT0=0x00;
000e92 bfe2      	OUT  0x32,R30
                 ; 0000 04F9 OCR0=0x00;
000e93 bfec      	OUT  0x3C,R30
                 ; 0000 04FA // Timer/Counter 1 initialization
                 ; 0000 04FB // Clock source: System Clock
                 ; 0000 04FC // Clock value: 15,625 kHz
                 ; 0000 04FD // Mode: Fast PWM top=0x00FF
                 ; 0000 04FE // OC1A output: Non-Inv.
                 ; 0000 04FF // OC1B output: Non-Inv.
                 ; 0000 0500 // Noise Canceler: Off
                 ; 0000 0501 // Input Capture on Falling Edge
                 ; 0000 0502 // Timer1 Overflow Interrupt: Off
                 ; 0000 0503 // Input Capture Interrupt: Off
                 ; 0000 0504 // Compare A Match Interrupt: Off
                 ; 0000 0505 // Compare B Match Interrupt: Off
                 ; 0000 0506 TCCR1A=0xA1;
000e94 eae1      	LDI  R30,LOW(161)
000e95 bdef      	OUT  0x2F,R30
                 ; 0000 0507 TCCR1B=0x0D;
000e96 e0ed      	LDI  R30,LOW(13)
000e97 bdee      	OUT  0x2E,R30
                 ; 0000 0508 TCNT1H=0x00;
000e98 e0e0      	LDI  R30,LOW(0)
000e99 bded      	OUT  0x2D,R30
                 ; 0000 0509 TCNT1L=0x00;
000e9a bdec      	OUT  0x2C,R30
                 ; 0000 050A ICR1H=0x00;
000e9b bde7      	OUT  0x27,R30
                 ; 0000 050B ICR1L=0x00;
000e9c bde6      	OUT  0x26,R30
                 ; 0000 050C OCR1AH=0x00;
000e9d bdeb      	OUT  0x2B,R30
                 ; 0000 050D OCR1AL=0x00;
000e9e bdea      	OUT  0x2A,R30
                 ; 0000 050E OCR1BH=0x00;
000e9f bde9      	OUT  0x29,R30
                 ; 0000 050F OCR1BL=0x00;
000ea0 bde8      	OUT  0x28,R30
                 ; 0000 0510 
                 ; 0000 0511 // Timer/Counter 2 initialization
                 ; 0000 0512 // Clock source: System Clock
                 ; 0000 0513 // Clock value: Timer 2 Stopped
                 ; 0000 0514 // Mode: Normal top=FFh
                 ; 0000 0515 // OC2 output: Disconnected
                 ; 0000 0516 ASSR=0x00;
000ea1 bde2      	OUT  0x22,R30
                 ; 0000 0517 TCCR2=0x00;
000ea2 bde5      	OUT  0x25,R30
                 ; 0000 0518 TCNT2=0x00;
000ea3 bde4      	OUT  0x24,R30
                 ; 0000 0519 OCR2=0x00;
000ea4 bde3      	OUT  0x23,R30
                 ; 0000 051A 
                 ; 0000 051B // External Interrupt(s) initialization
                 ; 0000 051C // INT0: Off
                 ; 0000 051D // INT1: Off
                 ; 0000 051E // INT2: Off
                 ; 0000 051F MCUCR=0x00;
000ea5 bfe5      	OUT  0x35,R30
                 ; 0000 0520 MCUCSR=0x00;
000ea6 bfe4      	OUT  0x34,R30
                 ; 0000 0521 
                 ; 0000 0522 // Timer(s)/Counter(s) Interrupt(s) initialization
                 ; 0000 0523 TIMSK=0x00;
000ea7 bfe9      	OUT  0x39,R30
                 ; 0000 0524 
                 ; 0000 0525 // Analog Comparator initialization
                 ; 0000 0526 // Analog Comparator: Off
                 ; 0000 0527 // Analog Comparator Input Capture by Timer/Counter 1: Off
                 ; 0000 0528 ACSR=0x80;
000ea8 e8e0      	LDI  R30,LOW(128)
000ea9 b9e8      	OUT  0x8,R30
                 ; 0000 0529 SFIOR=0x00;
000eaa e0e0      	LDI  R30,LOW(0)
000eab bfe0      	OUT  0x30,R30
                 ; 0000 052A 
                 ; 0000 052B // ADC initialization
                 ; 0000 052C // ADC Clock frequency: 691,200 kHz
                 ; 0000 052D // ADC Voltage Reference: AREF pin
                 ; 0000 052E // ADC Auto Trigger Source: ADC Stopped
                 ; 0000 052F // Only the 8 most significant bits of
                 ; 0000 0530 // the AD conversion result are used
                 ; 0000 0531 ADMUX=ADC_VREF_TYPE & 0xff;
000eac e2e0      	LDI  R30,LOW(32)
000ead b9e7      	OUT  0x7,R30
                 ; 0000 0532 ADCSRA=0x84;
000eae e8e4      	LDI  R30,LOW(132)
000eaf b9e6      	OUT  0x6,R30
                 ; 0000 0533 
                 ; 0000 0534 // LCD module initialization
                 ; 0000 0535 lcd_init(16);
000eb0 e1e0      	LDI  R30,LOW(16)
000eb1 93ea      	ST   -Y,R30
000eb2 940e 114a 	CALL _lcd_init
                 ; 0000 0536 
                 ; 0000 0537 
                 ; 0000 0538     lcd_gotoxy(0,0);
000eb4 e0e0      	LDI  R30,LOW(0)
000eb5 940e 11a5 	CALL SUBOPT_0x3
                 ; 0000 0539     lcd_putsf("ASSALAMUALAIKUM ");
                +
000eb7 efe6     +LDI R30 , LOW ( 2 * _0x0 + ( 384 ) )
000eb8 e0f1     +LDI R31 , HIGH ( 2 * _0x0 + ( 384 ) )
                 	__POINTW1FN _0x0,384
000eb9 940e 11ba 	CALL SUBOPT_0x7
                 ; 0000 053A     lcd_gotoxy(0,1);
000ebb e0e0      	LDI  R30,LOW(0)
000ebc 940e 1226 	CALL SUBOPT_0x1A
                 ; 0000 053B     lcd_putsf(" BISMILLAH :)  ");
                +
000ebe e0e7     +LDI R30 , LOW ( 2 * _0x0 + ( 401 ) )
000ebf e0f2     +LDI R31 , HIGH ( 2 * _0x0 + ( 401 ) )
                 	__POINTW1FN _0x0,401
000ec0 940e 11ba 	CALL SUBOPT_0x7
                 ; 0000 053C     delay_ms(500);
000ec2 940e 119f 	CALL SUBOPT_0x2
                 ; 0000 053D     lcd_clear();
000ec4 940e 1235 	CALL SUBOPT_0x1D
                 ; 0000 053E     delay_ms(200);
                 ; 0000 053F     lcd_gotoxy(0,0);
000ec6 e0e0      	LDI  R30,LOW(0)
000ec7 940e 11a5 	CALL SUBOPT_0x3
                 ; 0000 0540     lcd_putsf("    TOOTHLESS   ");
                +
000ec9 e1e7     +LDI R30 , LOW ( 2 * _0x0 + ( 417 ) )
000eca e0f2     +LDI R31 , HIGH ( 2 * _0x0 + ( 417 ) )
                 	__POINTW1FN _0x0,417
000ecb 940e 11ba 	CALL SUBOPT_0x7
                 ; 0000 0541     lcd_gotoxy(0,1);
000ecd e0e0      	LDI  R30,LOW(0)
000ece 940e 1226 	CALL SUBOPT_0x1A
                 ; 0000 0542     lcd_putsf("  Line Follower ");
                +
000ed0 e2e8     +LDI R30 , LOW ( 2 * _0x0 + ( 434 ) )
000ed1 e0f2     +LDI R31 , HIGH ( 2 * _0x0 + ( 434 ) )
                 	__POINTW1FN _0x0,434
000ed2 940e 11ba 	CALL SUBOPT_0x7
                 ; 0000 0543     delay_ms(500);
000ed4 940e 119f 	CALL SUBOPT_0x2
                 ; 0000 0544     lcd_clear();
000ed6 940e 10e4 	CALL _lcd_clear
                 ; 0000 0545     delay_ms(100);
000ed8 940e 119a 	CALL SUBOPT_0x1
000eda 940e 13c0 	CALL _delay_ms
                 ; 0000 0546     lcd_putsf("  Pilih   Menu  ");
                +
000edc e3e9     +LDI R30 , LOW ( 2 * _0x0 + ( 451 ) )
000edd e0f2     +LDI R31 , HIGH ( 2 * _0x0 + ( 451 ) )
                 	__POINTW1FN _0x0,451
000ede 940e 11ba 	CALL SUBOPT_0x7
                 ; 0000 0547     if(pilihstart==255) pilih_start();
000ee0 e1a4      	LDI  R26,LOW(_pilihstart)
000ee1 e0b0      	LDI  R27,HIGH(_pilihstart)
000ee2 940e 1434 	CALL __EEPROMRDB
000ee4 3fef      	CPI  R30,LOW(0xFF)
000ee5 f409      	BRNE _0x319
000ee6 de26      	RCALL _pilih_start
                 ; 0000 0548 
                 ; 0000 0549 
                 ; 0000 054A while (1)
                 _0x319:
                 _0x31A:
                 ; 0000 054B       {
                 ; 0000 054C         menubaru();
000ee7 df4e      	RCALL _menubaru
                 ; 0000 054D       }
000ee8 cffe      	RJMP _0x31A
                 ; 0000 054E }
                 _0x31D:
000ee9 cfff      	RJMP _0x31D
                 ;
                 	#ifndef __SLEEP_DEFINED__
                 	#endif
                 
                 	.CSEG
                 _put_buff_G100:
000eea 931a      	ST   -Y,R17
000eeb 930a      	ST   -Y,R16
000eec 81aa      	LDD  R26,Y+2
000eed 81bb      	LDD  R27,Y+2+1
000eee 9612      	ADIW R26,2
000eef 940e 1416 	CALL __GETW1P
000ef1 9730      	SBIW R30,0
000ef2 f159      	BREQ _0x2000010
000ef3 81aa      	LDD  R26,Y+2
000ef4 81bb      	LDD  R27,Y+2+1
000ef5 9614      	ADIW R26,4
000ef6 940e 1416 	CALL __GETW1P
000ef8 018f      	MOVW R16,R30
000ef9 9730      	SBIW R30,0
000efa f061      	BREQ _0x2000012
                +
000efb 3002     +CPI R16 , LOW ( 2 )
000efc e0e0     +LDI R30 , HIGH ( 2 )
000efd 071e     +CPC R17 , R30
                 	__CPWRN 16,17,2
000efe f0f0      	BRLO _0x2000013
000eff 01f8      	MOVW R30,R16
000f00 9731      	SBIW R30,1
000f01 018f      	MOVW R16,R30
                +
000f02 81aa     +LDD R26 , Y + 2
000f03 81bb     +LDD R27 , Y + 2 + 1
000f04 9614     +ADIW R26 , 4
000f05 93ed     +ST X + , R30
000f06 93fc     +ST X , R31
                 	__PUTW1SNS 2,4
                 _0x2000012:
000f07 81aa      	LDD  R26,Y+2
000f08 81bb      	LDD  R27,Y+2+1
000f09 9612      	ADIW R26,2
000f0a 91ed      	LD   R30,X+
000f0b 91fd      	LD   R31,X+
000f0c 9631      	ADIW R30,1
000f0d 93fe      	ST   -X,R31
000f0e 93ee      	ST   -X,R30
000f0f 9731      	SBIW R30,1
000f10 81ac      	LDD  R26,Y+4
000f11 83a0      	STD  Z+0,R26
000f12 81aa      	LDD  R26,Y+2
000f13 81bb      	LDD  R27,Y+2+1
000f14 940e 1416 	CALL __GETW1P
000f16 23ff      	TST  R31
000f17 f02a      	BRMI _0x2000014
000f18 91ed      	LD   R30,X+
000f19 91fd      	LD   R31,X+
000f1a 9631      	ADIW R30,1
000f1b 93fe      	ST   -X,R31
000f1c 93ee      	ST   -X,R30
                 _0x2000014:
                 _0x2000013:
000f1d c006      	RJMP _0x2000015
                 _0x2000010:
000f1e 81aa      	LDD  R26,Y+2
000f1f 81bb      	LDD  R27,Y+2+1
000f20 efef      	LDI  R30,LOW(65535)
000f21 efff      	LDI  R31,HIGH(65535)
000f22 93ed      	ST   X+,R30
000f23 93fc      	ST   X,R31
                 _0x2000015:
000f24 8119      	LDD  R17,Y+1
000f25 8108      	LDD  R16,Y+0
                 _0x2080004:
000f26 9625      	ADIW R28,5
000f27 9508      	RET
                 __print_G100:
000f28 9726      	SBIW R28,6
000f29 940e 1459 	CALL __SAVELOCR6
000f2b e010      	LDI  R17,0
000f2c 85ac      	LDD  R26,Y+12
000f2d 85bd      	LDD  R27,Y+12+1
000f2e e0e0      	LDI  R30,LOW(0)
000f2f e0f0      	LDI  R31,HIGH(0)
000f30 93ed      	ST   X+,R30
000f31 93fc      	ST   X,R31
                 _0x2000016:
000f32 89ea      	LDD  R30,Y+18
000f33 89fb      	LDD  R31,Y+18+1
000f34 9631      	ADIW R30,1
000f35 8bea      	STD  Y+18,R30
000f36 8bfb      	STD  Y+18+1,R31
000f37 9731      	SBIW R30,1
000f38 91e4      	LPM  R30,Z
000f39 2f2e      	MOV  R18,R30
000f3a 30e0      	CPI  R30,0
000f3b f411      	BRNE PC+3
000f3c 940c 1055 	JMP _0x2000018
000f3e 2fe1      	MOV  R30,R17
000f3f 30e0      	CPI  R30,0
000f40 f439      	BRNE _0x200001C
000f41 3225      	CPI  R18,37
000f42 f411      	BRNE _0x200001D
000f43 e011      	LDI  R17,LOW(1)
000f44 c002      	RJMP _0x200001E
                 _0x200001D:
000f45 940e 1385 	CALL SUBOPT_0x59
                 _0x200001E:
000f47 c10c      	RJMP _0x200001B
                 _0x200001C:
000f48 30e1      	CPI  R30,LOW(0x1)
000f49 f4a9      	BRNE _0x200001F
000f4a 3225      	CPI  R18,37
000f4b f419      	BRNE _0x2000020
000f4c 940e 1385 	CALL SUBOPT_0x59
000f4e c104      	RJMP _0x20000C9
                 _0x2000020:
000f4f e012      	LDI  R17,LOW(2)
000f50 e040      	LDI  R20,LOW(0)
000f51 e000      	LDI  R16,LOW(0)
000f52 322d      	CPI  R18,45
000f53 f411      	BRNE _0x2000021
000f54 e001      	LDI  R16,LOW(1)
000f55 c0fe      	RJMP _0x200001B
                 _0x2000021:
000f56 322b      	CPI  R18,43
000f57 f411      	BRNE _0x2000022
000f58 e24b      	LDI  R20,LOW(43)
000f59 c0fa      	RJMP _0x200001B
                 _0x2000022:
000f5a 3220      	CPI  R18,32
000f5b f411      	BRNE _0x2000023
000f5c e240      	LDI  R20,LOW(32)
000f5d c0f6      	RJMP _0x200001B
                 _0x2000023:
000f5e c002      	RJMP _0x2000024
                 _0x200001F:
000f5f 30e2      	CPI  R30,LOW(0x2)
000f60 f439      	BRNE _0x2000025
                 _0x2000024:
000f61 e050      	LDI  R21,LOW(0)
000f62 e013      	LDI  R17,LOW(3)
000f63 3320      	CPI  R18,48
000f64 f411      	BRNE _0x2000026
000f65 6800      	ORI  R16,LOW(128)
000f66 c0ed      	RJMP _0x200001B
                 _0x2000026:
000f67 c004      	RJMP _0x2000027
                 _0x2000025:
000f68 30e3      	CPI  R30,LOW(0x3)
000f69 f011      	BREQ PC+3
000f6a 940c 1054 	JMP _0x200001B
                 _0x2000027:
000f6c 3320      	CPI  R18,48
000f6d f010      	BRLO _0x200002A
000f6e 332a      	CPI  R18,58
000f6f f008      	BRLO _0x200002B
                 _0x200002A:
000f70 c007      	RJMP _0x2000029
                 _0x200002B:
000f71 e0aa      	LDI  R26,LOW(10)
000f72 9f5a      	MUL  R21,R26
000f73 2d50      	MOV  R21,R0
000f74 2fe2      	MOV  R30,R18
000f75 53e0      	SUBI R30,LOW(48)
000f76 0f5e      	ADD  R21,R30
000f77 c0dc      	RJMP _0x200001B
                 _0x2000029:
000f78 2fe2      	MOV  R30,R18
000f79 36e3      	CPI  R30,LOW(0x63)
000f7a f449      	BRNE _0x200002F
000f7b 940e 138e 	CALL SUBOPT_0x5A
000f7d 89e8      	LDD  R30,Y+16
000f7e 89f9      	LDD  R31,Y+16+1
000f7f 81a4      	LDD  R26,Z+4
000f80 93aa      	ST   -Y,R26
000f81 940e 1394 	CALL SUBOPT_0x5B
000f83 c0cf      	RJMP _0x2000030
                 _0x200002F:
000f84 37e3      	CPI  R30,LOW(0x73)
000f85 f441      	BRNE _0x2000032
000f86 940e 138e 	CALL SUBOPT_0x5A
000f88 940e 139c 	CALL SUBOPT_0x5C
000f8a 940e 117f 	CALL _strlen
000f8c 2f1e      	MOV  R17,R30
000f8d c00a      	RJMP _0x2000033
                 _0x2000032:
000f8e 37e0      	CPI  R30,LOW(0x70)
000f8f f461      	BRNE _0x2000035
000f90 940e 138e 	CALL SUBOPT_0x5A
000f92 940e 139c 	CALL SUBOPT_0x5C
000f94 940e 1189 	CALL _strlenf
000f96 2f1e      	MOV  R17,R30
000f97 6008      	ORI  R16,LOW(8)
                 _0x2000033:
000f98 6002      	ORI  R16,LOW(2)
000f99 770f      	ANDI R16,LOW(127)
000f9a e030      	LDI  R19,LOW(0)
000f9b c035      	RJMP _0x2000036
                 _0x2000035:
000f9c 36e4      	CPI  R30,LOW(0x64)
000f9d f011      	BREQ _0x2000039
000f9e 36e9      	CPI  R30,LOW(0x69)
000f9f f411      	BRNE _0x200003A
                 _0x2000039:
000fa0 6004      	ORI  R16,LOW(4)
000fa1 c002      	RJMP _0x200003B
                 _0x200003A:
000fa2 37e5      	CPI  R30,LOW(0x75)
000fa3 f431      	BRNE _0x200003C
                 _0x200003B:
000fa4 e5e4      	LDI  R30,LOW(_tbl10_G100*2)
000fa5 e0f0      	LDI  R31,HIGH(_tbl10_G100*2)
000fa6 83ee      	STD  Y+6,R30
000fa7 83ff      	STD  Y+6+1,R31
000fa8 e015      	LDI  R17,LOW(5)
000fa9 c00d      	RJMP _0x200003D
                 _0x200003C:
000faa 35e8      	CPI  R30,LOW(0x58)
000fab f411      	BRNE _0x200003F
000fac 6008      	ORI  R16,LOW(8)
000fad c004      	RJMP _0x2000040
                 _0x200003F:
000fae 37e8      	CPI  R30,LOW(0x78)
000faf f011      	BREQ PC+3
000fb0 940c 1053 	JMP _0x2000071
                 _0x2000040:
000fb2 e5ee      	LDI  R30,LOW(_tbl16_G100*2)
000fb3 e0f0      	LDI  R31,HIGH(_tbl16_G100*2)
000fb4 83ee      	STD  Y+6,R30
000fb5 83ff      	STD  Y+6+1,R31
000fb6 e014      	LDI  R17,LOW(4)
                 _0x200003D:
000fb7 ff02      	SBRS R16,2
000fb8 c014      	RJMP _0x2000042
000fb9 940e 138e 	CALL SUBOPT_0x5A
000fbb 940e 13a6 	CALL SUBOPT_0x5D
000fbd 85ab      	LDD  R26,Y+11
000fbe 23aa      	TST  R26
000fbf f43a      	BRPL _0x2000043
000fc0 85ea      	LDD  R30,Y+10
000fc1 85fb      	LDD  R31,Y+10+1
000fc2 940e 13d5 	CALL __ANEGW1
000fc4 87ea      	STD  Y+10,R30
000fc5 87fb      	STD  Y+10+1,R31
000fc6 e24d      	LDI  R20,LOW(45)
                 _0x2000043:
000fc7 3040      	CPI  R20,0
000fc8 f011      	BREQ _0x2000044
000fc9 5f1f      	SUBI R17,-LOW(1)
000fca c001      	RJMP _0x2000045
                 _0x2000044:
000fcb 7f0b      	ANDI R16,LOW(251)
                 _0x2000045:
000fcc c004      	RJMP _0x2000046
                 _0x2000042:
000fcd 940e 138e 	CALL SUBOPT_0x5A
000fcf 940e 13a6 	CALL SUBOPT_0x5D
                 _0x2000046:
                 _0x2000036:
000fd1 fd00      	SBRC R16,0
000fd2 c011      	RJMP _0x2000047
                 _0x2000048:
000fd3 1715      	CP   R17,R21
000fd4 f478      	BRSH _0x200004A
000fd5 ff07      	SBRS R16,7
000fd6 c008      	RJMP _0x200004B
000fd7 ff02      	SBRS R16,2
000fd8 c004      	RJMP _0x200004C
000fd9 7f0b      	ANDI R16,LOW(251)
000fda 2f24      	MOV  R18,R20
000fdb 5011      	SUBI R17,LOW(1)
000fdc c001      	RJMP _0x200004D
                 _0x200004C:
000fdd e320      	LDI  R18,LOW(48)
                 _0x200004D:
000fde c001      	RJMP _0x200004E
                 _0x200004B:
000fdf e220      	LDI  R18,LOW(32)
                 _0x200004E:
000fe0 940e 1385 	CALL SUBOPT_0x59
000fe2 5051      	SUBI R21,LOW(1)
000fe3 cfef      	RJMP _0x2000048
                 _0x200004A:
                 _0x2000047:
000fe4 2f31      	MOV  R19,R17
000fe5 ff01      	SBRS R16,1
000fe6 c017      	RJMP _0x200004F
                 _0x2000050:
000fe7 3030      	CPI  R19,0
000fe8 f0a1      	BREQ _0x2000052
000fe9 ff03      	SBRS R16,3
000fea c006      	RJMP _0x2000053
000feb 81ee      	LDD  R30,Y+6
000fec 81ff      	LDD  R31,Y+6+1
000fed 9125      	LPM  R18,Z+
000fee 83ee      	STD  Y+6,R30
000fef 83ff      	STD  Y+6+1,R31
000ff0 c005      	RJMP _0x2000054
                 _0x2000053:
000ff1 81ae      	LDD  R26,Y+6
000ff2 81bf      	LDD  R27,Y+6+1
000ff3 912d      	LD   R18,X+
000ff4 83ae      	STD  Y+6,R26
000ff5 83bf      	STD  Y+6+1,R27
                 _0x2000054:
000ff6 940e 1385 	CALL SUBOPT_0x59
000ff8 3050      	CPI  R21,0
000ff9 f009      	BREQ _0x2000055
000ffa 5051      	SUBI R21,LOW(1)
                 _0x2000055:
000ffb 5031      	SUBI R19,LOW(1)
000ffc cfea      	RJMP _0x2000050
                 _0x2000052:
000ffd c04b      	RJMP _0x2000056
                 _0x200004F:
                 _0x2000058:
000ffe e320      	LDI  R18,LOW(48)
000fff 81ee      	LDD  R30,Y+6
001000 81ff      	LDD  R31,Y+6+1
001001 940e 141a 	CALL __GETW1PF
001003 87e8      	STD  Y+8,R30
001004 87f9      	STD  Y+8+1,R31
001005 81ee      	LDD  R30,Y+6
001006 81ff      	LDD  R31,Y+6+1
001007 9632      	ADIW R30,2
001008 83ee      	STD  Y+6,R30
001009 83ff      	STD  Y+6+1,R31
                 _0x200005A:
00100a 85e8      	LDD  R30,Y+8
00100b 85f9      	LDD  R31,Y+8+1
00100c 85aa      	LDD  R26,Y+10
00100d 85bb      	LDD  R27,Y+10+1
00100e 17ae      	CP   R26,R30
00100f 07bf      	CPC  R27,R31
001010 f050      	BRLO _0x200005C
001011 5f2f      	SUBI R18,-LOW(1)
001012 85a8      	LDD  R26,Y+8
001013 85b9      	LDD  R27,Y+8+1
001014 85ea      	LDD  R30,Y+10
001015 85fb      	LDD  R31,Y+10+1
001016 1bea      	SUB  R30,R26
001017 0bfb      	SBC  R31,R27
001018 87ea      	STD  Y+10,R30
001019 87fb      	STD  Y+10+1,R31
00101a cfef      	RJMP _0x200005A
                 _0x200005C:
00101b 332a      	CPI  R18,58
00101c f028      	BRLO _0x200005D
00101d ff03      	SBRS R16,3
00101e c002      	RJMP _0x200005E
00101f 5f29      	SUBI R18,-LOW(7)
001020 c001      	RJMP _0x200005F
                 _0x200005E:
001021 5d29      	SUBI R18,-LOW(39)
                 _0x200005F:
                 _0x200005D:
001022 fd04      	SBRC R16,4
001023 c01a      	RJMP _0x2000061
001024 3321      	CPI  R18,49
001025 f420      	BRSH _0x2000063
001026 85a8      	LDD  R26,Y+8
001027 85b9      	LDD  R27,Y+8+1
001028 9711      	SBIW R26,1
001029 f409      	BRNE _0x2000062
                 _0x2000063:
00102a c009      	RJMP _0x20000CA
                 _0x2000062:
00102b 1753      	CP   R21,R19
00102c f010      	BRLO _0x2000067
00102d ff00      	SBRS R16,0
00102e c001      	RJMP _0x2000068
                 _0x2000067:
00102f c013      	RJMP _0x2000066
                 _0x2000068:
001030 e220      	LDI  R18,LOW(32)
001031 ff07      	SBRS R16,7
001032 c00b      	RJMP _0x2000069
001033 e320      	LDI  R18,LOW(48)
                 _0x20000CA:
001034 6100      	ORI  R16,LOW(16)
001035 ff02      	SBRS R16,2
001036 c007      	RJMP _0x200006A
001037 7f0b      	ANDI R16,LOW(251)
001038 934a      	ST   -Y,R20
001039 940e 1394 	CALL SUBOPT_0x5B
00103b 3050      	CPI  R21,0
00103c f009      	BREQ _0x200006B
00103d 5051      	SUBI R21,LOW(1)
                 _0x200006B:
                 _0x200006A:
                 _0x2000069:
                 _0x2000061:
00103e 940e 1385 	CALL SUBOPT_0x59
001040 3050      	CPI  R21,0
001041 f009      	BREQ _0x200006C
001042 5051      	SUBI R21,LOW(1)
                 _0x200006C:
                 _0x2000066:
001043 5031      	SUBI R19,LOW(1)
001044 85a8      	LDD  R26,Y+8
001045 85b9      	LDD  R27,Y+8+1
001046 9712      	SBIW R26,2
001047 f008      	BRLO _0x2000059
001048 cfb5      	RJMP _0x2000058
                 _0x2000059:
                 _0x2000056:
001049 ff00      	SBRS R16,0
00104a c008      	RJMP _0x200006D
                 _0x200006E:
00104b 3050      	CPI  R21,0
00104c f031      	BREQ _0x2000070
00104d 5051      	SUBI R21,LOW(1)
00104e e2e0      	LDI  R30,LOW(32)
00104f 93ea      	ST   -Y,R30
001050 940e 1394 	CALL SUBOPT_0x5B
001052 cff8      	RJMP _0x200006E
                 _0x2000070:
                 _0x200006D:
                 _0x2000071:
                 _0x2000030:
                 _0x20000C9:
001053 e010      	LDI  R17,LOW(0)
                 _0x200001B:
001054 cedd      	RJMP _0x2000016
                 _0x2000018:
001055 85ac      	LDD  R26,Y+12
001056 85bd      	LDD  R27,Y+12+1
001057 940e 1416 	CALL __GETW1P
001059 940e 1460 	CALL __LOADLOCR6
00105b 9664      	ADIW R28,20
00105c 9508      	RET
                 _sprintf:
00105d 92ff      	PUSH R15
00105e 2ef8      	MOV  R15,R24
00105f 9726      	SBIW R28,6
001060 940e 145b 	CALL __SAVELOCR4
001062 940e 13ae 	CALL SUBOPT_0x5E
001064 9730      	SBIW R30,0
001065 f419      	BRNE _0x2000072
001066 efef      	LDI  R30,LOW(65535)
001067 efff      	LDI  R31,HIGH(65535)
001068 c025      	RJMP _0x2080003
                 _0x2000072:
001069 01de      	MOVW R26,R28
00106a 9616      	ADIW R26,6
00106b 940e 13cc 	CALL __ADDW2R15
00106d 018d      	MOVW R16,R26
00106e 940e 13ae 	CALL SUBOPT_0x5E
001070 83ee      	STD  Y+6,R30
001071 83ff      	STD  Y+6+1,R31
001072 e0e0      	LDI  R30,LOW(0)
001073 87e8      	STD  Y+8,R30
001074 87e9      	STD  Y+8+1,R30
001075 01de      	MOVW R26,R28
001076 961a      	ADIW R26,10
001077 940e 13cc 	CALL __ADDW2R15
001079 940e 1416 	CALL __GETW1P
00107b 93fa      	ST   -Y,R31
00107c 93ea      	ST   -Y,R30
00107d 931a      	ST   -Y,R17
00107e 930a      	ST   -Y,R16
00107f eeea      	LDI  R30,LOW(_put_buff_G100)
001080 e0fe      	LDI  R31,HIGH(_put_buff_G100)
001081 93fa      	ST   -Y,R31
001082 93ea      	ST   -Y,R30
001083 01fe      	MOVW R30,R28
001084 963a      	ADIW R30,10
001085 93fa      	ST   -Y,R31
001086 93ea      	ST   -Y,R30
001087 dea0      	RCALL __print_G100
001088 019f      	MOVW R18,R30
001089 81ae      	LDD  R26,Y+6
00108a 81bf      	LDD  R27,Y+6+1
00108b e0e0      	LDI  R30,LOW(0)
00108c 93ec      	ST   X,R30
00108d 01f9      	MOVW R30,R18
                 _0x2080003:
00108e 940e 1462 	CALL __LOADLOCR4
001090 962a      	ADIW R28,10
001091 90ff      	POP  R15
001092 9508      	RET
                     .equ __lcd_direction=__lcd_port-1
                     .equ __lcd_pin=__lcd_port-2
                     .equ __lcd_rs=0
                     .equ __lcd_rd=1
                     .equ __lcd_enable=2
                     .equ __lcd_busy_flag=7
                 
                 	.DSEG
                 
                 	.CSEG
                 __lcd_delay_G101:
001093 e0ff          ldi   r31,15
                 __lcd_delay0:
001094 95fa          dec   r31
001095 f7f1          brne  __lcd_delay0
001096 9508      	RET
                 __lcd_ready:
001097 b3a7          in    r26,__lcd_direction
001098 70af          andi  r26,0xf                 ;set as input
001099 bba7          out   __lcd_direction,r26
00109a 9ac1          sbi   __lcd_port,__lcd_rd     ;RD=1
00109b 98c0          cbi   __lcd_port,__lcd_rs     ;RS=0
                 __lcd_busy:
00109c dff6      	RCALL __lcd_delay_G101
00109d 9ac2          sbi   __lcd_port,__lcd_enable ;EN=1
00109e dff4      	RCALL __lcd_delay_G101
00109f b3a6          in    r26,__lcd_pin
0010a0 98c2          cbi   __lcd_port,__lcd_enable ;EN=0
0010a1 dff1      	RCALL __lcd_delay_G101
0010a2 9ac2          sbi   __lcd_port,__lcd_enable ;EN=1
0010a3 dfef      	RCALL __lcd_delay_G101
0010a4 98c2          cbi   __lcd_port,__lcd_enable ;EN=0
0010a5 fda7          sbrc  r26,__lcd_busy_flag
0010a6 cff5          rjmp  __lcd_busy
0010a7 9508      	RET
                 __lcd_write_nibble_G101:
0010a8 7fa0          andi  r26,0xf0
0010a9 2bab          or    r26,r27
0010aa bba8          out   __lcd_port,r26          ;write
0010ab 9ac2          sbi   __lcd_port,__lcd_enable ;EN=1
0010ac 940e 1093 	CALL __lcd_delay_G101
0010ae 98c2          cbi   __lcd_port,__lcd_enable ;EN=0
0010af 940e 1093 	CALL __lcd_delay_G101
0010b1 9508      	RET
                 __lcd_write_data:
0010b2 98c1          cbi  __lcd_port,__lcd_rd 	  ;RD=0
0010b3 b3a7          in    r26,__lcd_direction
0010b4 6fa7          ori   r26,0xf0 | (1<<__lcd_rs) | (1<<__lcd_rd) | (1<<__lcd_enable) ;set as output
0010b5 bba7          out   __lcd_direction,r26
0010b6 b3b8          in    r27,__lcd_port
0010b7 70bf          andi  r27,0xf
0010b8 81a8          ld    r26,y
0010b9 dfee      	RCALL __lcd_write_nibble_G101
0010ba 81a8          ld    r26,y
0010bb 95a2          swap  r26
0010bc dfeb      	RCALL __lcd_write_nibble_G101
0010bd 9ac1          sbi   __lcd_port,__lcd_rd     ;RD=1
0010be 940c 117d 	JMP  _0x2080001
                 __lcd_read_nibble_G101:
0010c0 9ac2          sbi   __lcd_port,__lcd_enable ;EN=1
0010c1 940e 1093 	CALL __lcd_delay_G101
0010c3 b3e6          in    r30,__lcd_pin           ;read
0010c4 98c2          cbi   __lcd_port,__lcd_enable ;EN=0
0010c5 940e 1093 	CALL __lcd_delay_G101
0010c7 7fe0          andi  r30,0xf0
0010c8 9508      	RET
                 _lcd_read_byte0_G101:
0010c9 940e 1093 	CALL __lcd_delay_G101
0010cb dff4      	RCALL __lcd_read_nibble_G101
0010cc 2fae          mov   r26,r30
0010cd dff2      	RCALL __lcd_read_nibble_G101
0010ce 98c1          cbi   __lcd_port,__lcd_rd     ;RD=0
0010cf 95e2          swap  r30
0010d0 2bea          or    r30,r26
0010d1 9508      	RET
                 _lcd_gotoxy:
0010d2 940e 1097 	CALL __lcd_ready
0010d4 940e 11be 	CALL SUBOPT_0x8
0010d6 5de0      	SUBI R30,LOW(-__base_y_G101)
0010d7 4ffd      	SBCI R31,HIGH(-__base_y_G101)
0010d8 81e0      	LD   R30,Z
0010d9 81a9      	LDD  R26,Y+1
0010da 0fea      	ADD  R30,R26
0010db 93ea      	ST   -Y,R30
0010dc 940e 10b2 	CALL __lcd_write_data
0010de 80c9      	LDD  R12,Y+1
0010df 81e8      	LD   R30,Y
0010e0 93e0 0234 	STS  __lcd_y,R30
0010e2 9622      	ADIW R28,2
0010e3 9508      	RET
                 _lcd_clear:
0010e4 940e 1097 	CALL __lcd_ready
0010e6 e0e2      	LDI  R30,LOW(2)
0010e7 93ea      	ST   -Y,R30
0010e8 940e 10b2 	CALL __lcd_write_data
0010ea 940e 1097 	CALL __lcd_ready
0010ec e0ec      	LDI  R30,LOW(12)
0010ed 93ea      	ST   -Y,R30
0010ee 940e 10b2 	CALL __lcd_write_data
0010f0 940e 1097 	CALL __lcd_ready
0010f2 e0e1      	LDI  R30,LOW(1)
0010f3 93ea      	ST   -Y,R30
0010f4 940e 10b2 	CALL __lcd_write_data
0010f6 e0e0      	LDI  R30,LOW(0)
0010f7 93e0 0234 	STS  __lcd_y,R30
0010f9 2ece      	MOV  R12,R30
0010fa 9508      	RET
                 _lcd_putchar:
0010fb 93ef          push r30
0010fc 93ff          push r31
0010fd 81a8          ld   r26,y
0010fe 9468          set
0010ff 30aa          cpi  r26,10
001100 f029          breq __lcd_putchar1
001101 94e8          clt
001102 91e0 0235 	LDS  R30,__lcd_maxx
001104 16ce      	CP   R12,R30
001105 f060      	BRLO _0x2020004
                 	__lcd_putchar1:
001106 91e0 0234 	LDS  R30,__lcd_y
001108 5fef      	SUBI R30,-LOW(1)
001109 93e0 0234 	STS  __lcd_y,R30
00110b e0e0      	LDI  R30,LOW(0)
00110c 93ea      	ST   -Y,R30
00110d 91e0 0234 	LDS  R30,__lcd_y
00110f 93ea      	ST   -Y,R30
001110 dfc1      	RCALL _lcd_gotoxy
001111 f036      	brts __lcd_putchar0
                 _0x2020004:
001112 94c3      	INC  R12
001113 df83          rcall __lcd_ready
001114 9ac0          sbi  __lcd_port,__lcd_rs ;RS=1
001115 81a8          ld   r26,y
001116 93aa          st   -y,r26
001117 df9a          rcall __lcd_write_data
                 __lcd_putchar0:
001118 91ff          pop  r31
001119 91ef          pop  r30
00111a 940c 117d 	JMP  _0x2080001
                 _lcd_puts:
00111c 931a      	ST   -Y,R17
                 _0x2020005:
00111d 81a9      	LDD  R26,Y+1
00111e 81ba      	LDD  R27,Y+1+1
00111f 91ed      	LD   R30,X+
001120 83a9      	STD  Y+1,R26
001121 83ba      	STD  Y+1+1,R27
001122 2f1e      	MOV  R17,R30
001123 30e0      	CPI  R30,0
001124 f019      	BREQ _0x2020007
001125 931a      	ST   -Y,R17
001126 dfd4      	RCALL _lcd_putchar
001127 cff5      	RJMP _0x2020005
                 _0x2020007:
001128 c00e      	RJMP _0x2080002
                 _lcd_putsf:
001129 931a      	ST   -Y,R17
                 _0x2020008:
00112a 81e9      	LDD  R30,Y+1
00112b 81fa      	LDD  R31,Y+1+1
00112c 9631      	ADIW R30,1
00112d 83e9      	STD  Y+1,R30
00112e 83fa      	STD  Y+1+1,R31
00112f 9731      	SBIW R30,1
001130 91e4      	LPM  R30,Z
001131 2f1e      	MOV  R17,R30
001132 30e0      	CPI  R30,0
001133 f019      	BREQ _0x202000A
001134 931a      	ST   -Y,R17
001135 dfc5      	RCALL _lcd_putchar
001136 cff3      	RJMP _0x2020008
                 _0x202000A:
                 _0x2080002:
001137 8118      	LDD  R17,Y+0
001138 9623      	ADIW R28,3
001139 9508      	RET
                 __long_delay_G101:
00113a 27aa          clr   r26
00113b 27bb          clr   r27
                 __long_delay0:
00113c 9711          sbiw  r26,1         ;2 cycles
00113d f7f1          brne  __long_delay0 ;2 cycles
00113e 9508      	RET
                 __lcd_init_write_G101:
00113f 98c1          cbi  __lcd_port,__lcd_rd 	  ;RD=0
001140 b3a7          in    r26,__lcd_direction
001141 6fa7          ori   r26,0xf7                ;set as output
001142 bba7          out   __lcd_direction,r26
001143 b3b8          in    r27,__lcd_port
001144 70bf          andi  r27,0xf
001145 81a8          ld    r26,y
001146 940e 10a8 	CALL __lcd_write_nibble_G101
001148 9ac1          sbi   __lcd_port,__lcd_rd     ;RD=1
001149 c033      	RJMP _0x2080001
                 _lcd_init:
00114a 98c2          cbi   __lcd_port,__lcd_enable ;EN=0
00114b 98c0          cbi   __lcd_port,__lcd_rs     ;RS=0
00114c 81e8      	LD   R30,Y
00114d 93e0 0235 	STS  __lcd_maxx,R30
00114f 58e0      	SUBI R30,-LOW(128)
                +
001150 93e0 0232+STS __base_y_G101 + ( 2 ) , R30
                 	__PUTB1MN __base_y_G101,2
001152 81e8      	LD   R30,Y
001153 54e0      	SUBI R30,-LOW(192)
                +
001154 93e0 0233+STS __base_y_G101 + ( 3 ) , R30
                 	__PUTB1MN __base_y_G101,3
001156 940e 13b5 	CALL SUBOPT_0x5F
001158 940e 13b5 	CALL SUBOPT_0x5F
00115a 940e 13b5 	CALL SUBOPT_0x5F
00115c dfdd      	RCALL __long_delay_G101
00115d e2e0      	LDI  R30,LOW(32)
00115e 93ea      	ST   -Y,R30
00115f dfdf      	RCALL __lcd_init_write_G101
001160 dfd9      	RCALL __long_delay_G101
001161 e2e8      	LDI  R30,LOW(40)
001162 940e 13bb 	CALL SUBOPT_0x60
001164 e0e4      	LDI  R30,LOW(4)
001165 940e 13bb 	CALL SUBOPT_0x60
001167 e8e5      	LDI  R30,LOW(133)
001168 940e 13bb 	CALL SUBOPT_0x60
00116a b3a7          in    r26,__lcd_direction
00116b 70af          andi  r26,0xf                 ;set as input
00116c bba7          out   __lcd_direction,r26
00116d 9ac1          sbi   __lcd_port,__lcd_rd     ;RD=1
00116e 940e 10c9 	CALL _lcd_read_byte0_G101
001170 30e5      	CPI  R30,LOW(0x5)
001171 f011      	BREQ _0x202000B
001172 e0e0      	LDI  R30,LOW(0)
001173 c009      	RJMP _0x2080001
                 _0x202000B:
001174 940e 1097 	CALL __lcd_ready
001176 e0e6      	LDI  R30,LOW(6)
001177 93ea      	ST   -Y,R30
001178 940e 10b2 	CALL __lcd_write_data
00117a 940e 10e4 	CALL _lcd_clear
00117c e0e1      	LDI  R30,LOW(1)
                 _0x2080001:
00117d 9621      	ADIW R28,1
00117e 9508      	RET
                 
                 	.CSEG
                 
                 	.CSEG
                 _strlen:
00117f 91a9          ld   r26,y+
001180 91b9          ld   r27,y+
001181 27ee          clr  r30
001182 27ff          clr  r31
                 strlen0:
001183 916d          ld   r22,x+
001184 2366          tst  r22
001185 f011          breq strlen1
001186 9631          adiw r30,1
001187 cffb          rjmp strlen0
                 strlen1:
001188 9508          ret
                 _strlenf:
001189 27aa          clr  r26
00118a 27bb          clr  r27
00118b 91e9          ld   r30,y+
00118c 91f9          ld   r31,y+
                 strlenf0:
00118d 9005      	lpm  r0,z+
00118e 2000          tst  r0
00118f f011          breq strlenf1
001190 9611          adiw r26,1
001191 cffb          rjmp strlenf0
                 strlenf1:
001192 01fd          movw r30,r26
001193 9508          ret
                 
                 	.DSEG
                 _buf:
0001f6           	.BYTE 0x3
                 _buf2:
0001f9           	.BYTE 0x5
                 _buf3:
0001fe           	.BYTE 0x10
                 _data_sensor:
00020e           	.BYTE 0x8
                 _data_gelap:
000216           	.BYTE 0x8
                 _data_terang:
00021e           	.BYTE 0x8
                 
                 	.ESEG
                 _data_ref:
000000 78
000001 00
000002 78
000003 00        	.DB  LOW(0x780078),HIGH(0x780078),BYTE3(0x780078),BYTE4(0x780078)
000004 78
000005 00
000006 78
000007 00        	.DB  LOW(0x780078),HIGH(0x780078),BYTE3(0x780078),BYTE4(0x780078)
000008 78
000009 00
00000a 78
00000b 00        	.DB  LOW(0x780078),HIGH(0x780078),BYTE3(0x780078),BYTE4(0x780078)
00000c 78
00000d 00
00000e 78
00000f 00        	.DB  LOW(0x780078),HIGH(0x780078),BYTE3(0x780078),BYTE4(0x780078)
                 _gt:
000010 00        	.DB  0x0
                 _inkec:
000011           	.BYTE 0x1
                 _inkp:
000012           	.BYTE 0x1
                 _inkd:
000013           	.BYTE 0x1
                 _pilihstart:
000014           	.BYTE 0x1
                 
                 	.DSEG
                 _s:
000226           	.BYTE 0x8
                 _last_error:
00022e           	.BYTE 0x2
                 __base_y_G101:
000230           	.BYTE 0x4
                 __lcd_y:
000234           	.BYTE 0x1
                 __lcd_maxx:
000235           	.BYTE 0x1
                 
                 	.CSEG
                 ;OPTIMIZER ADDED SUBROUTINE, CALLED 7 TIMES, CODE SIZE REDUCTION:21 WORDS
                 SUBOPT_0x0:
001194 e0e1      	LDI  R30,LOW(1)
001195 e0f0      	LDI  R31,HIGH(1)
001196 93fa      	ST   -Y,R31
001197 93ea      	ST   -Y,R30
001198 940c 13c0 	JMP  _delay_ms
                 
                 ;OPTIMIZER ADDED SUBROUTINE, CALLED 19 TIMES, CODE SIZE REDUCTION:33 WORDS
                 SUBOPT_0x1:
00119a e6e4      	LDI  R30,LOW(100)
00119b e0f0      	LDI  R31,HIGH(100)
00119c 93fa      	ST   -Y,R31
00119d 93ea      	ST   -Y,R30
00119e 9508      	RET
                 
                 ;OPTIMIZER ADDED SUBROUTINE, CALLED 8 TIMES, CODE SIZE REDUCTION:25 WORDS
                 SUBOPT_0x2:
00119f efe4      	LDI  R30,LOW(500)
0011a0 e0f1      	LDI  R31,HIGH(500)
0011a1 93fa      	ST   -Y,R31
0011a2 93ea      	ST   -Y,R30
0011a3 940c 13c0 	JMP  _delay_ms
                 
                 ;OPTIMIZER ADDED SUBROUTINE, CALLED 7 TIMES, CODE SIZE REDUCTION:15 WORDS
                 SUBOPT_0x3:
0011a5 93ea      	ST   -Y,R30
0011a6 e0e0      	LDI  R30,LOW(0)
0011a7 93ea      	ST   -Y,R30
0011a8 940c 10d2 	JMP  _lcd_gotoxy
                 
                 ;OPTIMIZER ADDED SUBROUTINE, CALLED 4 TIMES, CODE SIZE REDUCTION:3 WORDS
                 SUBOPT_0x4:
0011aa efe9      	LDI  R30,LOW(_buf2)
0011ab e0f1      	LDI  R31,HIGH(_buf2)
0011ac 93fa      	ST   -Y,R31
0011ad 93ea      	ST   -Y,R30
0011ae 9508      	RET
                 
                 ;OPTIMIZER ADDED SUBROUTINE, CALLED 9 TIMES, CODE SIZE REDUCTION:21 WORDS
                 SUBOPT_0x5:
0011af 27ff      	CLR  R31
0011b0 2766      	CLR  R22
0011b1 2777      	CLR  R23
0011b2 940e 141e 	CALL __PUTPARD1
0011b4 9508      	RET
                 
                 ;OPTIMIZER ADDED SUBROUTINE, CALLED 2 TIMES, CODE SIZE REDUCTION:1 WORDS
                 SUBOPT_0x6:
0011b5 e084      	LDI  R24,4
0011b6 940e 105d 	CALL _sprintf
0011b8 9628      	ADIW R28,8
0011b9 cff0      	RJMP SUBOPT_0x4
                 
                 ;OPTIMIZER ADDED SUBROUTINE, CALLED 20 TIMES, CODE SIZE REDUCTION:35 WORDS
                 SUBOPT_0x7:
0011ba 93fa      	ST   -Y,R31
0011bb 93ea      	ST   -Y,R30
0011bc 940c 1129 	JMP  _lcd_putsf
                 
                 ;OPTIMIZER ADDED SUBROUTINE, CALLED 5 TIMES, CODE SIZE REDUCTION:5 WORDS
                 SUBOPT_0x8:
0011be 81e8      	LD   R30,Y
0011bf e0f0      	LDI  R31,0
0011c0 9508      	RET
                 
                 ;OPTIMIZER ADDED SUBROUTINE, CALLED 2 TIMES, CODE SIZE REDUCTION:1 WORDS
                 SUBOPT_0x9:
0011c1 efaf      	LDI  R26,LOW(255)
0011c2 e0b0      	LDI  R27,HIGH(255)
0011c3 940e 1429 	CALL __SWAPW12
0011c5 1bea      	SUB  R30,R26
0011c6 0bfb      	SBC  R31,R27
0011c7 9508      	RET
                 
                 ;OPTIMIZER ADDED SUBROUTINE, CALLED 2 TIMES, CODE SIZE REDUCTION:6 WORDS
                 SUBOPT_0xA:
0011c8 93ea      	ST   -Y,R30
0011c9 81eb      	LDD  R30,Y+3
0011ca 93ea      	ST   -Y,R30
0011cb 940e 0289 	CALL _motor_ka
0011cd 81e8      	LD   R30,Y
0011ce 81f9      	LDD  R31,Y+1
0011cf 93fa      	ST   -Y,R31
0011d0 93ea      	ST   -Y,R30
0011d1 940c 13c0 	JMP  _delay_ms
                 
                 ;OPTIMIZER ADDED SUBROUTINE, CALLED 6 TIMES, CODE SIZE REDUCTION:7 WORDS
                 SUBOPT_0xB:
0011d3 e0e0      	LDI  R30,LOW(0)
0011d4 93ea      	ST   -Y,R30
0011d5 93ea      	ST   -Y,R30
0011d6 9508      	RET
                 
                 ;OPTIMIZER ADDED SUBROUTINE, CALLED 3 TIMES, CODE SIZE REDUCTION:1 WORDS
                 SUBOPT_0xC:
0011d7 93fa      	ST   -Y,R31
0011d8 93ea      	ST   -Y,R30
0011d9 940c 029d 	JMP  _jalan_mundur
                 
                 ;OPTIMIZER ADDED SUBROUTINE, CALLED 9 TIMES, CODE SIZE REDUCTION:13 WORDS
                 SUBOPT_0xD:
0011db 93fa      	ST   -Y,R31
0011dc 93ea      	ST   -Y,R30
0011dd 940c 02a6 	JMP  _stop
                 
                 ;OPTIMIZER ADDED SUBROUTINE, CALLED 3 TIMES, CODE SIZE REDUCTION:1 WORDS
                 SUBOPT_0xE:
0011df e0e5      	LDI  R30,LOW(5)
0011e0 e0f0      	LDI  R31,HIGH(5)
0011e1 cff9      	RJMP SUBOPT_0xD
                 
                 ;OPTIMIZER ADDED SUBROUTINE, CALLED 3 TIMES, CODE SIZE REDUCTION:1 WORDS
                 SUBOPT_0xF:
0011e2 e0e1      	LDI  R30,LOW(1)
0011e3 e0f0      	LDI  R31,HIGH(1)
0011e4 cff6      	RJMP SUBOPT_0xD
                 
                 ;OPTIMIZER ADDED SUBROUTINE, CALLED 5 TIMES, CODE SIZE REDUCTION:9 WORDS
                 SUBOPT_0x10:
0011e5 93ea      	ST   -Y,R30
0011e6 e6e4      	LDI  R30,LOW(100)
0011e7 93ea      	ST   -Y,R30
0011e8 ece8      	LDI  R30,LOW(200)
0011e9 e0f0      	LDI  R31,HIGH(200)
0011ea 9508      	RET
                 
                 ;OPTIMIZER ADDED SUBROUTINE, CALLED 4 TIMES, CODE SIZE REDUCTION:3 WORDS
                 SUBOPT_0x11:
0011eb 2fe0      	MOV  R30,R16
0011ec e0f0      	LDI  R31,0
0011ed 9508      	RET
                 
                 ;OPTIMIZER ADDED SUBROUTINE, CALLED 3 TIMES, CODE SIZE REDUCTION:3 WORDS
                 SUBOPT_0x12:
0011ee e1a0      	LDI  R26,LOW(_gt)
0011ef e0b0      	LDI  R27,HIGH(_gt)
0011f0 940e 1434 	CALL __EEPROMRDB
0011f2 30e1      	CPI  R30,LOW(0x1)
0011f3 9508      	RET
                 
                 ;OPTIMIZER ADDED SUBROUTINE, CALLED 2 TIMES, CODE SIZE REDUCTION:20 WORDS
                 SUBOPT_0x13:
0011f4 2fe1      	MOV  R30,R17
0011f5 e0f0      	LDI  R31,0
0011f6 5fe2      	SUBI R30,LOW(-_data_sensor)
0011f7 4ffd      	SBCI R31,HIGH(-_data_sensor)
0011f8 8000      	LD   R0,Z
0011f9 2fe1      	MOV  R30,R17
0011fa e0a0      	LDI  R26,LOW(_data_ref)
0011fb e0b0      	LDI  R27,HIGH(_data_ref)
0011fc e0f0      	LDI  R31,0
0011fd 0fee      	LSL  R30
0011fe 1fff      	ROL  R31
0011ff 0fae      	ADD  R26,R30
001200 1fbf      	ADC  R27,R31
001201 940e 1430 	CALL __EEPROMRDW
001203 2da0      	MOV  R26,R0
001204 e0b0      	LDI  R27,0
001205 17ea      	CP   R30,R26
001206 07fb      	CPC  R31,R27
001207 9508      	RET
                 
                 ;OPTIMIZER ADDED SUBROUTINE, CALLED 4 TIMES, CODE SIZE REDUCTION:9 WORDS
                 SUBOPT_0x14:
001208 2fa1      	MOV  R26,R17
001209 e0b0      	LDI  R27,0
00120a 5daa      	SUBI R26,LOW(-_s)
00120b 4fbd      	SBCI R27,HIGH(-_s)
00120c 9508      	RET
                 
                 ;OPTIMIZER ADDED SUBROUTINE, CALLED 2 TIMES, CODE SIZE REDUCTION:2 WORDS
                 SUBOPT_0x15:
00120d e0a0      	LDI  R26,LOW(_data_ref)
00120e e0b0      	LDI  R27,HIGH(_data_ref)
00120f e0f0      	LDI  R31,0
001210 0fee      	LSL  R30
001211 1fff      	ROL  R31
001212 9508      	RET
                 
                 ;OPTIMIZER ADDED SUBROUTINE, CALLED 3 TIMES, CODE SIZE REDUCTION:1 WORDS
                 SUBOPT_0x16:
001213 2fe3      	MOV  R30,R19
001214 e0f0      	LDI  R31,0
001215 9508      	RET
                 
                 ;OPTIMIZER ADDED SUBROUTINE, CALLED 3 TIMES, CODE SIZE REDUCTION:5 WORDS
                 SUBOPT_0x17:
001216 eee8      	LDI  R30,LOW(1000)
001217 e0f3      	LDI  R31,HIGH(1000)
001218 93fa      	ST   -Y,R31
001219 93ea      	ST   -Y,R30
00121a 940c 13c0 	JMP  _delay_ms
                 
                 ;OPTIMIZER ADDED SUBROUTINE, CALLED 3 TIMES, CODE SIZE REDUCTION:1 WORDS
                 SUBOPT_0x18:
00121c e0e4      	LDI  R30,LOW(4)
00121d 93ea      	ST   -Y,R30
00121e e0e1      	LDI  R30,LOW(1)
00121f 93ea      	ST   -Y,R30
001220 9508      	RET
                 
                 ;OPTIMIZER ADDED SUBROUTINE, CALLED 5 TIMES, CODE SIZE REDUCTION:5 WORDS
                 SUBOPT_0x19:
001221 e0e2      	LDI  R30,LOW(2)
001222 93ea      	ST   -Y,R30
001223 e0e1      	LDI  R30,LOW(1)
001224 93ea      	ST   -Y,R30
001225 9508      	RET
                 
                 ;OPTIMIZER ADDED SUBROUTINE, CALLED 4 TIMES, CODE SIZE REDUCTION:6 WORDS
                 SUBOPT_0x1A:
001226 93ea      	ST   -Y,R30
001227 e0e1      	LDI  R30,LOW(1)
001228 93ea      	ST   -Y,R30
001229 940c 10d2 	JMP  _lcd_gotoxy
                 
                 ;OPTIMIZER ADDED SUBROUTINE, CALLED 8 TIMES, CODE SIZE REDUCTION:11 WORDS
                 SUBOPT_0x1B:
00122b 93fa      	ST   -Y,R31
00122c 93ea      	ST   -Y,R30
00122d 940c 13c0 	JMP  _delay_ms
                 
                 ;OPTIMIZER ADDED SUBROUTINE, CALLED 19 TIMES, CODE SIZE REDUCTION:51 WORDS
                 SUBOPT_0x1C:
00122f e1a0      	LDI  R26,LOW(_gt)
001230 e0b0      	LDI  R27,HIGH(_gt)
001231 e0e0      	LDI  R30,LOW(0)
001232 940e 1448 	CALL __EEPROMWRB
001234 9508      	RET
                 
                 ;OPTIMIZER ADDED SUBROUTINE, CALLED 3 TIMES, CODE SIZE REDUCTION:5 WORDS
                 SUBOPT_0x1D:
001235 940e 10e4 	CALL _lcd_clear
001237 ece8      	LDI  R30,LOW(200)
001238 e0f0      	LDI  R31,HIGH(200)
001239 cff1      	RJMP SUBOPT_0x1B
                 
                 ;OPTIMIZER ADDED SUBROUTINE, CALLED 25 TIMES, CODE SIZE REDUCTION:69 WORDS
                 SUBOPT_0x1E:
00123a e1a0      	LDI  R26,LOW(_gt)
00123b e0b0      	LDI  R27,HIGH(_gt)
00123c e0e1      	LDI  R30,LOW(1)
00123d 940e 1448 	CALL __EEPROMWRB
00123f 9508      	RET
                 
                 ;OPTIMIZER ADDED SUBROUTINE, CALLED 4 TIMES, CODE SIZE REDUCTION:3 WORDS
                 SUBOPT_0x1F:
001240 efee      	LDI  R30,LOW(_buf3)
001241 e0f1      	LDI  R31,HIGH(_buf3)
001242 93fa      	ST   -Y,R31
001243 93ea      	ST   -Y,R30
001244 9508      	RET
                 
                 ;OPTIMIZER ADDED SUBROUTINE, CALLED 8 TIMES, CODE SIZE REDUCTION:18 WORDS
                 SUBOPT_0x20:
001245 93ea      	ST   -Y,R30
001246 940e 0184 	CALL _read_adc
001248 cf66      	RJMP SUBOPT_0x5
                 
                 ;OPTIMIZER ADDED SUBROUTINE, CALLED 2 TIMES, CODE SIZE REDUCTION:1 WORDS
                 SUBOPT_0x21:
001249 e180      	LDI  R24,16
00124a 940e 105d 	CALL _sprintf
00124c 9664      	ADIW R28,20
00124d cff2      	RJMP SUBOPT_0x1F
                 
                 ;OPTIMIZER ADDED SUBROUTINE, CALLED 4 TIMES, CODE SIZE REDUCTION:3 WORDS
                 SUBOPT_0x22:
00124e e2ec      	LDI  R30,LOW(300)
00124f e0f1      	LDI  R31,HIGH(300)
001250 cfda      	RJMP SUBOPT_0x1B
                 
                 ;OPTIMIZER ADDED SUBROUTINE, CALLED 2 TIMES, CODE SIZE REDUCTION:2 WORDS
                 SUBOPT_0x23:
001251 2de7      	MOV  R30,R7
001252 e0f0      	LDI  R31,0
001253 30e1      	CPI  R30,LOW(0x1)
001254 e0a0      	LDI  R26,HIGH(0x1)
001255 07fa      	CPC  R31,R26
001256 9508      	RET
                 
                 ;OPTIMIZER ADDED SUBROUTINE, CALLED 2 TIMES, CODE SIZE REDUCTION:2 WORDS
                 SUBOPT_0x24:
001257 91a0 022e 	LDS  R26,_last_error
001259 91b0 022f 	LDS  R27,_last_error+1
00125b 01f8      	MOVW R30,R16
00125c 1bea      	SUB  R30,R26
00125d 0bfb      	SBC  R31,R27
00125e 9508      	RET
                 
                 ;OPTIMIZER ADDED SUBROUTINE, CALLED 2 TIMES, CODE SIZE REDUCTION:2 WORDS
                 SUBOPT_0x25:
00125f e0b0      	LDI  R27,0
001260 01f8      	MOVW R30,R16
001261 940e 13eb 	CALL __MULW12
001263 01bf      	MOVW R22,R30
001264 9508      	RET
                 
                 ;OPTIMIZER ADDED SUBROUTINE, CALLED 2 TIMES, CODE SIZE REDUCTION:1 WORDS
                 SUBOPT_0x26:
001265 940e 13eb 	CALL __MULW12
001267 0fe6      	ADD  R30,R22
001268 1ff7      	ADC  R31,R23
001269 940e 13d9 	CALL __CWD1
00126b 9508      	RET
                 
                 ;OPTIMIZER ADDED SUBROUTINE, CALLED 2 TIMES, CODE SIZE REDUCTION:2 WORDS
                 SUBOPT_0x27:
00126c 940e 13de 	CALL __CWD2
00126e 940e 1423 	CALL __SWAPD12
001270 940e 13d0 	CALL __SUBD12
001272 019f      	MOVW R18,R30
001273 9508      	RET
                 
                 ;OPTIMIZER ADDED SUBROUTINE, CALLED 2 TIMES, CODE SIZE REDUCTION:1 WORDS
                 SUBOPT_0x28:
001274 01d9      	MOVW R26,R18
001275 e0f0      	LDI  R31,0
001276 17ea      	CP   R30,R26
001277 07fb      	CPC  R31,R27
001278 9508      	RET
                 
                 ;OPTIMIZER ADDED SUBROUTINE, CALLED 3 TIMES, CODE SIZE REDUCTION:3 WORDS
                 SUBOPT_0x29:
001279 e0e1      	LDI  R30,LOW(1)
00127a 93ea      	ST   -Y,R30
00127b 2fe2      	MOV  R30,R18
00127c 95e1      	NEG  R30
00127d 93ea      	ST   -Y,R30
00127e 9508      	RET
                 
                 ;OPTIMIZER ADDED SUBROUTINE, CALLED 2 TIMES, CODE SIZE REDUCTION:1 WORDS
                 SUBOPT_0x2A:
00127f 01da      	MOVW R26,R20
001280 e0f0      	LDI  R31,0
001281 17ea      	CP   R30,R26
001282 07fb      	CPC  R31,R27
001283 9508      	RET
                 
                 ;OPTIMIZER ADDED SUBROUTINE, CALLED 22 TIMES, CODE SIZE REDUCTION:123 WORDS
                 SUBOPT_0x2B:
001284 ece8      	LDI  R30,LOW(200)
001285 93ea      	ST   -Y,R30
001286 e2e3      	LDI  R30,LOW(35)
001287 93ea      	ST   -Y,R30
001288 e1ec      	LDI  R30,LOW(28)
001289 93ea      	ST   -Y,R30
00128a 940c 0499 	JMP  _pid2
                 
                 ;OPTIMIZER ADDED SUBROUTINE, CALLED 30 TIMES, CODE SIZE REDUCTION:171 WORDS
                 SUBOPT_0x2C:
00128c e9e6      	LDI  R30,LOW(150)
00128d 93ea      	ST   -Y,R30
00128e e1e7      	LDI  R30,LOW(23)
00128f 93ea      	ST   -Y,R30
001290 e0ef      	LDI  R30,LOW(15)
001291 93ea      	ST   -Y,R30
001292 940c 0499 	JMP  _pid2
                 
                 ;OPTIMIZER ADDED SUBROUTINE, CALLED 9 TIMES, CODE SIZE REDUCTION:45 WORDS
                 SUBOPT_0x2D:
001294 e7e8      	LDI  R30,LOW(120)
001295 93ea      	ST   -Y,R30
001296 e0ef      	LDI  R30,LOW(15)
001297 93ea      	ST   -Y,R30
001298 e0ea      	LDI  R30,LOW(10)
001299 93ea      	ST   -Y,R30
00129a 940c 0499 	JMP  _pid2
                 
                 ;OPTIMIZER ADDED SUBROUTINE, CALLED 5 TIMES, CODE SIZE REDUCTION:21 WORDS
                 SUBOPT_0x2E:
00129c 81eb      	LDD  R30,Y+3
00129d e0f0      	LDI  R31,0
00129e 5dea      	SUBI R30,LOW(-_s)
00129f 4ffd      	SBCI R31,HIGH(-_s)
0012a0 81a0      	LD   R26,Z
0012a1 30a0      	CPI  R26,LOW(0x0)
0012a2 9508      	RET
                 
                 ;OPTIMIZER ADDED SUBROUTINE, CALLED 3 TIMES, CODE SIZE REDUCTION:9 WORDS
                 SUBOPT_0x2F:
0012a3 81ea      	LDD  R30,Y+2
0012a4 e0f0      	LDI  R31,0
0012a5 5dea      	SUBI R30,LOW(-_s)
0012a6 4ffd      	SBCI R31,HIGH(-_s)
0012a7 81a0      	LD   R26,Z
0012a8 30a0      	CPI  R26,LOW(0x0)
0012a9 9508      	RET
                 
                 ;OPTIMIZER ADDED SUBROUTINE, CALLED 51 TIMES, CODE SIZE REDUCTION:97 WORDS
                 SUBOPT_0x30:
0012aa e0e0      	LDI  R30,LOW(0)
0012ab 93ea      	ST   -Y,R30
0012ac ece8      	LDI  R30,LOW(200)
0012ad 93ea      	ST   -Y,R30
0012ae 9508      	RET
                 
                 ;OPTIMIZER ADDED SUBROUTINE, CALLED 19 TIMES, CODE SIZE REDUCTION:69 WORDS
                 SUBOPT_0x31:
0012af ece8      	LDI  R30,LOW(200)
0012b0 e0f0      	LDI  R31,HIGH(200)
0012b1 93fa      	ST   -Y,R31
0012b2 93ea      	ST   -Y,R30
0012b3 940c 02ae 	JMP  _jalan
                 
                 ;OPTIMIZER ADDED SUBROUTINE, CALLED 10 TIMES, CODE SIZE REDUCTION:33 WORDS
                 SUBOPT_0x32:
0012b5 e0e0      	LDI  R30,LOW(0)
0012b6 93ea      	ST   -Y,R30
0012b7 e0e1      	LDI  R30,LOW(1)
0012b8 93ea      	ST   -Y,R30
0012b9 93ea      	ST   -Y,R30
0012ba 9508      	RET
                 
                 ;OPTIMIZER ADDED SUBROUTINE, CALLED 4 TIMES, CODE SIZE REDUCTION:9 WORDS
                 SUBOPT_0x33:
0012bb e0e1      	LDI  R30,LOW(1)
0012bc 93ea      	ST   -Y,R30
0012bd 940e 06d4 	CALL _pidbit
0012bf cfea      	RJMP SUBOPT_0x30
                 
                 ;OPTIMIZER ADDED SUBROUTINE, CALLED 23 TIMES, CODE SIZE REDUCTION:41 WORDS
                 SUBOPT_0x34:
0012c0 93fa      	ST   -Y,R31
0012c1 93ea      	ST   -Y,R30
0012c2 940c 02ae 	JMP  _jalan
                 
                 ;OPTIMIZER ADDED SUBROUTINE, CALLED 23 TIMES, CODE SIZE REDUCTION:41 WORDS
                 SUBOPT_0x35:
0012c4 e0e1      	LDI  R30,LOW(1)
0012c5 93ea      	ST   -Y,R30
0012c6 93ea      	ST   -Y,R30
0012c7 9508      	RET
                 
                 ;OPTIMIZER ADDED SUBROUTINE, CALLED 2 TIMES, CODE SIZE REDUCTION:4 WORDS
                 SUBOPT_0x36:
0012c8 e0e1      	LDI  R30,LOW(1)
0012c9 93ea      	ST   -Y,R30
0012ca 940e 071f 	CALL _zigzag
0012cc e0e0      	LDI  R30,LOW(0)
0012cd 93ea      	ST   -Y,R30
0012ce efea      	LDI  R30,LOW(250)
0012cf 93ea      	ST   -Y,R30
0012d0 e0e1      	LDI  R30,LOW(1)
0012d1 9508      	RET
                 
                 ;OPTIMIZER ADDED SUBROUTINE, CALLED 2 TIMES, CODE SIZE REDUCTION:7 WORDS
                 SUBOPT_0x37:
0012d2 940e 071f 	CALL _zigzag
0012d4 e0e1      	LDI  R30,LOW(1)
0012d5 93ea      	ST   -Y,R30
0012d6 e6e4      	LDI  R30,LOW(100)
0012d7 93ea      	ST   -Y,R30
0012d8 e0e0      	LDI  R30,LOW(0)
0012d9 93ea      	ST   -Y,R30
0012da efea      	LDI  R30,LOW(250)
0012db 93ea      	ST   -Y,R30
0012dc cfd2      	RJMP SUBOPT_0x31
                 
                 ;OPTIMIZER ADDED SUBROUTINE, CALLED 5 TIMES, CODE SIZE REDUCTION:5 WORDS
                 SUBOPT_0x38:
0012dd e0e6      	LDI  R30,LOW(6)
0012de 93ea      	ST   -Y,R30
0012df e0e7      	LDI  R30,LOW(7)
0012e0 93ea      	ST   -Y,R30
0012e1 9508      	RET
                 
                 ;OPTIMIZER ADDED SUBROUTINE, CALLED 9 TIMES, CODE SIZE REDUCTION:13 WORDS
                 SUBOPT_0x39:
0012e2 940e 06d4 	CALL _pidbit
0012e4 e0e1      	LDI  R30,LOW(1)
0012e5 93ea      	ST   -Y,R30
0012e6 9508      	RET
                 
                 ;OPTIMIZER ADDED SUBROUTINE, CALLED 6 TIMES, CODE SIZE REDUCTION:7 WORDS
                 SUBOPT_0x3A:
0012e7 e6e4      	LDI  R30,LOW(100)
0012e8 93ea      	ST   -Y,R30
0012e9 cfc0      	RJMP SUBOPT_0x30
                 
                 ;OPTIMIZER ADDED SUBROUTINE, CALLED 3 TIMES, CODE SIZE REDUCTION:3 WORDS
                 SUBOPT_0x3B:
0012ea 93ea      	ST   -Y,R30
0012eb 940e 063c 	CALL _pidsayap
0012ed e0e1      	LDI  R30,LOW(1)
0012ee 93ea      	ST   -Y,R30
0012ef 9508      	RET
                 
                 ;OPTIMIZER ADDED SUBROUTINE, CALLED 3 TIMES, CODE SIZE REDUCTION:1 WORDS
                 SUBOPT_0x3C:
0012f0 940e 063c 	CALL _pidsayap
0012f2 cfb7      	RJMP SUBOPT_0x30
                 
                 ;OPTIMIZER ADDED SUBROUTINE, CALLED 2 TIMES, CODE SIZE REDUCTION:3 WORDS
                 SUBOPT_0x3D:
0012f3 e0e1      	LDI  R30,LOW(1)
0012f4 93ea      	ST   -Y,R30
0012f5 e6e4      	LDI  R30,LOW(100)
0012f6 93ea      	ST   -Y,R30
0012f7 e9e6      	LDI  R30,LOW(150)
0012f8 e0f0      	LDI  R31,HIGH(150)
0012f9 cfc6      	RJMP SUBOPT_0x34
                 
                 ;OPTIMIZER ADDED SUBROUTINE, CALLED 8 TIMES, CODE SIZE REDUCTION:11 WORDS
                 SUBOPT_0x3E:
0012fa e0e1      	LDI  R30,LOW(1)
0012fb 93ea      	ST   -Y,R30
0012fc e0e6      	LDI  R30,LOW(6)
0012fd 93ea      	ST   -Y,R30
0012fe 9508      	RET
                 
                 ;OPTIMIZER ADDED SUBROUTINE, CALLED 6 TIMES, CODE SIZE REDUCTION:7 WORDS
                 SUBOPT_0x3F:
0012ff 940e 06d4 	CALL _pidbit
001301 cfa8      	RJMP SUBOPT_0x30
                 
                 ;OPTIMIZER ADDED SUBROUTINE, CALLED 7 TIMES, CODE SIZE REDUCTION:9 WORDS
                 SUBOPT_0x40:
001302 e0e1      	LDI  R30,LOW(1)
001303 93ea      	ST   -Y,R30
001304 e0e2      	LDI  R30,LOW(2)
001305 93ea      	ST   -Y,R30
001306 9508      	RET
                 
                 ;OPTIMIZER ADDED SUBROUTINE, CALLED 7 TIMES, CODE SIZE REDUCTION:9 WORDS
                 SUBOPT_0x41:
001307 e3e2      	LDI  R30,LOW(50)
001308 93ea      	ST   -Y,R30
001309 cfa0      	RJMP SUBOPT_0x30
                 
                 ;OPTIMIZER ADDED SUBROUTINE, CALLED 8 TIMES, CODE SIZE REDUCTION:11 WORDS
                 SUBOPT_0x42:
00130a e9e6      	LDI  R30,LOW(150)
00130b e0f0      	LDI  R31,HIGH(150)
00130c cfb3      	RJMP SUBOPT_0x34
                 
                 ;OPTIMIZER ADDED SUBROUTINE, CALLED 2 TIMES, CODE SIZE REDUCTION:3 WORDS
                 SUBOPT_0x43:
00130d efef      	LDI  R30,LOW(255)
00130e 93ea      	ST   -Y,R30
00130f e2e3      	LDI  R30,LOW(35)
001310 93ea      	ST   -Y,R30
001311 e1e4      	LDI  R30,LOW(20)
001312 93ea      	ST   -Y,R30
001313 940c 0499 	JMP  _pid2
                 
                 ;OPTIMIZER ADDED SUBROUTINE, CALLED 2 TIMES, CODE SIZE REDUCTION:1 WORDS
                 SUBOPT_0x44:
001315 e0e7      	LDI  R30,LOW(7)
001316 93ea      	ST   -Y,R30
001317 e0e0      	LDI  R30,LOW(0)
001318 93ea      	ST   -Y,R30
001319 cf02      	RJMP SUBOPT_0x18
                 
                 ;OPTIMIZER ADDED SUBROUTINE, CALLED 4 TIMES, CODE SIZE REDUCTION:3 WORDS
                 SUBOPT_0x45:
00131a 940e 06d4 	CALL _pidbit
00131c cf1d      	RJMP SUBOPT_0x1E
                 
                 ;OPTIMIZER ADDED SUBROUTINE, CALLED 7 TIMES, CODE SIZE REDUCTION:9 WORDS
                 SUBOPT_0x46:
00131d e0e1      	LDI  R30,LOW(1)
00131e 2ede      	MOV  R13,R30
                +
00131f e000     +LDI R16 , LOW ( 0 )
001320 e010     +LDI R17 , HIGH ( 0 )
                 	__GETWRN 16,17,0
001321 9508      	RET
                 
                 ;OPTIMIZER ADDED SUBROUTINE, CALLED 12 TIMES, CODE SIZE REDUCTION:63 WORDS
                 SUBOPT_0x47:
001322 e9e6      	LDI  R30,LOW(150)
001323 93ea      	ST   -Y,R30
001324 e1e9      	LDI  R30,LOW(25)
001325 93ea      	ST   -Y,R30
001326 e0ef      	LDI  R30,LOW(15)
001327 93ea      	ST   -Y,R30
001328 940c 0499 	JMP  _pid2
                 
                 ;OPTIMIZER ADDED SUBROUTINE, CALLED 5 TIMES, CODE SIZE REDUCTION:5 WORDS
                 SUBOPT_0x48:
00132a e0e1      	LDI  R30,LOW(1)
00132b 93ea      	ST   -Y,R30
00132c e0e0      	LDI  R30,LOW(0)
00132d 93ea      	ST   -Y,R30
00132e 9508      	RET
                 
                 ;OPTIMIZER ADDED SUBROUTINE, CALLED 8 TIMES, CODE SIZE REDUCTION:11 WORDS
                 SUBOPT_0x49:
00132f e0e0      	LDI  R30,LOW(0)
001330 93ea      	ST   -Y,R30
001331 e0e7      	LDI  R30,LOW(7)
001332 93ea      	ST   -Y,R30
001333 9508      	RET
                 
                 ;OPTIMIZER ADDED SUBROUTINE, CALLED 7 TIMES, CODE SIZE REDUCTION:9 WORDS
                 SUBOPT_0x4A:
001334 e0e0      	LDI  R30,LOW(0)
001335 93ea      	ST   -Y,R30
001336 e6e4      	LDI  R30,LOW(100)
001337 93ea      	ST   -Y,R30
001338 9508      	RET
                 
                 ;OPTIMIZER ADDED SUBROUTINE, CALLED 4 TIMES, CODE SIZE REDUCTION:3 WORDS
                 SUBOPT_0x4B:
001339 e0e0      	LDI  R30,LOW(0)
00133a 93ea      	ST   -Y,R30
00133b e0e1      	LDI  R30,LOW(1)
00133c 93ea      	ST   -Y,R30
00133d 9508      	RET
                 
                 ;OPTIMIZER ADDED SUBROUTINE, CALLED 2 TIMES, CODE SIZE REDUCTION:8 WORDS
                 SUBOPT_0x4C:
00133e 940e 063c 	CALL _pidsayap
001340 98af      	CBI  0x15,7
001341 e0e0      	LDI  R30,LOW(0)
001342 93ea      	ST   -Y,R30
001343 e9e6      	LDI  R30,LOW(150)
001344 93ea      	ST   -Y,R30
001345 e0e0      	LDI  R30,LOW(0)
001346 93ea      	ST   -Y,R30
001347 e4eb      	LDI  R30,LOW(75)
001348 93ea      	ST   -Y,R30
001349 ce50      	RJMP SUBOPT_0x1
                 
                 ;OPTIMIZER ADDED SUBROUTINE, CALLED 3 TIMES, CODE SIZE REDUCTION:1 WORDS
                 SUBOPT_0x4D:
00134a e0e0      	LDI  R30,LOW(0)
00134b 93ea      	ST   -Y,R30
00134c cfdd      	RJMP SUBOPT_0x48
                 
                 ;OPTIMIZER ADDED SUBROUTINE, CALLED 2 TIMES, CODE SIZE REDUCTION:3 WORDS
                 SUBOPT_0x4E:
00134d 940e 063c 	CALL _pidsayap
00134f e0e0      	LDI  R30,LOW(0)
001350 93ea      	ST   -Y,R30
001351 e9e6      	LDI  R30,LOW(150)
001352 93ea      	ST   -Y,R30
001353 cfe0      	RJMP SUBOPT_0x4A
                 
                 ;OPTIMIZER ADDED SUBROUTINE, CALLED 2 TIMES, CODE SIZE REDUCTION:3 WORDS
                 SUBOPT_0x4F:
001354 e0ea      	LDI  R30,LOW(10)
001355 93ea      	ST   -Y,R30
001356 e0e1      	LDI  R30,LOW(1)
001357 93ea      	ST   -Y,R30
001358 940e 06d4 	CALL _pidbit
00135a e0e0      	LDI  R30,LOW(0)
00135b 93ea      	ST   -Y,R30
00135c 9508      	RET
                 
                 ;OPTIMIZER ADDED SUBROUTINE, CALLED 4 TIMES, CODE SIZE REDUCTION:3 WORDS
                 SUBOPT_0x50:
00135d e0e2      	LDI  R30,LOW(2)
00135e 93ea      	ST   -Y,R30
00135f e0e5      	LDI  R30,LOW(5)
001360 93ea      	ST   -Y,R30
001361 9508      	RET
                 
                 ;OPTIMIZER ADDED SUBROUTINE, CALLED 4 TIMES, CODE SIZE REDUCTION:3 WORDS
                 SUBOPT_0x51:
001362 940e 06d4 	CALL _pidbit
                +
001364 e000     +LDI R16 , LOW ( 0 )
001365 e010     +LDI R17 , HIGH ( 0 )
                 	__GETWRN 16,17,0
001366 9508      	RET
                 
                 ;OPTIMIZER ADDED SUBROUTINE, CALLED 4 TIMES, CODE SIZE REDUCTION:3 WORDS
                 SUBOPT_0x52:
001367 e0e0      	LDI  R30,LOW(0)
001368 93ea      	ST   -Y,R30
001369 efef      	LDI  R30,LOW(255)
00136a 93ea      	ST   -Y,R30
00136b 9508      	RET
                 
                 ;OPTIMIZER ADDED SUBROUTINE, CALLED 4 TIMES, CODE SIZE REDUCTION:3 WORDS
                 SUBOPT_0x53:
00136c e0e2      	LDI  R30,LOW(2)
00136d 93ea      	ST   -Y,R30
00136e 93ea      	ST   -Y,R30
00136f 9508      	RET
                 
                 ;OPTIMIZER ADDED SUBROUTINE, CALLED 4 TIMES, CODE SIZE REDUCTION:3 WORDS
                 SUBOPT_0x54:
001370 e0e1      	LDI  R30,LOW(1)
001371 93ea      	ST   -Y,R30
001372 e3e2      	LDI  R30,LOW(50)
001373 93ea      	ST   -Y,R30
001374 9508      	RET
                 
                 ;OPTIMIZER ADDED SUBROUTINE, CALLED 3 TIMES, CODE SIZE REDUCTION:1 WORDS
                 SUBOPT_0x55:
001375 efea      	LDI  R30,LOW(250)
001376 e0f0      	LDI  R31,HIGH(250)
001377 cf48      	RJMP SUBOPT_0x34
                 
                 ;OPTIMIZER ADDED SUBROUTINE, CALLED 2 TIMES, CODE SIZE REDUCTION:1 WORDS
                 SUBOPT_0x56:
001378 93fa      	ST   -Y,R31
001379 93ea      	ST   -Y,R30
00137a 940e 111c 	CALL _lcd_puts
00137c ce22      	RJMP SUBOPT_0x2
                 
                 ;OPTIMIZER ADDED SUBROUTINE, CALLED 10 TIMES, CODE SIZE REDUCTION:15 WORDS
                 SUBOPT_0x57:
00137d 93fa      	ST   -Y,R31
00137e 93ea      	ST   -Y,R30
00137f 940c 111c 	JMP  _lcd_puts
                 
                 ;OPTIMIZER ADDED SUBROUTINE, CALLED 3 TIMES, CODE SIZE REDUCTION:1 WORDS
                 SUBOPT_0x58:
001381 e0e8      	LDI  R30,LOW(8)
001382 93ea      	ST   -Y,R30
001383 940c 01f9 	JMP  _inputnilai
                 
                 ;OPTIMIZER ADDED SUBROUTINE, CALLED 5 TIMES, CODE SIZE REDUCTION:21 WORDS
                 SUBOPT_0x59:
001385 932a      	ST   -Y,R18
001386 85ed      	LDD  R30,Y+13
001387 85fe      	LDD  R31,Y+13+1
001388 93fa      	ST   -Y,R31
001389 93ea      	ST   -Y,R30
00138a 89e9      	LDD  R30,Y+17
00138b 89fa      	LDD  R31,Y+17+1
00138c 9509      	ICALL
00138d 9508      	RET
                 
                 ;OPTIMIZER ADDED SUBROUTINE, CALLED 5 TIMES, CODE SIZE REDUCTION:9 WORDS
                 SUBOPT_0x5A:
00138e 89e8      	LDD  R30,Y+16
00138f 89f9      	LDD  R31,Y+16+1
001390 9734      	SBIW R30,4
001391 8be8      	STD  Y+16,R30
001392 8bf9      	STD  Y+16+1,R31
001393 9508      	RET
                 
                 ;OPTIMIZER ADDED SUBROUTINE, CALLED 3 TIMES, CODE SIZE REDUCTION:7 WORDS
                 SUBOPT_0x5B:
001394 85ed      	LDD  R30,Y+13
001395 85fe      	LDD  R31,Y+13+1
001396 93fa      	ST   -Y,R31
001397 93ea      	ST   -Y,R30
001398 89e9      	LDD  R30,Y+17
001399 89fa      	LDD  R31,Y+17+1
00139a 9509      	ICALL
00139b 9508      	RET
                 
                 ;OPTIMIZER ADDED SUBROUTINE, CALLED 2 TIMES, CODE SIZE REDUCTION:6 WORDS
                 SUBOPT_0x5C:
00139c 89a8      	LDD  R26,Y+16
00139d 89b9      	LDD  R27,Y+16+1
00139e 9614      	ADIW R26,4
00139f 940e 1416 	CALL __GETW1P
0013a1 83ee      	STD  Y+6,R30
0013a2 83ff      	STD  Y+6+1,R31
0013a3 93fa      	ST   -Y,R31
0013a4 93ea      	ST   -Y,R30
0013a5 9508      	RET
                 
                 ;OPTIMIZER ADDED SUBROUTINE, CALLED 2 TIMES, CODE SIZE REDUCTION:2 WORDS
                 SUBOPT_0x5D:
0013a6 89a8      	LDD  R26,Y+16
0013a7 89b9      	LDD  R27,Y+16+1
0013a8 9614      	ADIW R26,4
0013a9 940e 1416 	CALL __GETW1P
0013ab 87ea      	STD  Y+10,R30
0013ac 87fb      	STD  Y+10+1,R31
0013ad 9508      	RET
                 
                 ;OPTIMIZER ADDED SUBROUTINE, CALLED 2 TIMES, CODE SIZE REDUCTION:1 WORDS
                 SUBOPT_0x5E:
0013ae 01de      	MOVW R26,R28
0013af 961c      	ADIW R26,12
0013b0 940e 13cc 	CALL __ADDW2R15
0013b2 940e 1416 	CALL __GETW1P
0013b4 9508      	RET
                 
                 ;OPTIMIZER ADDED SUBROUTINE, CALLED 3 TIMES, CODE SIZE REDUCTION:5 WORDS
                 SUBOPT_0x5F:
0013b5 940e 113a 	CALL __long_delay_G101
0013b7 e3e0      	LDI  R30,LOW(48)
0013b8 93ea      	ST   -Y,R30
0013b9 940c 113f 	JMP  __lcd_init_write_G101
                 
                 ;OPTIMIZER ADDED SUBROUTINE, CALLED 3 TIMES, CODE SIZE REDUCTION:3 WORDS
                 SUBOPT_0x60:
0013bb 93ea      	ST   -Y,R30
0013bc 940e 10b2 	CALL __lcd_write_data
0013be 940c 113a 	JMP  __long_delay_G101
                 
                 
                 	.CSEG
                 _delay_ms:
0013c0 91e9      	ld   r30,y+
0013c1 91f9      	ld   r31,y+
0013c2 9630      	adiw r30,0
0013c3 f039      	breq __delay_ms1
                 __delay_ms0:
                +
0013c4 ea80     +LDI R24 , LOW ( 0xFA0 )
0013c5 e09f     +LDI R25 , HIGH ( 0xFA0 )
                +__DELAY_USW_LOOP :
0013c6 9701     +SBIW R24 , 1
0013c7 f7f1     +BRNE __DELAY_USW_LOOP
                 	__DELAY_USW 0xFA0
0013c8 95a8      	wdr
0013c9 9731      	sbiw r30,1
0013ca f7c9      	brne __delay_ms0
                 __delay_ms1:
0013cb 9508      	ret
                 
                 __ADDW2R15:
0013cc 2400      	CLR  R0
0013cd 0daf      	ADD  R26,R15
0013ce 1db0      	ADC  R27,R0
0013cf 9508      	RET
                 
                 __SUBD12:
0013d0 1bea      	SUB  R30,R26
0013d1 0bfb      	SBC  R31,R27
0013d2 0b68      	SBC  R22,R24
0013d3 0b79      	SBC  R23,R25
0013d4 9508      	RET
                 
                 __ANEGW1:
0013d5 95f1      	NEG  R31
0013d6 95e1      	NEG  R30
0013d7 40f0      	SBCI R31,0
0013d8 9508      	RET
                 
                 __CWD1:
0013d9 2f6f      	MOV  R22,R31
0013da 0f66      	ADD  R22,R22
0013db 0b66      	SBC  R22,R22
0013dc 2f76      	MOV  R23,R22
0013dd 9508      	RET
                 
                 __CWD2:
0013de 2f8b      	MOV  R24,R27
0013df 0f88      	ADD  R24,R24
0013e0 0b88      	SBC  R24,R24
0013e1 2f98      	MOV  R25,R24
0013e2 9508      	RET
                 
                 __MULW12U:
0013e3 9ffa      	MUL  R31,R26
0013e4 2df0      	MOV  R31,R0
0013e5 9feb      	MUL  R30,R27
0013e6 0df0      	ADD  R31,R0
0013e7 9fea      	MUL  R30,R26
0013e8 2de0      	MOV  R30,R0
0013e9 0df1      	ADD  R31,R1
0013ea 9508      	RET
                 
                 __MULW12:
0013eb d01c      	RCALL __CHKSIGNW
0013ec dff6      	RCALL __MULW12U
0013ed f40e      	BRTC __MULW121
0013ee dfe6      	RCALL __ANEGW1
                 __MULW121:
0013ef 9508      	RET
                 
                 __DIVW21U:
0013f0 2400      	CLR  R0
0013f1 2411      	CLR  R1
0013f2 e190      	LDI  R25,16
                 __DIVW21U1:
0013f3 0faa      	LSL  R26
0013f4 1fbb      	ROL  R27
0013f5 1c00      	ROL  R0
0013f6 1c11      	ROL  R1
0013f7 1a0e      	SUB  R0,R30
0013f8 0a1f      	SBC  R1,R31
0013f9 f418      	BRCC __DIVW21U2
0013fa 0e0e      	ADD  R0,R30
0013fb 1e1f      	ADC  R1,R31
0013fc c001      	RJMP __DIVW21U3
                 __DIVW21U2:
0013fd 60a1      	SBR  R26,1
                 __DIVW21U3:
0013fe 959a      	DEC  R25
0013ff f799      	BRNE __DIVW21U1
001400 01fd      	MOVW R30,R26
001401 01d0      	MOVW R26,R0
001402 9508      	RET
                 
                 __DIVW21:
001403 d004      	RCALL __CHKSIGNW
001404 dfeb      	RCALL __DIVW21U
001405 f40e      	BRTC __DIVW211
001406 dfce      	RCALL __ANEGW1
                 __DIVW211:
001407 9508      	RET
                 
                 __CHKSIGNW:
001408 94e8      	CLT
001409 fff7      	SBRS R31,7
00140a c002      	RJMP __CHKSW1
00140b dfc9      	RCALL __ANEGW1
00140c 9468      	SET
                 __CHKSW1:
00140d ffb7      	SBRS R27,7
00140e c006      	RJMP __CHKSW2
00140f 95a0      	COM  R26
001410 95b0      	COM  R27
001411 9611      	ADIW R26,1
001412 f800      	BLD  R0,0
001413 9403      	INC  R0
001414 fa00      	BST  R0,0
                 __CHKSW2:
001415 9508      	RET
                 
                 __GETW1P:
001416 91ed      	LD   R30,X+
001417 91fc      	LD   R31,X
001418 9711      	SBIW R26,1
001419 9508      	RET
                 
                 __GETW1PF:
00141a 9005      	LPM  R0,Z+
00141b 91f4      	LPM  R31,Z
00141c 2de0      	MOV  R30,R0
00141d 9508      	RET
                 
                 __PUTPARD1:
00141e 937a      	ST   -Y,R23
00141f 936a      	ST   -Y,R22
001420 93fa      	ST   -Y,R31
001421 93ea      	ST   -Y,R30
001422 9508      	RET
                 
                 __SWAPD12:
001423 2e18      	MOV  R1,R24
001424 2f86      	MOV  R24,R22
001425 2d61      	MOV  R22,R1
001426 2e19      	MOV  R1,R25
001427 2f97      	MOV  R25,R23
001428 2d71      	MOV  R23,R1
                 
                 __SWAPW12:
001429 2e1b      	MOV  R1,R27
00142a 2fbf      	MOV  R27,R31
00142b 2df1      	MOV  R31,R1
                 
                 __SWAPB12:
00142c 2e1a      	MOV  R1,R26
00142d 2fae      	MOV  R26,R30
00142e 2de1      	MOV  R30,R1
00142f 9508      	RET
                 
                 __EEPROMRDW:
001430 9611      	ADIW R26,1
001431 d002      	RCALL __EEPROMRDB
001432 2ffe      	MOV  R31,R30
001433 9711      	SBIW R26,1
                 
                 __EEPROMRDB:
001434 99e1      	SBIC EECR,EEWE
001435 cffe      	RJMP __EEPROMRDB
001436 93ff      	PUSH R31
001437 b7ff      	IN   R31,SREG
001438 94f8      	CLI
001439 bbae      	OUT  EEARL,R26
00143a bbbf      	OUT  EEARH,R27
00143b 9ae0      	SBI  EECR,EERE
00143c b3ed      	IN   R30,EEDR
00143d bfff      	OUT  SREG,R31
00143e 91ff      	POP  R31
00143f 9508      	RET
                 
                 __EEPROMWRW:
001440 d007      	RCALL __EEPROMWRB
001441 9611      	ADIW R26,1
001442 93ef      	PUSH R30
001443 2fef      	MOV  R30,R31
001444 d003      	RCALL __EEPROMWRB
001445 91ef      	POP  R30
001446 9711      	SBIW R26,1
001447 9508      	RET
                 
                 __EEPROMWRB:
001448 9be1      	SBIS EECR,EEWE
001449 c002      	RJMP __EEPROMWRB1
00144a 95a8      	WDR
00144b cffc      	RJMP __EEPROMWRB
                 __EEPROMWRB1:
00144c b79f      	IN   R25,SREG
00144d 94f8      	CLI
00144e bbae      	OUT  EEARL,R26
00144f bbbf      	OUT  EEARH,R27
001450 9ae0      	SBI  EECR,EERE
001451 b38d      	IN   R24,EEDR
001452 17e8      	CP   R30,R24
001453 f019      	BREQ __EEPROMWRB0
001454 bbed      	OUT  EEDR,R30
001455 9ae2      	SBI  EECR,EEMWE
001456 9ae1      	SBI  EECR,EEWE
                 __EEPROMWRB0:
001457 bf9f      	OUT  SREG,R25
001458 9508      	RET
                 
                 __SAVELOCR6:
001459 935a      	ST   -Y,R21
                 __SAVELOCR5:
00145a 934a      	ST   -Y,R20
                 __SAVELOCR4:
00145b 933a      	ST   -Y,R19
                 __SAVELOCR3:
00145c 932a      	ST   -Y,R18
                 __SAVELOCR2:
00145d 931a      	ST   -Y,R17
00145e 930a      	ST   -Y,R16
00145f 9508      	RET
                 
                 __LOADLOCR6:
001460 815d      	LDD  R21,Y+5
                 __LOADLOCR5:
001461 814c      	LDD  R20,Y+4
                 __LOADLOCR4:
001462 813b      	LDD  R19,Y+3
                 __LOADLOCR3:
001463 812a      	LDD  R18,Y+2
                 __LOADLOCR2:
001464 8119      	LDD  R17,Y+1
001465 8108      	LD   R16,Y
001466 9508      	RET
                 
                 ;END OF CODE MARKER
                 __END_OF_CODE:


RESOURCE USE INFORMATION
------------------------

Notice:
The register and instruction counts are symbol table hit counts,
and hence implicitly used resources are not counted, eg, the
'lpm' instruction without operands implicitly uses r0 and z,
none of which are counted.

x,y,z are separate entities in the symbol table and are
counted separately from r26..r31 here.

.dseg memory usage only counts static data declared with .byte

ATmega16 register use summary:
r0 :  34 r1 :  14 r2 :   0 r3 :   0 r4 :   4 r5 :  48 r6 :   3 r7 :   2 
r8 :   3 r9 :   2 r10:   2 r11:   2 r12:   4 r13:  21 r14:   0 r15:   4 
r16: 261 r17: 282 r18:  43 r19:  23 r20:  15 r21:  25 r22:  26 r23:  11 
r24:  27 r25:  11 r26: 340 r27:  90 r28:  29 r29:   1 r30:1148 r31: 271 
x  :  28 y  : 521 z  :  29 
Registers used: 32 out of 35 (91.4%)

ATmega16 instruction use summary:
.lds  :   0 .lds.l:   0 .sts  :   0 .sts.l:   0 adc   :  11 add   :  25 
adiw  :  40 and   :   0 andi  :  10 asr   :   0 bclr  :   0 bld   :   1 
brbc  :   0 brbs  :   0 brcc  :   1 brcs  :   0 break :   0 breq  :  42 
brge  :  63 brhc  :   0 brhs  :   0 brid  :   0 brie  :   0 brlo  :  16 
brlt  :   0 brmi  :   1 brne  : 155 brpl  :   5 brsh  :  13 brtc  :   2 
brts  :   1 brvc  :   0 brvs  :   0 bset  :   0 bst   :   1 call  : 716 
cbi   :  31 cbr   :   0 clc   :   0 clh   :   0 cli   :   3 cln   :   0 
clr   :  31 cls   :   0 clt   :   2 clv   :   0 clz   :   0 com   :   2 
cp    :  50 cpc   :  97 cpi   : 205 cpse  :   0 dec   :   5 des   :   0 
eor   :   0 fmul  :   0 fmuls :   0 fmulsu:   0 icall :   2 ijmp  :   0 
in    :  13 inc   :   2 jmp   :  50 ld    :  51 ldd   : 168 ldi   : 809 
lds   :  23 lpm   :  16 lsl   :   9 lsr   :   0 mov   :  90 movw  :  37 
mul   :   8 muls  :   2 mulsu :   0 neg   :   4 nop   :   0 or    :   2 
ori   :   9 out   :  57 pop   :   9 push  :   9 rcall :  80 ret   : 118 
reti  :   0 rjmp  : 331 rol   :   5 ror   :   0 sbc   :  10 sbci  :  78 
sbi   :  48 sbic  :  24 sbis  :  10 sbiw  :  25 sbr   :   1 sbrc  :   3 
sbrs  :  12 sec   :   0 seh   :   0 sei   :   0 sen   :   0 ser   :   0 
ses   :   0 set   :   2 sev   :   0 sez   :   0 sleep :   0 spm   :   0 
st    : 295 std   :  51 sts   :  10 sub   :   6 subi  : 107 swap  :   2 
tst   :  10 wdr   :   2 
Instructions used: 68 out of 116 (58.6%)

ATmega16 memory use summary [bytes]:
Segment   Begin    End      Code   Data   Used    Size   Use%
---------------------------------------------------------------
[.cseg] 0x000000 0x0028ce   9850    596  10446   16384  63.8%
[.dseg] 0x000060 0x000236      0    214    214    1119  19.1%
[.eseg] 0x000000 0x000015      0     21     21     512   4.1%

Assembly complete, 0 errors, 10 warnings
