                 
                 ;CodeVisionAVR C Compiler V2.05.3 Standard
                 ;(C) Copyright 1998-2011 Pavel Haiduc, HP InfoTech s.r.l.
                 ;http://www.hpinfotech.com
                 
                 ;Chip type                : ATmega8535L
                 ;Program type             : Application
                 ;Clock frequency          : 12.000000 MHz
                 ;Memory model             : Small
                 ;Optimize for             : Size
                 ;(s)printf features       : int, width
                 ;(s)scanf features        : int, width
                 ;External RAM size        : 0
                 ;Data Stack size          : 128 byte(s)
                 ;Heap size                : 0 byte(s)
                 ;Promote 'char' to 'int'  : Yes
                 ;'char' is unsigned       : Yes
                 ;8 bit enums              : Yes
                 ;Global 'const' stored in FLASH     : No
                 ;Enhanced function parameter passing: Yes
                 ;Enhanced core instructions         : On
                 ;Smart register allocation          : On
                 ;Automatic register allocation      : On
                 
                 	#pragma AVRPART ADMIN PART_NAME ATmega8535L
                 	#pragma AVRPART MEMORY PROG_FLASH 8192
                 	#pragma AVRPART MEMORY EEPROM 512
                 	#pragma AVRPART MEMORY INT_SRAM SIZE 607
                 	#pragma AVRPART MEMORY INT_SRAM START_ADDR 0x60
                 
                 	.LISTMAC
                 	.EQU UDRE=0x5
                 	.EQU RXC=0x7
                 	.EQU USR=0xB
                 	.EQU UDR=0xC
                 	.EQU SPSR=0xE
                 	.EQU SPDR=0xF
                 	.EQU EERE=0x0
                 	.EQU EEWE=0x1
                 	.EQU EEMWE=0x2
                 	.EQU EECR=0x1C
                 	.EQU EEDR=0x1D
                 	.EQU EEARL=0x1E
                 	.EQU EEARH=0x1F
                 	.EQU WDTCR=0x21
                 	.EQU MCUCR=0x35
                 	.EQU GICR=0x3B
                 	.EQU SPL=0x3D
                 	.EQU SPH=0x3E
                 	.EQU SREG=0x3F
                 
                 	.DEF R0X0=R0
                 	.DEF R0X1=R1
                 	.DEF R0X2=R2
                 	.DEF R0X3=R3
                 	.DEF R0X4=R4
                 	.DEF R0X5=R5
                 	.DEF R0X6=R6
                 	.DEF R0X7=R7
                 	.DEF R0X8=R8
                 	.DEF R0X9=R9
                 	.DEF R0XA=R10
                 	.DEF R0XB=R11
                 	.DEF R0XC=R12
                 	.DEF R0XD=R13
                 	.DEF R0XE=R14
                 	.DEF R0XF=R15
                 	.DEF R0X10=R16
                 	.DEF R0X11=R17
                 	.DEF R0X12=R18
                 	.DEF R0X13=R19
                 	.DEF R0X14=R20
                 	.DEF R0X15=R21
                 	.DEF R0X16=R22
                 	.DEF R0X17=R23
                 	.DEF R0X18=R24
                 	.DEF R0X19=R25
                 	.DEF R0X1A=R26
                 	.DEF R0X1B=R27
                 	.DEF R0X1C=R28
                 	.DEF R0X1D=R29
                 	.DEF R0X1E=R30
                 	.DEF R0X1F=R31
                 
                 	.EQU __SRAM_START=0x0060
                 	.EQU __SRAM_END=0x025F
                 	.EQU __DSTACK_SIZE=0x0080
                 	.EQU __HEAP_SIZE=0x0000
                 	.EQU __CLEAR_SRAM_SIZE=__SRAM_END-__SRAM_START+1
                 
                 	.MACRO __CPD1N
                 	CPI  R30,LOW(@0)
                 	LDI  R26,HIGH(@0)
                 	CPC  R31,R26
                 	LDI  R26,BYTE3(@0)
                 	CPC  R22,R26
                 	LDI  R26,BYTE4(@0)
                 	CPC  R23,R26
                 	.ENDM
                 
                 	.MACRO __CPD2N
                 	CPI  R26,LOW(@0)
                 	LDI  R30,HIGH(@0)
                 	CPC  R27,R30
                 	LDI  R30,BYTE3(@0)
                 	CPC  R24,R30
                 	LDI  R30,BYTE4(@0)
                 	CPC  R25,R30
                 	.ENDM
                 
                 	.MACRO __CPWRR
                 	CP   R@0,R@2
                 	CPC  R@1,R@3
                 	.ENDM
                 
                 	.MACRO __CPWRN
                 	CPI  R@0,LOW(@2)
                 	LDI  R30,HIGH(@2)
                 	CPC  R@1,R30
                 	.ENDM
                 
                 	.MACRO __ADDB1MN
                 	SUBI R30,LOW(-@0-(@1))
                 	.ENDM
                 
                 	.MACRO __ADDB2MN
                 	SUBI R26,LOW(-@0-(@1))
                 	.ENDM
                 
                 	.MACRO __ADDW1MN
                 	SUBI R30,LOW(-@0-(@1))
                 	SBCI R31,HIGH(-@0-(@1))
                 	.ENDM
                 
                 	.MACRO __ADDW2MN
                 	SUBI R26,LOW(-@0-(@1))
                 	SBCI R27,HIGH(-@0-(@1))
                 	.ENDM
                 
                 	.MACRO __ADDW1FN
                 	SUBI R30,LOW(-2*@0-(@1))
                 	SBCI R31,HIGH(-2*@0-(@1))
                 	.ENDM
                 
                 	.MACRO __ADDD1FN
                 	SUBI R30,LOW(-2*@0-(@1))
                 	SBCI R31,HIGH(-2*@0-(@1))
                 	SBCI R22,BYTE3(-2*@0-(@1))
                 	.ENDM
                 
                 	.MACRO __ADDD1N
                 	SUBI R30,LOW(-@0)
                 	SBCI R31,HIGH(-@0)
                 	SBCI R22,BYTE3(-@0)
                 	SBCI R23,BYTE4(-@0)
                 	.ENDM
                 
                 	.MACRO __ADDD2N
                 	SUBI R26,LOW(-@0)
                 	SBCI R27,HIGH(-@0)
                 	SBCI R24,BYTE3(-@0)
                 	SBCI R25,BYTE4(-@0)
                 	.ENDM
                 
                 	.MACRO __SUBD1N
                 	SUBI R30,LOW(@0)
                 	SBCI R31,HIGH(@0)
                 	SBCI R22,BYTE3(@0)
                 	SBCI R23,BYTE4(@0)
                 	.ENDM
                 
                 	.MACRO __SUBD2N
                 	SUBI R26,LOW(@0)
                 	SBCI R27,HIGH(@0)
                 	SBCI R24,BYTE3(@0)
                 	SBCI R25,BYTE4(@0)
                 	.ENDM
                 
                 	.MACRO __ANDBMNN
                 	LDS  R30,@0+(@1)
                 	ANDI R30,LOW(@2)
                 	STS  @0+(@1),R30
                 	.ENDM
                 
                 	.MACRO __ANDWMNN
                 	LDS  R30,@0+(@1)
                 	ANDI R30,LOW(@2)
                 	STS  @0+(@1),R30
                 	LDS  R30,@0+(@1)+1
                 	ANDI R30,HIGH(@2)
                 	STS  @0+(@1)+1,R30
                 	.ENDM
                 
                 	.MACRO __ANDD1N
                 	ANDI R30,LOW(@0)
                 	ANDI R31,HIGH(@0)
                 	ANDI R22,BYTE3(@0)
                 	ANDI R23,BYTE4(@0)
                 	.ENDM
                 
                 	.MACRO __ANDD2N
                 	ANDI R26,LOW(@0)
                 	ANDI R27,HIGH(@0)
                 	ANDI R24,BYTE3(@0)
                 	ANDI R25,BYTE4(@0)
                 	.ENDM
                 
                 	.MACRO __ORBMNN
                 	LDS  R30,@0+(@1)
                 	ORI  R30,LOW(@2)
                 	STS  @0+(@1),R30
                 	.ENDM
                 
                 	.MACRO __ORWMNN
                 	LDS  R30,@0+(@1)
                 	ORI  R30,LOW(@2)
                 	STS  @0+(@1),R30
                 	LDS  R30,@0+(@1)+1
                 	ORI  R30,HIGH(@2)
                 	STS  @0+(@1)+1,R30
                 	.ENDM
                 
                 	.MACRO __ORD1N
                 	ORI  R30,LOW(@0)
                 	ORI  R31,HIGH(@0)
                 	ORI  R22,BYTE3(@0)
                 	ORI  R23,BYTE4(@0)
                 	.ENDM
                 
                 	.MACRO __ORD2N
                 	ORI  R26,LOW(@0)
                 	ORI  R27,HIGH(@0)
                 	ORI  R24,BYTE3(@0)
                 	ORI  R25,BYTE4(@0)
                 	.ENDM
                 
                 	.MACRO __DELAY_USB
                 	LDI  R24,LOW(@0)
                 __DELAY_USB_LOOP:
                 	DEC  R24
                 	BRNE __DELAY_USB_LOOP
                 	.ENDM
                 
                 	.MACRO __DELAY_USW
                 	LDI  R24,LOW(@0)
                 	LDI  R25,HIGH(@0)
                 __DELAY_USW_LOOP:
                 	SBIW R24,1
                 	BRNE __DELAY_USW_LOOP
                 	.ENDM
                 
                 	.MACRO __GETD1S
                 	LDD  R30,Y+@0
                 	LDD  R31,Y+@0+1
                 	LDD  R22,Y+@0+2
                 	LDD  R23,Y+@0+3
                 	.ENDM
                 
                 	.MACRO __GETD2S
                 	LDD  R26,Y+@0
                 	LDD  R27,Y+@0+1
                 	LDD  R24,Y+@0+2
                 	LDD  R25,Y+@0+3
                 	.ENDM
                 
                 	.MACRO __PUTD1S
                 	STD  Y+@0,R30
                 	STD  Y+@0+1,R31
                 	STD  Y+@0+2,R22
                 	STD  Y+@0+3,R23
                 	.ENDM
                 
                 	.MACRO __PUTD2S
                 	STD  Y+@0,R26
                 	STD  Y+@0+1,R27
                 	STD  Y+@0+2,R24
                 	STD  Y+@0+3,R25
                 	.ENDM
                 
                 	.MACRO __PUTDZ2
                 	STD  Z+@0,R26
                 	STD  Z+@0+1,R27
                 	STD  Z+@0+2,R24
                 	STD  Z+@0+3,R25
                 	.ENDM
                 
                 	.MACRO __CLRD1S
                 	STD  Y+@0,R30
                 	STD  Y+@0+1,R30
                 	STD  Y+@0+2,R30
                 	STD  Y+@0+3,R30
                 	.ENDM
                 
                 	.MACRO __POINTB1MN
                 	LDI  R30,LOW(@0+(@1))
                 	.ENDM
                 
                 	.MACRO __POINTW1MN
                 	LDI  R30,LOW(@0+(@1))
                 	LDI  R31,HIGH(@0+(@1))
                 	.ENDM
                 
                 	.MACRO __POINTD1M
                 	LDI  R30,LOW(@0)
                 	LDI  R31,HIGH(@0)
                 	LDI  R22,BYTE3(@0)
                 	LDI  R23,BYTE4(@0)
                 	.ENDM
                 
                 	.MACRO __POINTW1FN
                 	LDI  R30,LOW(2*@0+(@1))
                 	LDI  R31,HIGH(2*@0+(@1))
                 	.ENDM
                 
                 	.MACRO __POINTD1FN
                 	LDI  R30,LOW(2*@0+(@1))
                 	LDI  R31,HIGH(2*@0+(@1))
                 	LDI  R22,BYTE3(2*@0+(@1))
                 	LDI  R23,BYTE4(2*@0+(@1))
                 	.ENDM
                 
                 	.MACRO __POINTB2MN
                 	LDI  R26,LOW(@0+(@1))
                 	.ENDM
                 
                 	.MACRO __POINTW2MN
                 	LDI  R26,LOW(@0+(@1))
                 	LDI  R27,HIGH(@0+(@1))
                 	.ENDM
                 
                 	.MACRO __POINTW2FN
                 	LDI  R26,LOW(2*@0+(@1))
                 	LDI  R27,HIGH(2*@0+(@1))
                 	.ENDM
                 
                 	.MACRO __POINTD2FN
                 	LDI  R26,LOW(2*@0+(@1))
                 	LDI  R27,HIGH(2*@0+(@1))
                 	LDI  R24,BYTE3(2*@0+(@1))
                 	LDI  R25,BYTE4(2*@0+(@1))
                 	.ENDM
                 
                 	.MACRO __POINTBRM
                 	LDI  R@0,LOW(@1)
                 	.ENDM
                 
                 	.MACRO __POINTWRM
                 	LDI  R@0,LOW(@2)
                 	LDI  R@1,HIGH(@2)
                 	.ENDM
                 
                 	.MACRO __POINTBRMN
                 	LDI  R@0,LOW(@1+(@2))
                 	.ENDM
                 
                 	.MACRO __POINTWRMN
                 	LDI  R@0,LOW(@2+(@3))
                 	LDI  R@1,HIGH(@2+(@3))
                 	.ENDM
                 
                 	.MACRO __POINTWRFN
                 	LDI  R@0,LOW(@2*2+(@3))
                 	LDI  R@1,HIGH(@2*2+(@3))
                 	.ENDM
                 
                 	.MACRO __GETD1N
                 	LDI  R30,LOW(@0)
                 	LDI  R31,HIGH(@0)
                 	LDI  R22,BYTE3(@0)
                 	LDI  R23,BYTE4(@0)
                 	.ENDM
                 
                 	.MACRO __GETD2N
                 	LDI  R26,LOW(@0)
                 	LDI  R27,HIGH(@0)
                 	LDI  R24,BYTE3(@0)
                 	LDI  R25,BYTE4(@0)
                 	.ENDM
                 
                 	.MACRO __GETB1MN
                 	LDS  R30,@0+(@1)
                 	.ENDM
                 
                 	.MACRO __GETB1HMN
                 	LDS  R31,@0+(@1)
                 	.ENDM
                 
                 	.MACRO __GETW1MN
                 	LDS  R30,@0+(@1)
                 	LDS  R31,@0+(@1)+1
                 	.ENDM
                 
                 	.MACRO __GETD1MN
                 	LDS  R30,@0+(@1)
                 	LDS  R31,@0+(@1)+1
                 	LDS  R22,@0+(@1)+2
                 	LDS  R23,@0+(@1)+3
                 	.ENDM
                 
                 	.MACRO __GETBRMN
                 	LDS  R@0,@1+(@2)
                 	.ENDM
                 
                 	.MACRO __GETWRMN
                 	LDS  R@0,@2+(@3)
                 	LDS  R@1,@2+(@3)+1
                 	.ENDM
                 
                 	.MACRO __GETWRZ
                 	LDD  R@0,Z+@2
                 	LDD  R@1,Z+@2+1
                 	.ENDM
                 
                 	.MACRO __GETD2Z
                 	LDD  R26,Z+@0
                 	LDD  R27,Z+@0+1
                 	LDD  R24,Z+@0+2
                 	LDD  R25,Z+@0+3
                 	.ENDM
                 
                 	.MACRO __GETB2MN
                 	LDS  R26,@0+(@1)
                 	.ENDM
                 
                 	.MACRO __GETW2MN
                 	LDS  R26,@0+(@1)
                 	LDS  R27,@0+(@1)+1
                 	.ENDM
                 
                 	.MACRO __GETD2MN
                 	LDS  R26,@0+(@1)
                 	LDS  R27,@0+(@1)+1
                 	LDS  R24,@0+(@1)+2
                 	LDS  R25,@0+(@1)+3
                 	.ENDM
                 
                 	.MACRO __PUTB1MN
                 	STS  @0+(@1),R30
                 	.ENDM
                 
                 	.MACRO __PUTW1MN
                 	STS  @0+(@1),R30
                 	STS  @0+(@1)+1,R31
                 	.ENDM
                 
                 	.MACRO __PUTD1MN
                 	STS  @0+(@1),R30
                 	STS  @0+(@1)+1,R31
                 	STS  @0+(@1)+2,R22
                 	STS  @0+(@1)+3,R23
                 	.ENDM
                 
                 	.MACRO __PUTB1EN
                 	LDI  R26,LOW(@0+(@1))
                 	LDI  R27,HIGH(@0+(@1))
                 	RCALL __EEPROMWRB
                 	.ENDM
                 
                 	.MACRO __PUTW1EN
                 	LDI  R26,LOW(@0+(@1))
                 	LDI  R27,HIGH(@0+(@1))
                 	RCALL __EEPROMWRW
                 	.ENDM
                 
                 	.MACRO __PUTD1EN
                 	LDI  R26,LOW(@0+(@1))
                 	LDI  R27,HIGH(@0+(@1))
                 	RCALL __EEPROMWRD
                 	.ENDM
                 
                 	.MACRO __PUTBR0MN
                 	STS  @0+(@1),R0
                 	.ENDM
                 
                 	.MACRO __PUTBMRN
                 	STS  @0+(@1),R@2
                 	.ENDM
                 
                 	.MACRO __PUTWMRN
                 	STS  @0+(@1),R@2
                 	STS  @0+(@1)+1,R@3
                 	.ENDM
                 
                 	.MACRO __PUTBZR
                 	STD  Z+@1,R@0
                 	.ENDM
                 
                 	.MACRO __PUTWZR
                 	STD  Z+@2,R@0
                 	STD  Z+@2+1,R@1
                 	.ENDM
                 
                 	.MACRO __GETW1R
                 	MOV  R30,R@0
                 	MOV  R31,R@1
                 	.ENDM
                 
                 	.MACRO __GETW2R
                 	MOV  R26,R@0
                 	MOV  R27,R@1
                 	.ENDM
                 
                 	.MACRO __GETWRN
                 	LDI  R@0,LOW(@2)
                 	LDI  R@1,HIGH(@2)
                 	.ENDM
                 
                 	.MACRO __PUTW1R
                 	MOV  R@0,R30
                 	MOV  R@1,R31
                 	.ENDM
                 
                 	.MACRO __PUTW2R
                 	MOV  R@0,R26
                 	MOV  R@1,R27
                 	.ENDM
                 
                 	.MACRO __ADDWRN
                 	SUBI R@0,LOW(-@2)
                 	SBCI R@1,HIGH(-@2)
                 	.ENDM
                 
                 	.MACRO __ADDWRR
                 	ADD  R@0,R@2
                 	ADC  R@1,R@3
                 	.ENDM
                 
                 	.MACRO __SUBWRN
                 	SUBI R@0,LOW(@2)
                 	SBCI R@1,HIGH(@2)
                 	.ENDM
                 
                 	.MACRO __SUBWRR
                 	SUB  R@0,R@2
                 	SBC  R@1,R@3
                 	.ENDM
                 
                 	.MACRO __ANDWRN
                 	ANDI R@0,LOW(@2)
                 	ANDI R@1,HIGH(@2)
                 	.ENDM
                 
                 	.MACRO __ANDWRR
                 	AND  R@0,R@2
                 	AND  R@1,R@3
                 	.ENDM
                 
                 	.MACRO __ORWRN
                 	ORI  R@0,LOW(@2)
                 	ORI  R@1,HIGH(@2)
                 	.ENDM
                 
                 	.MACRO __ORWRR
                 	OR   R@0,R@2
                 	OR   R@1,R@3
                 	.ENDM
                 
                 	.MACRO __EORWRR
                 	EOR  R@0,R@2
                 	EOR  R@1,R@3
                 	.ENDM
                 
                 	.MACRO __GETWRS
                 	LDD  R@0,Y+@2
                 	LDD  R@1,Y+@2+1
                 	.ENDM
                 
                 	.MACRO __PUTBSR
                 	STD  Y+@1,R@0
                 	.ENDM
                 
                 	.MACRO __PUTWSR
                 	STD  Y+@2,R@0
                 	STD  Y+@2+1,R@1
                 	.ENDM
                 
                 	.MACRO __MOVEWRR
                 	MOV  R@0,R@2
                 	MOV  R@1,R@3
                 	.ENDM
                 
                 	.MACRO __INWR
                 	IN   R@0,@2
                 	IN   R@1,@2+1
                 	.ENDM
                 
                 	.MACRO __OUTWR
                 	OUT  @2+1,R@1
                 	OUT  @2,R@0
                 	.ENDM
                 
                 	.MACRO __CALL1MN
                 	LDS  R30,@0+(@1)
                 	LDS  R31,@0+(@1)+1
                 	ICALL
                 	.ENDM
                 
                 	.MACRO __CALL1FN
                 	LDI  R30,LOW(2*@0+(@1))
                 	LDI  R31,HIGH(2*@0+(@1))
                 	RCALL __GETW1PF
                 	ICALL
                 	.ENDM
                 
                 	.MACRO __CALL2EN
                 	LDI  R26,LOW(@0+(@1))
                 	LDI  R27,HIGH(@0+(@1))
                 	RCALL __EEPROMRDW
                 	ICALL
                 	.ENDM
                 
                 	.MACRO __GETW1STACK
                 	IN   R26,SPL
                 	IN   R27,SPH
                 	ADIW R26,@0+1
                 	LD   R30,X+
                 	LD   R31,X
                 	.ENDM
                 
                 	.MACRO __GETD1STACK
                 	IN   R26,SPL
                 	IN   R27,SPH
                 	ADIW R26,@0+1
                 	LD   R30,X+
                 	LD   R31,X+
                 	LD   R22,X
                 	.ENDM
                 
                 	.MACRO __NBST
                 	BST  R@0,@1
                 	IN   R30,SREG
                 	LDI  R31,0x40
                 	EOR  R30,R31
                 	OUT  SREG,R30
                 	.ENDM
                 
                 
                 	.MACRO __PUTB1SN
                 	LDD  R26,Y+@0
                 	LDD  R27,Y+@0+1
                 	SUBI R26,LOW(-@1)
                 	SBCI R27,HIGH(-@1)
                 	ST   X,R30
                 	.ENDM
                 
                 	.MACRO __PUTW1SN
                 	LDD  R26,Y+@0
                 	LDD  R27,Y+@0+1
                 	SUBI R26,LOW(-@1)
                 	SBCI R27,HIGH(-@1)
                 	ST   X+,R30
                 	ST   X,R31
                 	.ENDM
                 
                 	.MACRO __PUTD1SN
                 	LDD  R26,Y+@0
                 	LDD  R27,Y+@0+1
                 	SUBI R26,LOW(-@1)
                 	SBCI R27,HIGH(-@1)
                 	RCALL __PUTDP1
                 	.ENDM
                 
                 	.MACRO __PUTB1SNS
                 	LDD  R26,Y+@0
                 	LDD  R27,Y+@0+1
                 	ADIW R26,@1
                 	ST   X,R30
                 	.ENDM
                 
                 	.MACRO __PUTW1SNS
                 	LDD  R26,Y+@0
                 	LDD  R27,Y+@0+1
                 	ADIW R26,@1
                 	ST   X+,R30
                 	ST   X,R31
                 	.ENDM
                 
                 	.MACRO __PUTD1SNS
                 	LDD  R26,Y+@0
                 	LDD  R27,Y+@0+1
                 	ADIW R26,@1
                 	RCALL __PUTDP1
                 	.ENDM
                 
                 	.MACRO __PUTB1PMN
                 	LDS  R26,@0
                 	LDS  R27,@0+1
                 	SUBI R26,LOW(-@1)
                 	SBCI R27,HIGH(-@1)
                 	ST   X,R30
                 	.ENDM
                 
                 	.MACRO __PUTW1PMN
                 	LDS  R26,@0
                 	LDS  R27,@0+1
                 	SUBI R26,LOW(-@1)
                 	SBCI R27,HIGH(-@1)
                 	ST   X+,R30
                 	ST   X,R31
                 	.ENDM
                 
                 	.MACRO __PUTD1PMN
                 	LDS  R26,@0
                 	LDS  R27,@0+1
                 	SUBI R26,LOW(-@1)
                 	SBCI R27,HIGH(-@1)
                 	RCALL __PUTDP1
                 	.ENDM
                 
                 	.MACRO __PUTB1PMNS
                 	LDS  R26,@0
                 	LDS  R27,@0+1
                 	ADIW R26,@1
                 	ST   X,R30
                 	.ENDM
                 
                 	.MACRO __PUTW1PMNS
                 	LDS  R26,@0
                 	LDS  R27,@0+1
                 	ADIW R26,@1
                 	ST   X+,R30
                 	ST   X,R31
                 	.ENDM
                 
                 	.MACRO __PUTD1PMNS
                 	LDS  R26,@0
                 	LDS  R27,@0+1
                 	ADIW R26,@1
                 	RCALL __PUTDP1
                 	.ENDM
                 
                 	.MACRO __PUTB1RN
                 	MOVW R26,R@0
                 	SUBI R26,LOW(-@1)
                 	SBCI R27,HIGH(-@1)
                 	ST   X,R30
                 	.ENDM
                 
                 	.MACRO __PUTW1RN
                 	MOVW R26,R@0
                 	SUBI R26,LOW(-@1)
                 	SBCI R27,HIGH(-@1)
                 	ST   X+,R30
                 	ST   X,R31
                 	.ENDM
                 
                 	.MACRO __PUTD1RN
                 	MOVW R26,R@0
                 	SUBI R26,LOW(-@1)
                 	SBCI R27,HIGH(-@1)
                 	RCALL __PUTDP1
                 	.ENDM
                 
                 	.MACRO __PUTB1RNS
                 	MOVW R26,R@0
                 	ADIW R26,@1
                 	ST   X,R30
                 	.ENDM
                 
                 	.MACRO __PUTW1RNS
                 	MOVW R26,R@0
                 	ADIW R26,@1
                 	ST   X+,R30
                 	ST   X,R31
                 	.ENDM
                 
                 	.MACRO __PUTD1RNS
                 	MOVW R26,R@0
                 	ADIW R26,@1
                 	RCALL __PUTDP1
                 	.ENDM
                 
                 	.MACRO __PUTB1RON
                 	MOV  R26,R@0
                 	MOV  R27,R@1
                 	SUBI R26,LOW(-@2)
                 	SBCI R27,HIGH(-@2)
                 	ST   X,R30
                 	.ENDM
                 
                 	.MACRO __PUTW1RON
                 	MOV  R26,R@0
                 	MOV  R27,R@1
                 	SUBI R26,LOW(-@2)
                 	SBCI R27,HIGH(-@2)
                 	ST   X+,R30
                 	ST   X,R31
                 	.ENDM
                 
                 	.MACRO __PUTD1RON
                 	MOV  R26,R@0
                 	MOV  R27,R@1
                 	SUBI R26,LOW(-@2)
                 	SBCI R27,HIGH(-@2)
                 	RCALL __PUTDP1
                 	.ENDM
                 
                 	.MACRO __PUTB1RONS
                 	MOV  R26,R@0
                 	MOV  R27,R@1
                 	ADIW R26,@2
                 	ST   X,R30
                 	.ENDM
                 
                 	.MACRO __PUTW1RONS
                 	MOV  R26,R@0
                 	MOV  R27,R@1
                 	ADIW R26,@2
                 	ST   X+,R30
                 	ST   X,R31
                 	.ENDM
                 
                 	.MACRO __PUTD1RONS
                 	MOV  R26,R@0
                 	MOV  R27,R@1
                 	ADIW R26,@2
                 	RCALL __PUTDP1
                 	.ENDM
                 
                 
                 	.MACRO __GETB1SX
                 	MOVW R30,R28
                 	SUBI R30,LOW(-@0)
                 	SBCI R31,HIGH(-@0)
                 	LD   R30,Z
                 	.ENDM
                 
                 	.MACRO __GETB1HSX
                 	MOVW R30,R28
                 	SUBI R30,LOW(-@0)
                 	SBCI R31,HIGH(-@0)
                 	LD   R31,Z
                 	.ENDM
                 
                 	.MACRO __GETW1SX
                 	MOVW R30,R28
                 	SUBI R30,LOW(-@0)
                 	SBCI R31,HIGH(-@0)
                 	LD   R0,Z+
                 	LD   R31,Z
                 	MOV  R30,R0
                 	.ENDM
                 
                 	.MACRO __GETD1SX
                 	MOVW R30,R28
                 	SUBI R30,LOW(-@0)
                 	SBCI R31,HIGH(-@0)
                 	LD   R0,Z+
                 	LD   R1,Z+
                 	LD   R22,Z+
                 	LD   R23,Z
                 	MOVW R30,R0
                 	.ENDM
                 
                 	.MACRO __GETB2SX
                 	MOVW R26,R28
                 	SUBI R26,LOW(-@0)
                 	SBCI R27,HIGH(-@0)
                 	LD   R26,X
                 	.ENDM
                 
                 	.MACRO __GETW2SX
                 	MOVW R26,R28
                 	SUBI R26,LOW(-@0)
                 	SBCI R27,HIGH(-@0)
                 	LD   R0,X+
                 	LD   R27,X
                 	MOV  R26,R0
                 	.ENDM
                 
                 	.MACRO __GETD2SX
                 	MOVW R26,R28
                 	SUBI R26,LOW(-@0)
                 	SBCI R27,HIGH(-@0)
                 	LD   R0,X+
                 	LD   R1,X+
                 	LD   R24,X+
                 	LD   R25,X
                 	MOVW R26,R0
                 	.ENDM
                 
                 	.MACRO __GETBRSX
                 	MOVW R30,R28
                 	SUBI R30,LOW(-@1)
                 	SBCI R31,HIGH(-@1)
                 	LD   R@0,Z
                 	.ENDM
                 
                 	.MACRO __GETWRSX
                 	MOVW R30,R28
                 	SUBI R30,LOW(-@2)
                 	SBCI R31,HIGH(-@2)
                 	LD   R@0,Z+
                 	LD   R@1,Z
                 	.ENDM
                 
                 	.MACRO __GETBRSX2
                 	MOVW R26,R28
                 	SUBI R26,LOW(-@1)
                 	SBCI R27,HIGH(-@1)
                 	LD   R@0,X
                 	.ENDM
                 
                 	.MACRO __GETWRSX2
                 	MOVW R26,R28
                 	SUBI R26,LOW(-@2)
                 	SBCI R27,HIGH(-@2)
                 	LD   R@0,X+
                 	LD   R@1,X
                 	.ENDM
                 
                 	.MACRO __LSLW8SX
                 	MOVW R30,R28
                 	SUBI R30,LOW(-@0)
                 	SBCI R31,HIGH(-@0)
                 	LD   R31,Z
                 	CLR  R30
                 	.ENDM
                 
                 	.MACRO __PUTB1SX
                 	MOVW R26,R28
                 	SUBI R26,LOW(-@0)
                 	SBCI R27,HIGH(-@0)
                 	ST   X,R30
                 	.ENDM
                 
                 	.MACRO __PUTW1SX
                 	MOVW R26,R28
                 	SUBI R26,LOW(-@0)
                 	SBCI R27,HIGH(-@0)
                 	ST   X+,R30
                 	ST   X,R31
                 	.ENDM
                 
                 	.MACRO __PUTD1SX
                 	MOVW R26,R28
                 	SUBI R26,LOW(-@0)
                 	SBCI R27,HIGH(-@0)
                 	ST   X+,R30
                 	ST   X+,R31
                 	ST   X+,R22
                 	ST   X,R23
                 	.ENDM
                 
                 	.MACRO __CLRW1SX
                 	MOVW R26,R28
                 	SUBI R26,LOW(-@0)
                 	SBCI R27,HIGH(-@0)
                 	ST   X+,R30
                 	ST   X,R30
                 	.ENDM
                 
                 	.MACRO __CLRD1SX
                 	MOVW R26,R28
                 	SUBI R26,LOW(-@0)
                 	SBCI R27,HIGH(-@0)
                 	ST   X+,R30
                 	ST   X+,R30
                 	ST   X+,R30
                 	ST   X,R30
                 	.ENDM
                 
                 	.MACRO __PUTB2SX
                 	MOVW R30,R28
                 	SUBI R30,LOW(-@0)
                 	SBCI R31,HIGH(-@0)
                 	ST   Z,R26
                 	.ENDM
                 
                 	.MACRO __PUTW2SX
                 	MOVW R30,R28
                 	SUBI R30,LOW(-@0)
                 	SBCI R31,HIGH(-@0)
                 	ST   Z+,R26
                 	ST   Z,R27
                 	.ENDM
                 
                 	.MACRO __PUTD2SX
                 	MOVW R30,R28
                 	SUBI R30,LOW(-@0)
                 	SBCI R31,HIGH(-@0)
                 	ST   Z+,R26
                 	ST   Z+,R27
                 	ST   Z+,R24
                 	ST   Z,R25
                 	.ENDM
                 
                 	.MACRO __PUTBSRX
                 	MOVW R30,R28
                 	SUBI R30,LOW(-@1)
                 	SBCI R31,HIGH(-@1)
                 	ST   Z,R@0
                 	.ENDM
                 
                 	.MACRO __PUTWSRX
                 	MOVW R30,R28
                 	SUBI R30,LOW(-@2)
                 	SBCI R31,HIGH(-@2)
                 	ST   Z+,R@0
                 	ST   Z,R@1
                 	.ENDM
                 
                 	.MACRO __PUTB1SNX
                 	MOVW R26,R28
                 	SUBI R26,LOW(-@0)
                 	SBCI R27,HIGH(-@0)
                 	LD   R0,X+
                 	LD   R27,X
                 	MOV  R26,R0
                 	SUBI R26,LOW(-@1)
                 	SBCI R27,HIGH(-@1)
                 	ST   X,R30
                 	.ENDM
                 
                 	.MACRO __PUTW1SNX
                 	MOVW R26,R28
                 	SUBI R26,LOW(-@0)
                 	SBCI R27,HIGH(-@0)
                 	LD   R0,X+
                 	LD   R27,X
                 	MOV  R26,R0
                 	SUBI R26,LOW(-@1)
                 	SBCI R27,HIGH(-@1)
                 	ST   X+,R30
                 	ST   X,R31
                 	.ENDM
                 
                 	.MACRO __PUTD1SNX
                 	MOVW R26,R28
                 	SUBI R26,LOW(-@0)
                 	SBCI R27,HIGH(-@0)
                 	LD   R0,X+
                 	LD   R27,X
                 	MOV  R26,R0
                 	SUBI R26,LOW(-@1)
                 	SBCI R27,HIGH(-@1)
                 	ST   X+,R30
                 	ST   X+,R31
                 	ST   X+,R22
                 	ST   X,R23
                 	.ENDM
                 
                 	.MACRO __MULBRR
                 	MULS R@0,R@1
                 	MOVW R30,R0
                 	.ENDM
                 
                 	.MACRO __MULBRRU
                 	MUL  R@0,R@1
                 	MOVW R30,R0
                 	.ENDM
                 
                 	.MACRO __MULBRR0
                 	MULS R@0,R@1
                 	.ENDM
                 
                 	.MACRO __MULBRRU0
                 	MUL  R@0,R@1
                 	.ENDM
                 
                 	.MACRO __MULBNWRU
                 	LDI  R26,@2
                 	MUL  R26,R@0
                 	MOVW R30,R0
                 	MUL  R26,R@1
                 	ADD  R31,R0
                 	.ENDM
                 
                 ;NAME DEFINITIONS FOR GLOBAL VARIABLES ALLOCATED TO REGISTERS
                 	.DEF _dd0=R5
                 	.DEF _dd1=R4
                 	.DEF _dd2=R7
                 	.DEF _dd3=R6
                 	.DEF _dat=R9
                 	.DEF _dut=R8
                 	.DEF _sayap=R11
                 	.DEF _sensor=R10
                 	.DEF _x=R13
                 	.DEF __lcd_x=R12
                 
                 	.CSEG
                 	.ORG 0x00
                 
                 ;START OF CODE MARKER
                 __START_OF_CODE:
                 
                 ;INTERRUPT VECTORS
000000 c09a      	RJMP __RESET
000001 cffe      	RJMP 0x00
000002 cffd      	RJMP 0x00
000003 cffc      	RJMP 0x00
000004 cffb      	RJMP 0x00
000005 cffa      	RJMP 0x00
000006 cff9      	RJMP 0x00
000007 cff8      	RJMP 0x00
000008 cff7      	RJMP 0x00
000009 cff6      	RJMP 0x00
00000a cff5      	RJMP 0x00
00000b cff4      	RJMP 0x00
00000c cff3      	RJMP 0x00
00000d cff2      	RJMP 0x00
00000e cff1      	RJMP 0x00
00000f cff0      	RJMP 0x00
000010 cfef      	RJMP 0x00
000011 cfee      	RJMP 0x00
000012 cfed      	RJMP 0x00
000013 cfec      	RJMP 0x00
000014 cfeb      	RJMP 0x00
                 
                 _tbl10_G100:
000015 2710
000016 03e8
000017 0064
000018 000a      	.DB  0x10,0x27,0xE8,0x3,0x64,0x0,0xA,0x0
000019 0001      	.DB  0x1,0x0
                 _tbl16_G100:
00001a 1000
00001b 0100
00001c 0010
00001d 0001      	.DB  0x0,0x10,0x0,0x1,0x10,0x0,0x1,0x0
                 
                 _0x0:
00001e 505e
00001f 4449
000020 2620
000021 4f20      	.DB  0x5E,0x50,0x49,0x44,0x20,0x26,0x20,0x4F
000022 6874
000023 7265
000024 005e
000025 2e31      	.DB  0x74,0x68,0x65,0x72,0x5E,0x0,0x31,0x2E
000026 6553
000027 7474
000028 5020
000029 4449      	.DB  0x53,0x65,0x74,0x74,0x20,0x50,0x49,0x44
00002a 3200
00002b 532e
00002c 7465
00002d 2074      	.DB  0x0,0x32,0x2E,0x53,0x65,0x74,0x74,0x20
00002e 7053
00002f 6565
000030 0064
000031 2e33      	.DB  0x53,0x70,0x65,0x65,0x64,0x0,0x33,0x2E
000032 6553
000033 7474
000034 4120
000035 4344      	.DB  0x53,0x65,0x74,0x74,0x20,0x41,0x44,0x43
000036 3400
000037 522e
000038 7365
000039 7465      	.DB  0x0,0x34,0x2E,0x52,0x65,0x73,0x65,0x74
00003a 4520
00003b 5045
00003c 4f52
00003d 004d      	.DB  0x20,0x45,0x45,0x50,0x52,0x4F,0x4D,0x0
00003e 6552
00003f 6573
000040 2074
000041 7553      	.DB  0x52,0x65,0x73,0x65,0x74,0x20,0x53,0x75
000042 6363
000043 7365
000044 8573
000045 6b00      	.DB  0x63,0x63,0x65,0x73,0x73,0x85,0x0,0x6B
000046 3a70
000047 6425
000048 0020
000049 696b      	.DB  0x70,0x3A,0x25,0x64,0x20,0x0,0x6B,0x69
00004a 253a
00004b 2064
00004c 6b00
00004d 3a64      	.DB  0x3A,0x25,0x64,0x20,0x0,0x6B,0x64,0x3A
00004e 6425
00004f 0020
000050 7354
000051 253a      	.DB  0x25,0x64,0x20,0x0,0x54,0x73,0x3A,0x25
000052 2064
000053 5300
000054 6570
000055 6465      	.DB  0x64,0x20,0x0,0x53,0x70,0x65,0x65,0x64
000056 253a
000057 2064
000058 5300
000059 4e45      	.DB  0x3A,0x25,0x64,0x20,0x0,0x53,0x45,0x4E
00005a 3a53
00005b 4100
00005c 4344
00005d 255f      	.DB  0x53,0x3A,0x0,0x41,0x44,0x43,0x5F,0x25
00005e 3d64
00005f 3325
000060 2064
000061 202c      	.DB  0x64,0x3D,0x25,0x33,0x64,0x20,0x2C,0x20
000062 3325
000063 0064
000064 706b
000065 6b20      	.DB  0x25,0x33,0x64,0x0,0x6B,0x70,0x20,0x6B
000066 2069
000067 646b
000068 2500
000069 6433      	.DB  0x69,0x20,0x6B,0x64,0x0,0x25,0x33,0x64
00006a 2520
00006b 6433
00006c 2520
00006d 6435      	.DB  0x20,0x25,0x33,0x64,0x20,0x25,0x35,0x64
00006e 5300
00006f 6570
000070 6465
000071 5420      	.DB  0x0,0x53,0x70,0x65,0x65,0x64,0x20,0x54
000072 0073
000073 3325
000074 2064
000075 6425      	.DB  0x73,0x0,0x25,0x33,0x64,0x20,0x25,0x64
000076 5200
000077 6165
000078 2064
000079 6f43      	.DB  0x0,0x52,0x65,0x61,0x64,0x20,0x43,0x6F
00007a 706d
00007b 656c
00007c 6574
00007d 5400      	.DB  0x6D,0x70,0x6C,0x65,0x74,0x65,0x0,0x54
00007e 4b45
00007f 4e41
000080 4f20
000081 214b      	.DB  0x45,0x4B,0x41,0x4E,0x20,0x4F,0x4B,0x21
000082 4c00
000083 3325
000084 2064
000085 2552      	.DB  0x0,0x4C,0x25,0x33,0x64,0x20,0x52,0x25
000086 6433
000087 7020
000088 3325
000089 0064      	.DB  0x33,0x64,0x20,0x70,0x25,0x33,0x64,0x0
00008a 6353
00008b 6e61
00008c 4720
00008d 7261      	.DB  0x53,0x63,0x61,0x6E,0x20,0x47,0x61,0x72
00008e 7369
00008f 4800
000090 7469
000091 6d61      	.DB  0x69,0x73,0x0,0x48,0x69,0x74,0x61,0x6D
000092 5000
000093 7475
000094 6869
D:\Ngampus\Workspace\AVR\Coding\2\List\c.asm(1146): warning: .cseg .db misalignment - padding zero byte
000095 0000      	.DB  0x0,0x50,0x75,0x74,0x69,0x68,0x0
                 _0x2020003:
000096 c080      	.DB  0x80,0xC0
                 
                 __GLOBAL_INI_TBL:
000097 0002      	.DW  0x02
000098 0147      	.DW  __base_y_G101
000099 012c      	.DW  _0x2020003*2
                 
                 _0xFFFFFFFF:
00009a 0000      	.DW  0
                 
                 __RESET:
00009b 94f8      	CLI
00009c 27ee      	CLR  R30
00009d bbec      	OUT  EECR,R30
                 
                 ;INTERRUPT VECTORS ARE PLACED
                 ;AT THE START OF FLASH
00009e e0f1      	LDI  R31,1
00009f bffb      	OUT  GICR,R31
0000a0 bfeb      	OUT  GICR,R30
0000a1 bfe5      	OUT  MCUCR,R30
                 
                 ;DISABLE WATCHDOG
0000a2 e1f8      	LDI  R31,0x18
0000a3 bdf1      	OUT  WDTCR,R31
0000a4 bde1      	OUT  WDTCR,R30
                 
                 ;CLEAR R2-R14
0000a5 e08d      	LDI  R24,(14-2)+1
0000a6 e0a2      	LDI  R26,2
0000a7 27bb      	CLR  R27
                 __CLEAR_REG:
0000a8 93ed      	ST   X+,R30
0000a9 958a      	DEC  R24
0000aa f7e9      	BRNE __CLEAR_REG
                 
                 ;CLEAR SRAM
0000ab e080      	LDI  R24,LOW(__CLEAR_SRAM_SIZE)
0000ac e092      	LDI  R25,HIGH(__CLEAR_SRAM_SIZE)
0000ad e6a0      	LDI  R26,__SRAM_START
                 __CLEAR_SRAM:
0000ae 93ed      	ST   X+,R30
0000af 9701      	SBIW R24,1
0000b0 f7e9      	BRNE __CLEAR_SRAM
                 
                 ;GLOBAL VARIABLES INITIALIZATION
0000b1 e2ee      	LDI  R30,LOW(__GLOBAL_INI_TBL*2)
0000b2 e0f1      	LDI  R31,HIGH(__GLOBAL_INI_TBL*2)
                 __GLOBAL_INI_NEXT:
0000b3 9185      	LPM  R24,Z+
0000b4 9195      	LPM  R25,Z+
0000b5 9700      	SBIW R24,0
0000b6 f061      	BREQ __GLOBAL_INI_END
0000b7 91a5      	LPM  R26,Z+
0000b8 91b5      	LPM  R27,Z+
0000b9 9005      	LPM  R0,Z+
0000ba 9015      	LPM  R1,Z+
0000bb 01bf      	MOVW R22,R30
0000bc 01f0      	MOVW R30,R0
                 __GLOBAL_INI_LOOP:
0000bd 9005      	LPM  R0,Z+
0000be 920d      	ST   X+,R0
0000bf 9701      	SBIW R24,1
0000c0 f7e1      	BRNE __GLOBAL_INI_LOOP
0000c1 01fb      	MOVW R30,R22
0000c2 cff0      	RJMP __GLOBAL_INI_NEXT
                 __GLOBAL_INI_END:
                 
                 ;HARDWARE STACK POINTER INITIALIZATION
0000c3 e5ef      	LDI  R30,LOW(__SRAM_END-__HEAP_SIZE)
0000c4 bfed      	OUT  SPL,R30
0000c5 e0e2      	LDI  R30,HIGH(__SRAM_END-__HEAP_SIZE)
0000c6 bfee      	OUT  SPH,R30
                 
                 ;DATA STACK POINTER INITIALIZATION
0000c7 eec0      	LDI  R28,LOW(__SRAM_START+__DSTACK_SIZE)
0000c8 e0d0      	LDI  R29,HIGH(__SRAM_START+__DSTACK_SIZE)
                 
0000c9 c5b6      	RJMP _main
                 
                 	.ESEG
                 	.ORG 0
                 
                 	.DSEG
                 	.ORG 0xE0
                 
                 	.CSEG
                 ;/*****************************************************
                 ;This program was produced by the
                 ;CodeWizardAVR V2.05.3 Standard
                 ;Automatic Program Generator
                 ;© Copyright 1998-2011 Pavel Haiduc, HP InfoTech s.r.l.
                 ;http://www.hpinfotech.com
                 ;
                 ;Project :
                 ;Version :
                 ;Date    : 29-Aug-2015
                 ;Author  : flo
                 ;Company : syndrome
                 ;Comments:
                 ;
                 ;
                 ;Chip type               : ATmega8535L
                 ;Program type            : Application
                 ;AVR Core Clock frequency: 12.000000 MHz
                 ;Memory model            : Small
                 ;External RAM size       : 0
                 ;Data Stack size         : 128
                 ;*****************************************************/
                 ;
                 ;#include <mega32.h>
                 	#ifndef __SLEEP_DEFINED__
                 	#define __SLEEP_DEFINED__
                 	.EQU __se_bit=0x80
                 	.EQU __sm_mask=0x70
                 	.EQU __sm_powerdown=0x20
                 	.EQU __sm_powersave=0x30
                 	.EQU __sm_standby=0x60
                 	.EQU __sm_ext_standby=0x70
                 	.EQU __sm_adc_noise_red=0x10
                 	.SET power_ctrl_reg=mcucr
                 	#endif
                 ;
                 ;#include <delay.h>
                 ;#include <stdio.h>
                 ;
                 ;#define down PINB.3
                 ;#define up PINB.2
                 ;#define cancel PINB.1
                 ;#define ok PINB.0
                 ;#define Lampu PORTD.7
                 ;#define Lpwm OCR1B
                 ;#define Rpwm OCR1A
                 ;#define Low 50
                 ;#define High 150
                 ;#define Mid 100
                 ;
                 ;eeprom unsigned char kp=0;
                 ;eeprom unsigned char ki=0;
                 ;eeprom unsigned char kd=0;
                 ;eeprom unsigned char ts=0;
                 ;eeprom unsigned char max_speed=0;
                 ;eeprom unsigned char B[8];
                 ;
                 ;// Alphanumeric LCD functions
                 ;#include <alcd.h>
                 ;char data[33];
                 ;
                 ;#define ADC_VREF_TYPE 0x60
                 ;
                 ;// Read the 8 most significant bits
                 ;// of the AD conversion result
                 ;unsigned char read_adc(unsigned char adc_input)
                 ; 0000 0038 {
                 
                 	.CSEG
                 _read_adc:
                 ; 0000 0039 ADMUX=adc_input | (ADC_VREF_TYPE & 0xff);
0000ca 93aa      	ST   -Y,R26
                 ;	adc_input -> Y+0
0000cb 81e8      	LD   R30,Y
0000cc 66e0      	ORI  R30,LOW(0x60)
0000cd b9e7      	OUT  0x7,R30
                 ; 0000 003A // Delay needed for the stabilization of the ADC input voltage
                 ; 0000 003B delay_us(10);
                +
0000ce e288     +LDI R24 , LOW ( 40 )
                +__DELAY_USB_LOOP :
0000cf 958a     +DEC R24
0000d0 f7f1     +BRNE __DELAY_USB_LOOP
                 	__DELAY_USB 40
                 ; 0000 003C // Start the AD conversion
                 ; 0000 003D ADCSRA|=0x40;
0000d1 9a36      	SBI  0x6,6
                 ; 0000 003E // Wait for the AD conversion to complete
                 ; 0000 003F while ((ADCSRA & 0x10)==0);
                 _0x3:
0000d2 9b34      	SBIS 0x6,4
0000d3 cffe      	RJMP _0x3
                 ; 0000 0040 ADCSRA|=0x10;
0000d4 9a34      	SBI  0x6,4
                 ; 0000 0041 return ADCH;
0000d5 b1e5      	IN   R30,0x5
0000d6 9621      	ADIW R28,1
0000d7 9508      	RET
                 ; 0000 0042 }
                 ;
                 ;// Declare your global variables here
                 ;float tF, pid;
                 ;unsigned char a[8], c[8], S[8], SS[8];
                 ;unsigned char dd0, dd1, dd2, dd3;
                 ;unsigned char dat, dut, sayap, sensor, x;
                 ;int P, I, D, kpF, kiF, kdF, posisi, error, last_error, max_speedF, min, m1, m2, gas,
                 ;hasil;
                 ;
                 ;/********************GERAKAN RODA************************/
                 ;void motor(unsigned char d0, unsigned char d1, unsigned char d2, unsigned char d3,
                 ; 0000 004E unsigned char L, unsigned char R)
                 ; 0000 004F {
                 _motor:
                 ; 0000 0050 PORTD.0=d0; //m_kiri_maju
0000d8 93aa      	ST   -Y,R26
                 ;	d0 -> Y+5
                 ;	d1 -> Y+4
                 ;	d2 -> Y+3
                 ;	d3 -> Y+2
                 ;	L -> Y+1
                 ;	R -> Y+0
0000d9 81ed      	LDD  R30,Y+5
0000da 30e0      	CPI  R30,0
0000db f411      	BRNE _0x6
0000dc 9890      	CBI  0x12,0
0000dd c001      	RJMP _0x7
                 _0x6:
0000de 9a90      	SBI  0x12,0
                 _0x7:
                 ; 0000 0051 PORTD.1=d1; //m_kiri_mundur
0000df 81ec      	LDD  R30,Y+4
0000e0 30e0      	CPI  R30,0
0000e1 f411      	BRNE _0x8
0000e2 9891      	CBI  0x12,1
0000e3 c001      	RJMP _0x9
                 _0x8:
0000e4 9a91      	SBI  0x12,1
                 _0x9:
                 ; 0000 0052 PORTD.2=d2; //m_kanan_mundur
0000e5 81eb      	LDD  R30,Y+3
0000e6 30e0      	CPI  R30,0
0000e7 f411      	BRNE _0xA
0000e8 9892      	CBI  0x12,2
0000e9 c001      	RJMP _0xB
                 _0xA:
0000ea 9a92      	SBI  0x12,2
                 _0xB:
                 ; 0000 0053 PORTD.3=d3; //m_kanan_maju
0000eb 81ea      	LDD  R30,Y+2
0000ec 30e0      	CPI  R30,0
0000ed f411      	BRNE _0xC
0000ee 9893      	CBI  0x12,3
0000ef c001      	RJMP _0xD
                 _0xC:
0000f0 9a93      	SBI  0x12,3
                 _0xD:
                 ; 0000 0054 Lpwm=L; //pwm m_kiri
0000f1 81e9      	LDD  R30,Y+1
0000f2 d7f0      	RCALL SUBOPT_0x0
0000f3 bdf9      	OUT  0x28+1,R31
0000f4 bde8      	OUT  0x28,R30
                 ; 0000 0055 Rpwm=R; //pwm m_kanan
0000f5 81e8      	LD   R30,Y
0000f6 d7ec      	RCALL SUBOPT_0x0
0000f7 bdfb      	OUT  0x2A+1,R31
0000f8 bdea      	OUT  0x2A,R30
                 ; 0000 0056 }
0000f9 9626      	ADIW R28,6
0000fa 9508      	RET
                 ;
                 ;void off()
                 ; 0000 0059 {
                 _off:
                 ; 0000 005A PORTD.0=1;
0000fb 9a90      	SBI  0x12,0
                 ; 0000 005B PORTD.1=1;
0000fc 9a91      	SBI  0x12,1
                 ; 0000 005C PORTD.2=1;
0000fd 9a92      	SBI  0x12,2
                 ; 0000 005D PORTD.3=1;
0000fe 9a93      	SBI  0x12,3
                 ; 0000 005E Lpwm=Rpwm=255;
0000ff efef      	LDI  R30,LOW(255)
000100 e0f0      	LDI  R31,HIGH(255)
000101 bdfb      	OUT  0x2A+1,R31
000102 bdea      	OUT  0x2A,R30
000103 bdf9      	OUT  0x28+1,R31
000104 bde8      	OUT  0x28,R30
                 ; 0000 005F }
000105 9508      	RET
                 ;
                 ;//*******************************ON_AIR SCAN*********************************************
                 ;void scan()
                 ; 0000 0063 {
                 _scan:
                 ; 0000 0064 a[0]=read_adc(0); a[1]=read_adc(1); a[2]=read_adc(2); a[3]=read_adc(3);
000106 e0a0      	LDI  R26,LOW(0)
000107 dfc2      	RCALL _read_adc
000108 93e0 0109 	STS  _a,R30
00010a e0a1      	LDI  R26,LOW(1)
00010b dfbe      	RCALL _read_adc
                +
00010c 93e0 010a+STS _a + ( 1 ) , R30
                 	__PUTB1MN _a,1
00010e e0a2      	LDI  R26,LOW(2)
00010f dfba      	RCALL _read_adc
                +
000110 93e0 010b+STS _a + ( 2 ) , R30
                 	__PUTB1MN _a,2
000112 e0a3      	LDI  R26,LOW(3)
000113 dfb6      	RCALL _read_adc
                +
000114 93e0 010c+STS _a + ( 3 ) , R30
                 	__PUTB1MN _a,3
                 ; 0000 0065 a[4]=read_adc(4); a[5]=read_adc(5); a[6]=read_adc(6); a[7]=read_adc(7);
000116 e0a4      	LDI  R26,LOW(4)
000117 dfb2      	RCALL _read_adc
                +
000118 93e0 010d+STS _a + ( 4 ) , R30
                 	__PUTB1MN _a,4
00011a e0a5      	LDI  R26,LOW(5)
00011b dfae      	RCALL _read_adc
                +
00011c 93e0 010e+STS _a + ( 5 ) , R30
                 	__PUTB1MN _a,5
00011e e0a6      	LDI  R26,LOW(6)
00011f dfaa      	RCALL _read_adc
                +
000120 93e0 010f+STS _a + ( 6 ) , R30
                 	__PUTB1MN _a,6
000122 e0a7      	LDI  R26,LOW(7)
000123 dfa6      	RCALL _read_adc
                +
000124 93e0 0110+STS _a + ( 7 ) , R30
                 	__PUTB1MN _a,7
                 ; 0000 0066 c[0]=B[0]; c[1]=B[1]; c[2]=B[2]; c[3]=B[3]; c[4]=B[4]; c[5]=B[5]; c[6]=B[6];
000126 e0a5      	LDI  R26,LOW(_B)
000127 e0b0      	LDI  R27,HIGH(_B)
000128 dbea      	RCALL __EEPROMRDB
000129 93e0 0111 	STS  _c,R30
                +
00012b e0a6     +LDI R26 , LOW ( _B + ( 1 ) )
00012c e0b0     +LDI R27 , HIGH ( _B + ( 1 ) )
                 	__POINTW2MN _B,1
00012d dbe5      	RCALL __EEPROMRDB
                +
00012e 93e0 0112+STS _c + ( 1 ) , R30
                 	__PUTB1MN _c,1
                +
000130 e0a7     +LDI R26 , LOW ( _B + ( 2 ) )
000131 e0b0     +LDI R27 , HIGH ( _B + ( 2 ) )
                 	__POINTW2MN _B,2
000132 dbe0      	RCALL __EEPROMRDB
                +
000133 93e0 0113+STS _c + ( 2 ) , R30
                 	__PUTB1MN _c,2
                +
000135 e0a8     +LDI R26 , LOW ( _B + ( 3 ) )
000136 e0b0     +LDI R27 , HIGH ( _B + ( 3 ) )
                 	__POINTW2MN _B,3
000137 dbdb      	RCALL __EEPROMRDB
                +
000138 93e0 0114+STS _c + ( 3 ) , R30
                 	__PUTB1MN _c,3
                +
00013a e0a9     +LDI R26 , LOW ( _B + ( 4 ) )
00013b e0b0     +LDI R27 , HIGH ( _B + ( 4 ) )
                 	__POINTW2MN _B,4
00013c dbd6      	RCALL __EEPROMRDB
                +
00013d 93e0 0115+STS _c + ( 4 ) , R30
                 	__PUTB1MN _c,4
                +
00013f e0aa     +LDI R26 , LOW ( _B + ( 5 ) )
000140 e0b0     +LDI R27 , HIGH ( _B + ( 5 ) )
                 	__POINTW2MN _B,5
000141 dbd1      	RCALL __EEPROMRDB
                +
000142 93e0 0116+STS _c + ( 5 ) , R30
                 	__PUTB1MN _c,5
                +
000144 e0ab     +LDI R26 , LOW ( _B + ( 6 ) )
000145 e0b0     +LDI R27 , HIGH ( _B + ( 6 ) )
                 	__POINTW2MN _B,6
000146 dbcc      	RCALL __EEPROMRDB
                +
000147 93e0 0117+STS _c + ( 6 ) , R30
                 	__PUTB1MN _c,6
                 ; 0000 0067 c[7]=B[7];
                +
000149 e0ac     +LDI R26 , LOW ( _B + ( 7 ) )
00014a e0b0     +LDI R27 , HIGH ( _B + ( 7 ) )
                 	__POINTW2MN _B,7
00014b dbc7      	RCALL __EEPROMRDB
                +
00014c 93e0 0118+STS _c + ( 7 ) , R30
                 	__PUTB1MN _c,7
                 ; 0000 0068 
                 ; 0000 0069 if (a[0]>c[0]) {SS[0]=Low;} if (a[0]<c[0]) {SS[0]=High;}
00014e d796      	RCALL SUBOPT_0x1
00014f 17ea      	CP   R30,R26
000150 f418      	BRSH _0x16
000151 e3e2      	LDI  R30,LOW(50)
000152 93e0 0121 	STS  _SS,R30
                 _0x16:
000154 d790      	RCALL SUBOPT_0x1
000155 17ae      	CP   R26,R30
000156 f418      	BRSH _0x17
000157 e9e6      	LDI  R30,LOW(150)
000158 93e0 0121 	STS  _SS,R30
                 ; 0000 006A if (a[1]>c[1]) {SS[1]=Low;} if (a[1]<c[1]) {SS[1]=High;}
                 _0x17:
00015a d78f      	RCALL SUBOPT_0x2
00015b 17ea      	CP   R30,R26
00015c f418      	BRSH _0x18
00015d e3e2      	LDI  R30,LOW(50)
                +
00015e 93e0 0122+STS _SS + ( 1 ) , R30
                 	__PUTB1MN _SS,1
                 _0x18:
000160 d789      	RCALL SUBOPT_0x2
000161 17ae      	CP   R26,R30
000162 f418      	BRSH _0x19
000163 e9e6      	LDI  R30,LOW(150)
                +
000164 93e0 0122+STS _SS + ( 1 ) , R30
                 	__PUTB1MN _SS,1
                 ; 0000 006B if (a[2]>c[2]) {SS[2]=Low;} if (a[2]<c[2]) {SS[2]=High;}
                 _0x19:
000166 d788      	RCALL SUBOPT_0x3
000167 17ea      	CP   R30,R26
000168 f418      	BRSH _0x1A
000169 e3e2      	LDI  R30,LOW(50)
                +
00016a 93e0 0123+STS _SS + ( 2 ) , R30
                 	__PUTB1MN _SS,2
                 _0x1A:
00016c d782      	RCALL SUBOPT_0x3
00016d 17ae      	CP   R26,R30
00016e f418      	BRSH _0x1B
00016f e9e6      	LDI  R30,LOW(150)
                +
000170 93e0 0123+STS _SS + ( 2 ) , R30
                 	__PUTB1MN _SS,2
                 ; 0000 006C if (a[3]>c[3]) {SS[3]=Low;} if (a[3]<c[3]) {SS[3]=High;}
                 _0x1B:
000172 d781      	RCALL SUBOPT_0x4
000173 17ea      	CP   R30,R26
000174 f418      	BRSH _0x1C
000175 e3e2      	LDI  R30,LOW(50)
                +
000176 93e0 0124+STS _SS + ( 3 ) , R30
                 	__PUTB1MN _SS,3
                 _0x1C:
000178 d77b      	RCALL SUBOPT_0x4
000179 17ae      	CP   R26,R30
00017a f418      	BRSH _0x1D
00017b e9e6      	LDI  R30,LOW(150)
                +
00017c 93e0 0124+STS _SS + ( 3 ) , R30
                 	__PUTB1MN _SS,3
                 ; 0000 006D if (a[4]>c[4]) {SS[4]=Low;} if (a[4]<c[4]) {SS[4]=High;}
                 _0x1D:
00017e d77a      	RCALL SUBOPT_0x5
00017f 17ea      	CP   R30,R26
000180 f418      	BRSH _0x1E
000181 e3e2      	LDI  R30,LOW(50)
                +
000182 93e0 0125+STS _SS + ( 4 ) , R30
                 	__PUTB1MN _SS,4
                 _0x1E:
000184 d774      	RCALL SUBOPT_0x5
000185 17ae      	CP   R26,R30
000186 f418      	BRSH _0x1F
000187 e9e6      	LDI  R30,LOW(150)
                +
000188 93e0 0125+STS _SS + ( 4 ) , R30
                 	__PUTB1MN _SS,4
                 ; 0000 006E if (a[5]>c[5]) {SS[5]=Low;} if (a[5]<c[5]) {SS[5]=High;}
                 _0x1F:
00018a d773      	RCALL SUBOPT_0x6
00018b 17ea      	CP   R30,R26
00018c f418      	BRSH _0x20
00018d e3e2      	LDI  R30,LOW(50)
                +
00018e 93e0 0126+STS _SS + ( 5 ) , R30
                 	__PUTB1MN _SS,5
                 _0x20:
000190 d76d      	RCALL SUBOPT_0x6
000191 17ae      	CP   R26,R30
000192 f418      	BRSH _0x21
000193 e9e6      	LDI  R30,LOW(150)
                +
000194 93e0 0126+STS _SS + ( 5 ) , R30
                 	__PUTB1MN _SS,5
                 ; 0000 006F if (a[6]>c[6]) {SS[6]=Low;} if (a[6]<c[6]) {SS[6]=High;}
                 _0x21:
000196 d76c      	RCALL SUBOPT_0x7
000197 17ea      	CP   R30,R26
000198 f418      	BRSH _0x22
000199 e3e2      	LDI  R30,LOW(50)
                +
00019a 93e0 0127+STS _SS + ( 6 ) , R30
                 	__PUTB1MN _SS,6
                 _0x22:
00019c d766      	RCALL SUBOPT_0x7
00019d 17ae      	CP   R26,R30
00019e f418      	BRSH _0x23
00019f e9e6      	LDI  R30,LOW(150)
                +
0001a0 93e0 0127+STS _SS + ( 6 ) , R30
                 	__PUTB1MN _SS,6
                 ; 0000 0070 if (a[7]>c[7]) {SS[7]=Low;} if (a[7]<c[7]) {SS[7]=High;}
                 _0x23:
0001a2 d765      	RCALL SUBOPT_0x8
0001a3 17ea      	CP   R30,R26
0001a4 f418      	BRSH _0x24
0001a5 e3e2      	LDI  R30,LOW(50)
                +
0001a6 93e0 0128+STS _SS + ( 7 ) , R30
                 	__PUTB1MN _SS,7
                 _0x24:
0001a8 d75f      	RCALL SUBOPT_0x8
0001a9 17ae      	CP   R26,R30
0001aa f418      	BRSH _0x25
0001ab e9e6      	LDI  R30,LOW(150)
                +
0001ac 93e0 0128+STS _SS + ( 7 ) , R30
                 	__PUTB1MN _SS,7
                 ; 0000 0071 
                 ; 0000 0072 lcd_gotoxy(6,0);
                 _0x25:
0001ae e0e6      	LDI  R30,LOW(6)
0001af d75d      	RCALL SUBOPT_0x9
                 ; 0000 0073 if (PINB.4==1) {lcd_putchar('1');} else {lcd_putchar('0');}
0001b0 9bb4      	SBIS 0x16,4
0001b1 c002      	RJMP _0x26
0001b2 e3a1      	LDI  R26,LOW(49)
0001b3 c001      	RJMP _0x112
                 _0x26:
0001b4 e3a0      	LDI  R26,LOW(48)
                 _0x112:
0001b5 d6b2      	RCALL _lcd_putchar
                 ; 0000 0074 if (SS[0]>Mid) {S[0]=1; lcd_putchar('1');} if (SS[0]<Mid) {S[0]=0; lcd_putchar('0');}
0001b6 91a0 0121 	LDS  R26,_SS
0001b8 36a5      	CPI  R26,LOW(0x65)
0001b9 f020      	BRLO _0x28
0001ba e0e1      	LDI  R30,LOW(1)
0001bb 93e0 0119 	STS  _S,R30
0001bd d752      	RCALL SUBOPT_0xA
                 _0x28:
0001be 91a0 0121 	LDS  R26,_SS
0001c0 36a4      	CPI  R26,LOW(0x64)
0001c1 f420      	BRSH _0x29
0001c2 e0e0      	LDI  R30,LOW(0)
0001c3 93e0 0119 	STS  _S,R30
0001c5 d74c      	RCALL SUBOPT_0xB
                 ; 0000 0075 if (SS[1]>Mid) {S[1]=1; lcd_putchar('1');} if (SS[1]<Mid) {S[1]=0; lcd_putchar('0');}
                 _0x29:
                +
0001c6 91a0 0122+LDS R26 , _SS + ( 1 )
                 	__GETB2MN _SS,1
0001c8 36a5      	CPI  R26,LOW(0x65)
0001c9 f020      	BRLO _0x2A
0001ca e0e1      	LDI  R30,LOW(1)
                +
0001cb 93e0 011a+STS _S + ( 1 ) , R30
                 	__PUTB1MN _S,1
0001cd d742      	RCALL SUBOPT_0xA
                 _0x2A:
                +
0001ce 91a0 0122+LDS R26 , _SS + ( 1 )
                 	__GETB2MN _SS,1
0001d0 36a4      	CPI  R26,LOW(0x64)
0001d1 f420      	BRSH _0x2B
0001d2 e0e0      	LDI  R30,LOW(0)
                +
0001d3 93e0 011a+STS _S + ( 1 ) , R30
                 	__PUTB1MN _S,1
0001d5 d73c      	RCALL SUBOPT_0xB
                 ; 0000 0076 if (SS[2]>Mid) {S[2]=1; lcd_putchar('1');} if (SS[2]<Mid) {S[2]=0; lcd_putchar('0');}
                 _0x2B:
                +
0001d6 91a0 0123+LDS R26 , _SS + ( 2 )
                 	__GETB2MN _SS,2
0001d8 36a5      	CPI  R26,LOW(0x65)
0001d9 f020      	BRLO _0x2C
0001da e0e1      	LDI  R30,LOW(1)
                +
0001db 93e0 011b+STS _S + ( 2 ) , R30
                 	__PUTB1MN _S,2
0001dd d732      	RCALL SUBOPT_0xA
                 _0x2C:
                +
0001de 91a0 0123+LDS R26 , _SS + ( 2 )
                 	__GETB2MN _SS,2
0001e0 36a4      	CPI  R26,LOW(0x64)
0001e1 f420      	BRSH _0x2D
0001e2 e0e0      	LDI  R30,LOW(0)
                +
0001e3 93e0 011b+STS _S + ( 2 ) , R30
                 	__PUTB1MN _S,2
0001e5 d72c      	RCALL SUBOPT_0xB
                 ; 0000 0077 if (SS[3]>Mid) {S[3]=1; lcd_putchar('1');} if (SS[3]<Mid) {S[3]=0; lcd_putchar('0');}
                 _0x2D:
                +
0001e6 91a0 0124+LDS R26 , _SS + ( 3 )
                 	__GETB2MN _SS,3
0001e8 36a5      	CPI  R26,LOW(0x65)
0001e9 f020      	BRLO _0x2E
0001ea e0e1      	LDI  R30,LOW(1)
                +
0001eb 93e0 011c+STS _S + ( 3 ) , R30
                 	__PUTB1MN _S,3
0001ed d722      	RCALL SUBOPT_0xA
                 _0x2E:
                +
0001ee 91a0 0124+LDS R26 , _SS + ( 3 )
                 	__GETB2MN _SS,3
0001f0 36a4      	CPI  R26,LOW(0x64)
0001f1 f420      	BRSH _0x2F
0001f2 e0e0      	LDI  R30,LOW(0)
                +
0001f3 93e0 011c+STS _S + ( 3 ) , R30
                 	__PUTB1MN _S,3
0001f5 d71c      	RCALL SUBOPT_0xB
                 ; 0000 0078 if (SS[4]>Mid) {S[4]=1; lcd_putchar('1');} if (SS[4]<Mid) {S[4]=0; lcd_putchar('0');}
                 _0x2F:
                +
0001f6 91a0 0125+LDS R26 , _SS + ( 4 )
                 	__GETB2MN _SS,4
0001f8 36a5      	CPI  R26,LOW(0x65)
0001f9 f020      	BRLO _0x30
0001fa e0e1      	LDI  R30,LOW(1)
                +
0001fb 93e0 011d+STS _S + ( 4 ) , R30
                 	__PUTB1MN _S,4
0001fd d712      	RCALL SUBOPT_0xA
                 _0x30:
                +
0001fe 91a0 0125+LDS R26 , _SS + ( 4 )
                 	__GETB2MN _SS,4
000200 36a4      	CPI  R26,LOW(0x64)
000201 f420      	BRSH _0x31
000202 e0e0      	LDI  R30,LOW(0)
                +
000203 93e0 011d+STS _S + ( 4 ) , R30
                 	__PUTB1MN _S,4
000205 d70c      	RCALL SUBOPT_0xB
                 ; 0000 0079 if (SS[5]>Mid) {S[5]=1; lcd_putchar('1');} if (SS[5]<Mid) {S[5]=0; lcd_putchar('0');}
                 _0x31:
                +
000206 91a0 0126+LDS R26 , _SS + ( 5 )
                 	__GETB2MN _SS,5
000208 36a5      	CPI  R26,LOW(0x65)
000209 f020      	BRLO _0x32
00020a e0e1      	LDI  R30,LOW(1)
                +
00020b 93e0 011e+STS _S + ( 5 ) , R30
                 	__PUTB1MN _S,5
00020d d702      	RCALL SUBOPT_0xA
                 _0x32:
                +
00020e 91a0 0126+LDS R26 , _SS + ( 5 )
                 	__GETB2MN _SS,5
000210 36a4      	CPI  R26,LOW(0x64)
000211 f420      	BRSH _0x33
000212 e0e0      	LDI  R30,LOW(0)
                +
000213 93e0 011e+STS _S + ( 5 ) , R30
                 	__PUTB1MN _S,5
000215 d6fc      	RCALL SUBOPT_0xB
                 ; 0000 007A if (SS[6]>Mid) {S[6]=1; lcd_putchar('1');} if (SS[6]<Mid) {S[6]=0; lcd_putchar('0');}
                 _0x33:
                +
000216 91a0 0127+LDS R26 , _SS + ( 6 )
                 	__GETB2MN _SS,6
000218 36a5      	CPI  R26,LOW(0x65)
000219 f020      	BRLO _0x34
00021a e0e1      	LDI  R30,LOW(1)
                +
00021b 93e0 011f+STS _S + ( 6 ) , R30
                 	__PUTB1MN _S,6
00021d d6f2      	RCALL SUBOPT_0xA
                 _0x34:
                +
00021e 91a0 0127+LDS R26 , _SS + ( 6 )
                 	__GETB2MN _SS,6
000220 36a4      	CPI  R26,LOW(0x64)
000221 f420      	BRSH _0x35
000222 e0e0      	LDI  R30,LOW(0)
                +
000223 93e0 011f+STS _S + ( 6 ) , R30
                 	__PUTB1MN _S,6
000225 d6ec      	RCALL SUBOPT_0xB
                 ; 0000 007B if (SS[7]>Mid) {S[7]=1; lcd_putchar('1');} if (SS[7]<Mid) {S[7]=0; lcd_putchar('0');}
                 _0x35:
                +
000226 91a0 0128+LDS R26 , _SS + ( 7 )
                 	__GETB2MN _SS,7
000228 36a5      	CPI  R26,LOW(0x65)
000229 f020      	BRLO _0x36
00022a e0e1      	LDI  R30,LOW(1)
                +
00022b 93e0 0120+STS _S + ( 7 ) , R30
                 	__PUTB1MN _S,7
00022d d6e2      	RCALL SUBOPT_0xA
                 _0x36:
                +
00022e 91a0 0128+LDS R26 , _SS + ( 7 )
                 	__GETB2MN _SS,7
000230 36a4      	CPI  R26,LOW(0x64)
000231 f420      	BRSH _0x37
000232 e0e0      	LDI  R30,LOW(0)
                +
000233 93e0 0120+STS _S + ( 7 ) , R30
                 	__PUTB1MN _S,7
000235 d6dc      	RCALL SUBOPT_0xB
                 ; 0000 007C if (PINB.5==1) {lcd_putchar('1');} else {lcd_putchar('0');}
                 _0x37:
000236 9bb5      	SBIS 0x16,5
000237 c002      	RJMP _0x38
000238 e3a1      	LDI  R26,LOW(49)
000239 c001      	RJMP _0x113
                 _0x38:
00023a e3a0      	LDI  R26,LOW(48)
                 _0x113:
00023b d62c      	RCALL _lcd_putchar
                 ; 0000 007D 
                 ; 0000 007E dat=(S[7]*128)+(S[6]*64)+(S[5]*32)+(S[4]*16)+(S[3]*8)+(S[2]*4)+(S[1]*2)+(S[0]*
                 ; 0000 007F 1);
                +
00023c 91e0 0120+LDS R30 , _S + ( 7 )
                 	__GETB1MN _S,7
00023e e8a0      	LDI  R26,LOW(128)
00023f 02ea      	MULS R30,R26
000240 2d60      	MOV  R22,R0
                +
000241 91e0 011f+LDS R30 , _S + ( 6 )
                 	__GETB1MN _S,6
000243 e4a0      	LDI  R26,LOW(64)
000244 02ea      	MULS R30,R26
000245 01f0      	MOVW R30,R0
000246 0f6e      	ADD  R22,R30
                +
000247 91e0 011e+LDS R30 , _S + ( 5 )
                 	__GETB1MN _S,5
000249 e2a0      	LDI  R26,LOW(32)
00024a 02ea      	MULS R30,R26
00024b 01f0      	MOVW R30,R0
00024c 0f6e      	ADD  R22,R30
                +
00024d 91e0 011d+LDS R30 , _S + ( 4 )
                 	__GETB1MN _S,4
00024f e1a0      	LDI  R26,LOW(16)
000250 02ea      	MULS R30,R26
000251 01f0      	MOVW R30,R0
000252 2fa6      	MOV  R26,R22
000253 0fae      	ADD  R26,R30
                +
000254 91e0 011c+LDS R30 , _S + ( 3 )
                 	__GETB1MN _S,3
000256 0fee      	LSL  R30
000257 0fee      	LSL  R30
000258 0fee      	LSL  R30
000259 0fae      	ADD  R26,R30
                +
00025a 91e0 011b+LDS R30 , _S + ( 2 )
                 	__GETB1MN _S,2
00025c 0fee      	LSL  R30
00025d 0fee      	LSL  R30
00025e 0fae      	ADD  R26,R30
                +
00025f 91e0 011a+LDS R30 , _S + ( 1 )
                 	__GETB1MN _S,1
000261 0fee      	LSL  R30
000262 0fea      	ADD  R30,R26
000263 91a0 0119 	LDS  R26,_S
000265 0fea      	ADD  R30,R26
000266 2e9e      	MOV  R9,R30
                 ; 0000 0080 sensor=dat;
000267 2ca9      	MOV  R10,R9
                 ; 0000 0081 dut=(PINB.4*2)+(PINB.5*1);
000268 e0a0      	LDI  R26,0
000269 99b4      	SBIC 0x16,4
00026a e0a1      	LDI  R26,1
00026b e0e2      	LDI  R30,LOW(2)
00026c 9fea      	MUL  R30,R26
00026d 2d60      	MOV  R22,R0
00026e e0a0      	LDI  R26,0
00026f 99b5      	SBIC 0x16,5
000270 e0a1      	LDI  R26,1
000271 e0e1      	LDI  R30,LOW(1)
000272 9fea      	MUL  R30,R26
000273 01f0      	MOVW R30,R0
000274 0fe6      	ADD  R30,R22
000275 2e8e      	MOV  R8,R30
                 ; 0000 0082 sayap=dut;
000276 2cb8      	MOV  R11,R8
                 ; 0000 0083 }
000277 9508      	RET
                 ;
                 ;/********************DISPLAY SETTING************************/
                 ;void display()
                 ; 0000 0087 {
                 _display:
                 ; 0000 0088 warning1:
                 _0x3A:
                 ; 0000 0089 delay_ms(100); lcd_clear(); lcd_gotoxy(0,0); lcd_putsf("^PID & Other^");
000278 d69b      	RCALL SUBOPT_0xC
                +
000279 e3ac     +LDI R26 , LOW ( 2 * _0x0 + ( 0 ) )
00027a e0b0     +LDI R27 , HIGH ( 2 * _0x0 + ( 0 ) )
                 	__POINTW2FN _0x0,0
00027b d614      	RCALL _lcd_putsf
                 ; 0000 008A if (ok==0) { goto warning2; }
00027c 9bb0      	SBIS 0x16,0
00027d c003      	RJMP _0x3C
                 ; 0000 008B if (cancel==0) { goto start; }
00027e 9bb1      	SBIS 0x16,1
00027f c132      	RJMP _0x3E
                 ; 0000 008C goto warning1;
000280 cff7      	RJMP _0x3A
                 ; 0000 008D 
                 ; 0000 008E warning2:
                 _0x3C:
                 ; 0000 008F delay_ms(100); lcd_clear(); lcd_gotoxy(0,0); lcd_putsf("1.Sett PID");
000281 d692      	RCALL SUBOPT_0xC
                +
000282 e4aa     +LDI R26 , LOW ( 2 * _0x0 + ( 14 ) )
000283 e0b0     +LDI R27 , HIGH ( 2 * _0x0 + ( 14 ) )
                 	__POINTW2FN _0x0,14
000284 d60b      	RCALL _lcd_putsf
                 ; 0000 0090 if (up==0) { goto warning5; }
000285 9bb2      	SBIS 0x16,2
000286 c023      	RJMP _0x40
                 ; 0000 0091 if (down==0) { goto warning3; }
000287 9bb3      	SBIS 0x16,3
000288 c005      	RJMP _0x42
                 ; 0000 0092 if (ok==0) { goto set_kp; }
000289 9bb0      	SBIS 0x16,0
00028a c062      	RJMP _0x44
                 ; 0000 0093 if (cancel==0) { goto warning1; }
00028b 9bb1      	SBIS 0x16,1
00028c cfeb      	RJMP _0x3A
                 ; 0000 0094 goto warning2;
00028d cff3      	RJMP _0x3C
                 ; 0000 0095 
                 ; 0000 0096 warning3:
                 _0x42:
                 ; 0000 0097 delay_ms(100); lcd_clear(); lcd_gotoxy(0,0); lcd_putsf("2.Sett Speed");
00028e d685      	RCALL SUBOPT_0xC
                +
00028f e5a5     +LDI R26 , LOW ( 2 * _0x0 + ( 25 ) )
000290 e0b0     +LDI R27 , HIGH ( 2 * _0x0 + ( 25 ) )
                 	__POINTW2FN _0x0,25
000291 d5fe      	RCALL _lcd_putsf
                 ; 0000 0098 if (up==0) { goto warning2; }
000292 9bb2      	SBIS 0x16,2
000293 cfed      	RJMP _0x3C
                 ; 0000 0099 if (down==0) { goto warning4; }
000294 9bb3      	SBIS 0x16,3
000295 c005      	RJMP _0x48
                 ; 0000 009A if (ok==0) { goto set_MAXspeed; }
000296 9bb0      	SBIS 0x16,0
000297 c0bd      	RJMP _0x4A
                 ; 0000 009B if (cancel==0) { goto warning1; }
000298 9bb1      	SBIS 0x16,1
000299 cfde      	RJMP _0x3A
                 ; 0000 009C goto warning3;
00029a cff3      	RJMP _0x42
                 ; 0000 009D 
                 ; 0000 009E warning4:
                 _0x48:
                 ; 0000 009F delay_ms(100); lcd_clear(); lcd_gotoxy(0,0); lcd_putsf("3.Sett ADC");
00029b d678      	RCALL SUBOPT_0xC
                +
00029c e6a2     +LDI R26 , LOW ( 2 * _0x0 + ( 38 ) )
00029d e0b0     +LDI R27 , HIGH ( 2 * _0x0 + ( 38 ) )
                 	__POINTW2FN _0x0,38
00029e d5f1      	RCALL _lcd_putsf
                 ; 0000 00A0 if (up==0) { goto warning3; }
00029f 9bb2      	SBIS 0x16,2
0002a0 cfed      	RJMP _0x42
                 ; 0000 00A1 if (down==0) { goto warning5; }
0002a1 9bb3      	SBIS 0x16,3
0002a2 c007      	RJMP _0x40
                 ; 0000 00A2 if (ok==0) { delay_ms(100); lcd_clear(); goto disp; }
0002a3 99b0      	SBIC 0x16,0
0002a4 c002      	RJMP _0x4E
0002a5 d674      	RCALL SUBOPT_0xD
0002a6 c0ca      	RJMP _0x4F
                 ; 0000 00A3 if (cancel==0) { goto warning1; }
                 _0x4E:
0002a7 9bb1      	SBIS 0x16,1
0002a8 cfcf      	RJMP _0x3A
                 ; 0000 00A4 goto warning4;
0002a9 cff1      	RJMP _0x48
                 ; 0000 00A5 
                 ; 0000 00A6 warning5:
                 _0x40:
                 ; 0000 00A7 delay_ms(100); lcd_clear(); lcd_gotoxy(0,0); lcd_putsf("4.Reset EEPROM");
0002aa d669      	RCALL SUBOPT_0xC
                +
0002ab e6ad     +LDI R26 , LOW ( 2 * _0x0 + ( 49 ) )
0002ac e0b0     +LDI R27 , HIGH ( 2 * _0x0 + ( 49 ) )
                 	__POINTW2FN _0x0,49
0002ad d5e2      	RCALL _lcd_putsf
                 ; 0000 00A8 if (up==0) { goto warning4; }
0002ae 9bb2      	SBIS 0x16,2
0002af cfeb      	RJMP _0x48
                 ; 0000 00A9 if (down==0) { goto warning2; }
0002b0 9bb3      	SBIS 0x16,3
0002b1 cfcf      	RJMP _0x3C
                 ; 0000 00AA if (ok==0) {
0002b2 99b0      	SBIC 0x16,0
0002b3 c036      	RJMP _0x53
                 ; 0000 00AB kp=ki=kd=max_speed=ts=B[0]=B[1]=B[2]=B[3]=B[4]=B[5]=B[6]=B[7]=0;
                +
0002b4 e0e6     +LDI R30 , LOW ( _B + ( 1 ) )
0002b5 e0f0     +LDI R31 , HIGH ( _B + ( 1 ) )
                 	__POINTW1MN _B,1
0002b6 93ff      	PUSH R31
0002b7 93ef      	PUSH R30
                +
0002b8 e0e7     +LDI R30 , LOW ( _B + ( 2 ) )
0002b9 e0f0     +LDI R31 , HIGH ( _B + ( 2 ) )
                 	__POINTW1MN _B,2
0002ba 93ff      	PUSH R31
0002bb 93ef      	PUSH R30
                +
0002bc e0e8     +LDI R30 , LOW ( _B + ( 3 ) )
0002bd e0f0     +LDI R31 , HIGH ( _B + ( 3 ) )
                 	__POINTW1MN _B,3
0002be 93ff      	PUSH R31
0002bf 93ef      	PUSH R30
                +
0002c0 e069     +LDI R22 , LOW ( _B + ( 4 ) )
0002c1 e070     +LDI R23 , HIGH ( _B + ( 4 ) )
                 	__POINTWRMN 22,23,_B,4
                +
0002c2 e0ea     +LDI R30 , LOW ( _B + ( 5 ) )
0002c3 e0f0     +LDI R31 , HIGH ( _B + ( 5 ) )
                 	__POINTW1MN _B,5
0002c4 010f      	MOVW R0,R30
                +
0002c5 e0ac     +LDI R26 , LOW ( _B + ( 7 ) )
0002c6 e0b0     +LDI R27 , HIGH ( _B + ( 7 ) )
                 	__POINTW2MN _B,7
0002c7 e0e0      	LDI  R30,LOW(0)
0002c8 da56      	RCALL __EEPROMWRB
                +
0002c9 e0ab     +LDI R26 , LOW ( _B + ( 6 ) )
0002ca e0b0     +LDI R27 , HIGH ( _B + ( 6 ) )
                 	__POINTW2MN _B,6
0002cb da53      	RCALL __EEPROMWRB
0002cc 01d0      	MOVW R26,R0
0002cd da51      	RCALL __EEPROMWRB
0002ce 01db      	MOVW R26,R22
0002cf da4f      	RCALL __EEPROMWRB
0002d0 91af      	POP  R26
0002d1 91bf      	POP  R27
0002d2 da4c      	RCALL __EEPROMWRB
0002d3 91af      	POP  R26
0002d4 91bf      	POP  R27
0002d5 da49      	RCALL __EEPROMWRB
0002d6 91af      	POP  R26
0002d7 91bf      	POP  R27
0002d8 da46      	RCALL __EEPROMWRB
0002d9 e0a5      	LDI  R26,LOW(_B)
0002da e0b0      	LDI  R27,HIGH(_B)
0002db da43      	RCALL __EEPROMWRB
0002dc d641      	RCALL SUBOPT_0xE
0002dd da41      	RCALL __EEPROMWRB
0002de d642      	RCALL SUBOPT_0xF
0002df da3f      	RCALL __EEPROMWRB
0002e0 d643      	RCALL SUBOPT_0x10
0002e1 da3d      	RCALL __EEPROMWRB
0002e2 d644      	RCALL SUBOPT_0x11
0002e3 da3b      	RCALL __EEPROMWRB
0002e4 d645      	RCALL SUBOPT_0x12
0002e5 da39      	RCALL __EEPROMWRB
                 ; 0000 00AC lcd_gotoxy(0,0); lcd_putsf("Reset Success"); delay_ms(500); lcd_clear();
0002e6 d646      	RCALL SUBOPT_0x13
                +
0002e7 e7ac     +LDI R26 , LOW ( 2 * _0x0 + ( 64 ) )
0002e8 e0b0     +LDI R27 , HIGH ( 2 * _0x0 + ( 64 ) )
                 	__POINTW2FN _0x0,64
0002e9 d645      	RCALL SUBOPT_0x14
                 ; 0000 00AD }
                 ; 0000 00AE if (cancel==0) { goto warning1; }
                 _0x53:
0002ea 9bb1      	SBIS 0x16,1
0002eb cf8c      	RJMP _0x3A
                 ; 0000 00AF goto warning5;
0002ec cfbd      	RJMP _0x40
                 ; 0000 00B0 
                 ; 0000 00B1 //*******************************SETT PID*********************************************
                 ; 0000 00B2 set_kp:
                 _0x44:
                 ; 0000 00B3 delay_ms(100); lcd_clear(); lcd_gotoxy(0,0); sprintf(data,"kp:%d ",kp);
0002ed d626      	RCALL SUBOPT_0xC
0002ee d645      	RCALL SUBOPT_0x15
                +
0002ef e8eb     +LDI R30 , LOW ( 2 * _0x0 + ( 79 ) )
0002f0 e0f0     +LDI R31 , HIGH ( 2 * _0x0 + ( 79 ) )
                 	__POINTW1FN _0x0,79
0002f1 d647      	RCALL SUBOPT_0x16
0002f2 d649      	RCALL SUBOPT_0x17
0002f3 d64b      	RCALL SUBOPT_0x18
                 ; 0000 00B4 lcd_puts(data);
                 ; 0000 00B5 if (up==0) { delay_ms(1); if (kp<255) {kp++;} }
0002f4 99b2      	SBIC 0x16,2
0002f5 c005      	RJMP _0x55
0002f6 d652      	RCALL SUBOPT_0x19
0002f7 3fef      	CPI  R30,LOW(0xFF)
0002f8 f410      	BRSH _0x56
0002f9 d642      	RCALL SUBOPT_0x17
0002fa d652      	RCALL SUBOPT_0x1A
                 _0x56:
                 ; 0000 00B6 if (down==0) { delay_ms(1); if (kp>0) {kp--;} }
                 _0x55:
0002fb 99b3      	SBIC 0x16,3
0002fc c005      	RJMP _0x57
0002fd d64b      	RCALL SUBOPT_0x19
0002fe 30e1      	CPI  R30,LOW(0x1)
0002ff f010      	BRLO _0x58
000300 d63b      	RCALL SUBOPT_0x17
000301 d64f      	RCALL SUBOPT_0x1B
                 _0x58:
                 ; 0000 00B7 if (ok==0) { goto set_ki; }
                 _0x57:
000302 9bb0      	SBIS 0x16,0
000303 c003      	RJMP _0x5A
                 ; 0000 00B8 if (cancel==0) { goto warning2; }
000304 9bb1      	SBIS 0x16,1
000305 cf7b      	RJMP _0x3C
                 ; 0000 00B9 goto set_kp;
000306 cfe6      	RJMP _0x44
                 ; 0000 00BA 
                 ; 0000 00BB set_ki:
                 _0x5A:
                 ; 0000 00BC delay_ms(100); lcd_clear(); lcd_gotoxy(0,0); sprintf(data,"ki:%d ",ki); lcd_puts(data);
000307 d60c      	RCALL SUBOPT_0xC
000308 d62b      	RCALL SUBOPT_0x15
                +
000309 e9e2     +LDI R30 , LOW ( 2 * _0x0 + ( 86 ) )
00030a e0f0     +LDI R31 , HIGH ( 2 * _0x0 + ( 86 ) )
                 	__POINTW1FN _0x0,86
00030b d62d      	RCALL SUBOPT_0x16
00030c d648      	RCALL SUBOPT_0x1C
00030d d631      	RCALL SUBOPT_0x18
                 ; 0000 00BD if (up==0) { delay_ms(1); if (ki<255) {ki++;} }
00030e 99b2      	SBIC 0x16,2
00030f c005      	RJMP _0x5C
000310 d647      	RCALL SUBOPT_0x1D
000311 3fef      	CPI  R30,LOW(0xFF)
000312 f410      	BRSH _0x5D
000313 d641      	RCALL SUBOPT_0x1C
000314 d638      	RCALL SUBOPT_0x1A
                 _0x5D:
                 ; 0000 00BE if (down==0) { delay_ms(1); if (ki>0) {ki--;} }
                 _0x5C:
000315 99b3      	SBIC 0x16,3
000316 c005      	RJMP _0x5E
000317 d640      	RCALL SUBOPT_0x1D
000318 30e1      	CPI  R30,LOW(0x1)
000319 f010      	BRLO _0x5F
00031a d63a      	RCALL SUBOPT_0x1C
00031b d635      	RCALL SUBOPT_0x1B
                 _0x5F:
                 ; 0000 00BF if (ok==0) { goto set_kd; }
                 _0x5E:
00031c 9bb0      	SBIS 0x16,0
00031d c003      	RJMP _0x61
                 ; 0000 00C0 if (cancel==0) { goto set_kp; }
00031e 9bb1      	SBIS 0x16,1
00031f cfcd      	RJMP _0x44
                 ; 0000 00C1 goto set_ki;
000320 cfe6      	RJMP _0x5A
                 ; 0000 00C2 
                 ; 0000 00C3 set_kd:
                 _0x61:
                 ; 0000 00C4 delay_ms(100); lcd_clear(); lcd_gotoxy(0,0); sprintf(data,"kd:%d ",kd);
000321 d5f2      	RCALL SUBOPT_0xC
000322 d611      	RCALL SUBOPT_0x15
                +
000323 e9e9     +LDI R30 , LOW ( 2 * _0x0 + ( 93 ) )
000324 e0f0     +LDI R31 , HIGH ( 2 * _0x0 + ( 93 ) )
                 	__POINTW1FN _0x0,93
000325 d613      	RCALL SUBOPT_0x16
000326 d635      	RCALL SUBOPT_0x1E
000327 d617      	RCALL SUBOPT_0x18
                 ; 0000 00C5 lcd_puts(data);
                 ; 0000 00C6 if (up==0) { delay_ms(1); if (kd<255) {kd++;} }
000328 99b2      	SBIC 0x16,2
000329 c005      	RJMP _0x63
00032a d634      	RCALL SUBOPT_0x1F
00032b 3fef      	CPI  R30,LOW(0xFF)
00032c f410      	BRSH _0x64
00032d d62e      	RCALL SUBOPT_0x1E
00032e d61e      	RCALL SUBOPT_0x1A
                 _0x64:
                 ; 0000 00C7 if (down==0) { delay_ms(1); if (kd>0) {kd--;} }
                 _0x63:
00032f 99b3      	SBIC 0x16,3
000330 c005      	RJMP _0x65
000331 d62d      	RCALL SUBOPT_0x1F
000332 30e1      	CPI  R30,LOW(0x1)
000333 f010      	BRLO _0x66
000334 d627      	RCALL SUBOPT_0x1E
000335 d61b      	RCALL SUBOPT_0x1B
                 _0x66:
                 ; 0000 00C8 if (ok==0) { goto set_ts; }
                 _0x65:
000336 9bb0      	SBIS 0x16,0
000337 c003      	RJMP _0x68
                 ; 0000 00C9 if (cancel==0) { goto set_ki; }
000338 9bb1      	SBIS 0x16,1
000339 cfcd      	RJMP _0x5A
                 ; 0000 00CA goto set_kd;
00033a cfe6      	RJMP _0x61
                 ; 0000 00CB 
                 ; 0000 00CC set_ts:
                 _0x68:
                 ; 0000 00CD delay_ms(100); lcd_clear(); lcd_gotoxy(0,0); sprintf(data,"Ts:%d ",ts);
00033b d5d8      	RCALL SUBOPT_0xC
00033c d5f7      	RCALL SUBOPT_0x15
                +
00033d eae0     +LDI R30 , LOW ( 2 * _0x0 + ( 100 ) )
00033e e0f0     +LDI R31 , HIGH ( 2 * _0x0 + ( 100 ) )
                 	__POINTW1FN _0x0,100
00033f d5f9      	RCALL SUBOPT_0x16
000340 d622      	RCALL SUBOPT_0x20
000341 d5fd      	RCALL SUBOPT_0x18
                 ; 0000 00CE lcd_puts(data);
                 ; 0000 00CF if (up==0) { delay_ms(1); if (ts<50) {ts++;} }
000342 99b2      	SBIC 0x16,2
000343 c005      	RJMP _0x6A
000344 d621      	RCALL SUBOPT_0x21
000345 33e2      	CPI  R30,LOW(0x32)
000346 f410      	BRSH _0x6B
000347 d61b      	RCALL SUBOPT_0x20
000348 d604      	RCALL SUBOPT_0x1A
                 _0x6B:
                 ; 0000 00D0 if (down==0) { delay_ms(1); if (ts>0) {ts--;} }
                 _0x6A:
000349 99b3      	SBIC 0x16,3
00034a c005      	RJMP _0x6C
00034b d61a      	RCALL SUBOPT_0x21
00034c 30e1      	CPI  R30,LOW(0x1)
00034d f010      	BRLO _0x6D
00034e d614      	RCALL SUBOPT_0x20
00034f d601      	RCALL SUBOPT_0x1B
                 _0x6D:
                 ; 0000 00D1 if (ok==0) { goto set_kp; }
                 _0x6C:
000350 9bb0      	SBIS 0x16,0
000351 cf9b      	RJMP _0x44
                 ; 0000 00D2 if (cancel==0) { goto set_kd; }
000352 9bb1      	SBIS 0x16,1
000353 cfcd      	RJMP _0x61
                 ; 0000 00D3 goto set_ts;
000354 cfe6      	RJMP _0x68
                 ; 0000 00D4 
                 ; 0000 00D5 //*******************************SETT SPEDD*********************************************
                 ; 0000 00D6 set_MAXspeed:
                 _0x4A:
                 ; 0000 00D7 delay_ms(100); lcd_clear(); lcd_gotoxy(0,0); sprintf(data,"Speed:%d ",max_speed);
000355 d5be      	RCALL SUBOPT_0xC
000356 d5dd      	RCALL SUBOPT_0x15
                +
000357 eae7     +LDI R30 , LOW ( 2 * _0x0 + ( 107 ) )
000358 e0f0     +LDI R31 , HIGH ( 2 * _0x0 + ( 107 ) )
                 	__POINTW1FN _0x0,107
000359 d5df      	RCALL SUBOPT_0x16
00035a d60f      	RCALL SUBOPT_0x22
00035b d5e3      	RCALL SUBOPT_0x18
                 ; 0000 00D8 lcd_puts(data);
                 ; 0000 00D9 if (up==0) { delay_ms(1); if (max_speed<255) {max_speed+=5;} }
00035c 99b2      	SBIC 0x16,2
00035d c007      	RJMP _0x70
00035e d60e      	RCALL SUBOPT_0x23
00035f 3fef      	CPI  R30,LOW(0xFF)
000360 f420      	BRSH _0x71
000361 d608      	RCALL SUBOPT_0x22
000362 5feb      	SUBI R30,-LOW(5)
000363 d5bd      	RCALL SUBOPT_0xF
000364 d9ba      	RCALL __EEPROMWRB
                 _0x71:
                 ; 0000 00DA if (down==0) { delay_ms(1); if (max_speed>0) {max_speed-=5;} }
                 _0x70:
000365 99b3      	SBIC 0x16,3
000366 c007      	RJMP _0x72
000367 d605      	RCALL SUBOPT_0x23
000368 30e1      	CPI  R30,LOW(0x1)
000369 f020      	BRLO _0x73
00036a d5ff      	RCALL SUBOPT_0x22
00036b 50e5      	SUBI R30,LOW(5)
00036c d5b4      	RCALL SUBOPT_0xF
00036d d9b1      	RCALL __EEPROMWRB
                 _0x73:
                 ; 0000 00DB if (cancel==0) { goto warning3; }
                 _0x72:
00036e 9bb1      	SBIS 0x16,1
00036f cf1e      	RJMP _0x42
                 ; 0000 00DC goto set_MAXspeed;
000370 cfe4      	RJMP _0x4A
                 ; 0000 00DD 
                 ; 0000 00DE //*******************************SETT ADC*********************************************
                 ; 0000 00DF disp: //01234567
                 _0x4F:
                 ; 0000 00E0 lcd_gotoxy(0,0); lcd_putsf("SENS:");
000371 d5bb      	RCALL SUBOPT_0x13
                +
000372 eba1     +LDI R26 , LOW ( 2 * _0x0 + ( 117 ) )
000373 e0b0     +LDI R27 , HIGH ( 2 * _0x0 + ( 117 ) )
                 	__POINTW2FN _0x0,117
000374 d51b      	RCALL _lcd_putsf
                 ; 0000 00E1 scan();
000375 dd90      	RCALL _scan
                 ; 0000 00E2 if (ok==0) {x=0; goto settadc;}
000376 99b0      	SBIC 0x16,0
000377 c002      	RJMP _0x75
000378 24dd      	CLR  R13
000379 c003      	RJMP _0x76
                 ; 0000 00E3 if (cancel==0) {goto warning4;}
                 _0x75:
00037a 9bb1      	SBIS 0x16,1
00037b cf1f      	RJMP _0x48
                 ; 0000 00E4 goto disp;
00037c cff4      	RJMP _0x4F
                 ; 0000 00E5 
                 ; 0000 00E6 settadc: //01234567
                 _0x76:
                 ; 0000 00E7 delay_ms(100); lcd_clear(); lcd_gotoxy(0,0); sprintf(data,"ADC_%d=%3d , %3d", x,
00037d d596      	RCALL SUBOPT_0xC
                 ; 0000 00E8 read_adc(x), B[x] ); lcd_puts(data);
00037e d5b5      	RCALL SUBOPT_0x15
                +
00037f ebe7     +LDI R30 , LOW ( 2 * _0x0 + ( 123 ) )
000380 e0f0     +LDI R31 , HIGH ( 2 * _0x0 + ( 123 ) )
                 	__POINTW1FN _0x0,123
000381 d5b7      	RCALL SUBOPT_0x16
000382 2ded      	MOV  R30,R13
000383 d5ed      	RCALL SUBOPT_0x24
000384 dd45      	RCALL _read_adc
000385 d5eb      	RCALL SUBOPT_0x24
000386 d5f0      	RCALL SUBOPT_0x25
000387 5fab      	SUBI R26,LOW(-_B)
000388 4fbf      	SBCI R27,HIGH(-_B)
000389 d989      	RCALL __EEPROMRDB
00038a 27ff      	CLR  R31
00038b 2766      	CLR  R22
00038c 2777      	CLR  R23
00038d d5eb      	RCALL SUBOPT_0x26
                 ; 0000 00E9 read_adc(x);
00038e 2dad      	MOV  R26,R13
00038f dd3a      	RCALL _read_adc
                 ; 0000 00EA if (ok==0) {delay_ms(150); B[x]=read_adc(x);}
000390 99b0      	SBIC 0x16,0
000391 c00c      	RJMP _0x78
000392 d5ed      	RCALL SUBOPT_0x27
000393 2ded      	MOV  R30,R13
000394 d54e      	RCALL SUBOPT_0x0
000395 5feb      	SUBI R30,LOW(-_B)
000396 4fff      	SBCI R31,HIGH(-_B)
000397 93ff      	PUSH R31
000398 93ef      	PUSH R30
000399 2dad      	MOV  R26,R13
00039a dd2f      	RCALL _read_adc
00039b 91af      	POP  R26
00039c 91bf      	POP  R27
00039d d981      	RCALL __EEPROMWRB
                 ; 0000 00EB if (cancel==0) {delay_ms(150); lcd_clear(); goto disp;}
                 _0x78:
00039e 99b1      	SBIC 0x16,1
00039f c003      	RJMP _0x79
0003a0 d5df      	RCALL SUBOPT_0x27
0003a1 d4b7      	RCALL _lcd_clear
0003a2 cfce      	RJMP _0x4F
                 ; 0000 00EC 
                 ; 0000 00ED if (up==0) {delay_ms(150); if (x<7) {x++;}
                 _0x79:
0003a3 99b2      	SBIC 0x16,2
0003a4 c005      	RJMP _0x7A
0003a5 d5da      	RCALL SUBOPT_0x27
0003a6 e0e7      	LDI  R30,LOW(7)
0003a7 16de      	CP   R13,R30
0003a8 f408      	BRSH _0x7B
0003a9 94d3      	INC  R13
                 ; 0000 00EE }
                 _0x7B:
                 ; 0000 00EF 
                 ; 0000 00F0 if (down==0) {delay_ms(150); if (x>0) {x--;}
                 _0x7A:
0003aa 99b3      	SBIC 0x16,3
0003ab c005      	RJMP _0x7C
0003ac d5d3      	RCALL SUBOPT_0x27
0003ad e0e0      	LDI  R30,LOW(0)
0003ae 15ed      	CP   R30,R13
0003af f408      	BRSH _0x7D
0003b0 94da      	DEC  R13
                 ; 0000 00F1 }
                 _0x7D:
                 ; 0000 00F2 goto settadc;
                 _0x7C:
0003b1 cfcb      	RJMP _0x76
                 ; 0000 00F3 
                 ; 0000 00F4 //*******************************START****************************
                 ; 0000 00F5 start:
                 _0x3E:
                 ; 0000 00F6 delay_ms(100); lcd_clear(); x=0;
0003b2 d567      	RCALL SUBOPT_0xD
0003b3 24dd      	CLR  R13
                 ; 0000 00F7 
                 ; 0000 00F8 }
0003b4 9508      	RET
                 ;
                 ;//*******************************WRITE ALL*********************************************
                 ;void write_all()
                 ; 0000 00FC {lcd_gotoxy(0,0);
                 _write_all:
0003b5 d577      	RCALL SUBOPT_0x13
                 ; 0000 00FD kpF=kp*5; lcd_putchar('R'); delay_ms(10);
0003b6 d585      	RCALL SUBOPT_0x17
0003b7 e0a5      	LDI  R26,LOW(5)
0003b8 9fea      	MUL  R30,R26
0003b9 01f0      	MOVW R30,R0
0003ba 93e0 012f 	STS  _kpF,R30
0003bc 93f0 0130 	STS  _kpF+1,R31
0003be e5a2      	LDI  R26,LOW(82)
0003bf d4a8      	RCALL _lcd_putchar
0003c0 e0aa      	LDI  R26,LOW(10)
0003c1 d5c1      	RCALL SUBOPT_0x28
                 ; 0000 00FE kiF=ki;   lcd_putchar('E'); delay_ms(20);
0003c2 d592      	RCALL SUBOPT_0x1C
0003c3 d51f      	RCALL SUBOPT_0x0
0003c4 93e0 0131 	STS  _kiF,R30
0003c6 93f0 0132 	STS  _kiF+1,R31
0003c8 e4a5      	LDI  R26,LOW(69)
0003c9 d49e      	RCALL _lcd_putchar
0003ca e1a4      	LDI  R26,LOW(20)
0003cb d5b7      	RCALL SUBOPT_0x28
                 ; 0000 00FF kdF=kd; lcd_putchar('A'); delay_ms(30);
0003cc d58f      	RCALL SUBOPT_0x1E
0003cd d515      	RCALL SUBOPT_0x0
0003ce 93e0 0133 	STS  _kdF,R30
0003d0 93f0 0134 	STS  _kdF+1,R31
0003d2 e4a1      	LDI  R26,LOW(65)
0003d3 d494      	RCALL _lcd_putchar
0003d4 e1ae      	LDI  R26,LOW(30)
0003d5 d5ad      	RCALL SUBOPT_0x28
                 ; 0000 0100 tF = (float) ts / (float) 10; lcd_putchar('D'); delay_ms(40);
0003d6 d58c      	RCALL SUBOPT_0x20
0003d7 27ff      	CLR  R31
0003d8 2766      	CLR  R22
0003d9 2777      	CLR  R23
0003da d82d      	RCALL __CDF1
0003db d5a9      	RCALL SUBOPT_0x29
                +
0003dc e0e0     +LDI R30 , LOW ( 0x41200000 )
0003dd e0f0     +LDI R31 , HIGH ( 0x41200000 )
0003de e260     +LDI R22 , BYTE3 ( 0x41200000 )
0003df e471     +LDI R23 , BYTE4 ( 0x41200000 )
                 	__GETD1N 0x41200000
0003e0 d8aa      	RCALL __DIVF21
0003e1 93e0 0101 	STS  _tF,R30
0003e3 93f0 0102 	STS  _tF+1,R31
0003e5 9360 0103 	STS  _tF+2,R22
0003e7 9370 0104 	STS  _tF+3,R23
0003e9 e4a4      	LDI  R26,LOW(68)
0003ea d47d      	RCALL _lcd_putchar
0003eb e2a8      	LDI  R26,LOW(40)
0003ec d596      	RCALL SUBOPT_0x28
                 ; 0000 0101 max_speedF=max_speed; lcd_putchar('_'); delay_ms(50);
0003ed d57c      	RCALL SUBOPT_0x22
0003ee d4f4      	RCALL SUBOPT_0x0
0003ef 93e0 013b 	STS  _max_speedF,R30
0003f1 93f0 013c 	STS  _max_speedF+1,R31
0003f3 e5af      	LDI  R26,LOW(95)
0003f4 d473      	RCALL _lcd_putchar
0003f5 e3a2      	LDI  R26,LOW(50)
0003f6 d58c      	RCALL SUBOPT_0x28
                 ; 0000 0102 min=0-max_speed; lcd_putchar('E'); delay_ms(60);
0003f7 d572      	RCALL SUBOPT_0x22
0003f8 d4ea      	RCALL SUBOPT_0x0
0003f9 e0a0      	LDI  R26,LOW(0)
0003fa e0b0      	LDI  R27,HIGH(0)
0003fb 1bae      	SUB  R26,R30
0003fc 0bbf      	SBC  R27,R31
0003fd 93a0 013d 	STS  _min,R26
0003ff 93b0 013e 	STS  _min+1,R27
000401 e4a5      	LDI  R26,LOW(69)
000402 d465      	RCALL _lcd_putchar
000403 e3ac      	LDI  R26,LOW(60)
000404 d57e      	RCALL SUBOPT_0x28
                 ; 0000 0103 lcd_putchar('E'); delay_ms(70);
000405 e4a5      	LDI  R26,LOW(69)
000406 d461      	RCALL _lcd_putchar
000407 e4a6      	LDI  R26,LOW(70)
000408 d57a      	RCALL SUBOPT_0x28
                 ; 0000 0104 lcd_putchar('P'); delay_ms(80);
000409 e5a0      	LDI  R26,LOW(80)
00040a d45d      	RCALL _lcd_putchar
00040b e5a0      	LDI  R26,LOW(80)
00040c d576      	RCALL SUBOPT_0x28
                 ; 0000 0105 lcd_putchar('R'); delay_ms(90);
00040d e5a2      	LDI  R26,LOW(82)
00040e d459      	RCALL _lcd_putchar
00040f e5aa      	LDI  R26,LOW(90)
000410 d572      	RCALL SUBOPT_0x28
                 ; 0000 0106 lcd_putchar('O'); delay_ms(100);
000411 e4af      	LDI  R26,LOW(79)
000412 d455      	RCALL _lcd_putchar
000413 e6a4      	LDI  R26,LOW(100)
000414 d56e      	RCALL SUBOPT_0x28
                 ; 0000 0107 lcd_putchar('M'); delay_ms(200); lcd_clear();
000415 e4ad      	LDI  R26,LOW(77)
000416 d451      	RCALL _lcd_putchar
000417 eca8      	LDI  R26,LOW(200)
000418 d56a      	RCALL SUBOPT_0x28
000419 d43f      	RCALL _lcd_clear
                 ; 0000 0108 lcd_gotoxy(0,0); lcd_putsf("kp ki kd");
00041a d512      	RCALL SUBOPT_0x13
                +
00041b eca8     +LDI R26 , LOW ( 2 * _0x0 + ( 140 ) )
00041c e0b0     +LDI R27 , HIGH ( 2 * _0x0 + ( 140 ) )
                 	__POINTW2FN _0x0,140
00041d d56a      	RCALL SUBOPT_0x2A
                 ; 0000 0109 lcd_gotoxy(0,1); sprintf(data,"%3d %3d %5d", kpF, kiF, kdF); lcd_puts(data);
                +
00041e ede1     +LDI R30 , LOW ( 2 * _0x0 + ( 149 ) )
00041f e0f0     +LDI R31 , HIGH ( 2 * _0x0 + ( 149 ) )
                 	__POINTW1FN _0x0,149
000420 d518      	RCALL SUBOPT_0x16
000421 91e0 012f 	LDS  R30,_kpF
000423 91f0 0130 	LDS  R31,_kpF+1
000425 d568      	RCALL SUBOPT_0x2B
000426 91e0 0131 	LDS  R30,_kiF
000428 91f0 0132 	LDS  R31,_kiF+1
00042a d563      	RCALL SUBOPT_0x2B
00042b 91e0 0133 	LDS  R30,_kdF
00042d 91f0 0134 	LDS  R31,_kdF+1
00042f d561      	RCALL SUBOPT_0x2C
                 ; 0000 010A delay_ms(500); lcd_clear();
000430 d562      	RCALL SUBOPT_0x2D
                 ; 0000 010B lcd_gotoxy(0,0); lcd_putsf("Speed Ts");
                +
000431 edad     +LDI R26 , LOW ( 2 * _0x0 + ( 161 ) )
000432 e0b0     +LDI R27 , HIGH ( 2 * _0x0 + ( 161 ) )
                 	__POINTW2FN _0x0,161
000433 d554      	RCALL SUBOPT_0x2A
                 ; 0000 010C lcd_gotoxy(0,1); sprintf(data,"%3d %d", max_speedF, (int)tF); lcd_puts(data);
                +
000434 eee6     +LDI R30 , LOW ( 2 * _0x0 + ( 170 ) )
000435 e0f0     +LDI R31 , HIGH ( 2 * _0x0 + ( 170 ) )
                 	__POINTW1FN _0x0,170
000436 d502      	RCALL SUBOPT_0x16
000437 d560      	RCALL SUBOPT_0x2E
000438 d555      	RCALL SUBOPT_0x2B
000439 d563      	RCALL SUBOPT_0x2F
00043a d796      	RCALL __CFD1
00043b d552      	RCALL SUBOPT_0x2B
00043c e088      	LDI  R24,8
00043d d3c2      	RCALL _sprintf
00043e 962c      	ADIW R28,12
00043f d566      	RCALL SUBOPT_0x30
                 ; 0000 010D delay_ms(500); lcd_clear();
000440 d552      	RCALL SUBOPT_0x2D
                 ; 0000 010E lcd_gotoxy(0,0); lcd_putsf("Read Complete"); delay_ms(500); lcd_clear();
                +
000441 eead     +LDI R26 , LOW ( 2 * _0x0 + ( 177 ) )
000442 e0b0     +LDI R27 , HIGH ( 2 * _0x0 + ( 177 ) )
                 	__POINTW2FN _0x0,177
000443 d4eb      	RCALL SUBOPT_0x14
                 ; 0000 010F }
000444 9508      	RET
                 ;
                 ;//*******************************ON_AIR****************************
                 ;void program()
                 ; 0000 0113 {
                 _program:
                 ; 0000 0114 pilih:
                 _0x7E:
                 ; 0000 0115 lcd_gotoxy(0,1); lcd_putsf("TEKAN OK!");
000445 d563      	RCALL SUBOPT_0x31
                +
000446 efab     +LDI R26 , LOW ( 2 * _0x0 + ( 191 ) )
000447 e0b0     +LDI R27 , HIGH ( 2 * _0x0 + ( 191 ) )
                 	__POINTW2FN _0x0,191
000448 d447      	RCALL _lcd_putsf
                 ; 0000 0116 if (ok==0 && x==150) {lcd_clear(); goto hitam;}
000449 d563      	RCALL SUBOPT_0x32
00044a f419      	BRNE _0x80
00044b e9e6      	LDI  R30,LOW(150)
00044c 15ed      	CP   R30,R13
00044d f009      	BREQ _0x81
                 _0x80:
00044e c002      	RJMP _0x7F
                 _0x81:
00044f d409      	RCALL _lcd_clear
000450 c009      	RJMP _0x82
                 ; 0000 0117 if (ok==0 && x==200) {lcd_clear(); goto putih;}
                 _0x7F:
000451 d55b      	RCALL SUBOPT_0x32
000452 f419      	BRNE _0x84
000453 ece8      	LDI  R30,LOW(200)
000454 15ed      	CP   R30,R13
000455 f009      	BREQ _0x85
                 _0x84:
000456 c002      	RJMP _0x83
                 _0x85:
000457 d401      	RCALL _lcd_clear
000458 c0fc      	RJMP _0x86
                 ; 0000 0118 goto pilih;
                 _0x83:
000459 cfeb      	RJMP _0x7E
                 ; 0000 0119 
                 ; 0000 011A hitam:
                 _0x82:
                 ; 0000 011B Lampu=0;
00045a 9897      	CBI  0x12,7
                 ; 0000 011C lcd_gotoxy(0,0); sprintf(data,"%5d", hasil); lcd_puts(data);
00045b d4d1      	RCALL SUBOPT_0x13
00045c d4d7      	RCALL SUBOPT_0x15
00045d d554      	RCALL SUBOPT_0x33
00045e d55b      	RCALL SUBOPT_0x34
                 ; 0000 011D lcd_gotoxy(0,1); sprintf(data,"L%3d R%3d p%3d", m1, m2, posisi); lcd_puts(data);
00045f d549      	RCALL SUBOPT_0x31
000460 d4d3      	RCALL SUBOPT_0x15
000461 d55c      	RCALL SUBOPT_0x35
000462 d563      	RCALL SUBOPT_0x36
000463 d567      	RCALL SUBOPT_0x37
000464 d52c      	RCALL SUBOPT_0x2C
                 ; 0000 011E scan();
000465 dca0      	RCALL _scan
                 ; 0000 011F if (sensor==0b11111110) {posisi=7;} // +error ujung kiri
000466 efee      	LDI  R30,LOW(254)
000467 15ea      	CP   R30,R10
000468 f409      	BRNE _0x89
000469 d566      	RCALL SUBOPT_0x38
                 ; 0000 0120 if (sensor==0b11111101) {posisi=5;}
                 _0x89:
00046a efed      	LDI  R30,LOW(253)
00046b 15ea      	CP   R30,R10
00046c f409      	BRNE _0x8A
00046d d569      	RCALL SUBOPT_0x39
                 ; 0000 0121 if (sensor==0b11111011) {posisi=3;}
                 _0x8A:
00046e efeb      	LDI  R30,LOW(251)
00046f 15ea      	CP   R30,R10
000470 f409      	BRNE _0x8B
000471 d56c      	RCALL SUBOPT_0x3A
                 ; 0000 0122 if (sensor==0b11110111) {posisi=1;}
                 _0x8B:
000472 efe7      	LDI  R30,LOW(247)
000473 15ea      	CP   R30,R10
000474 f409      	BRNE _0x8C
000475 d56f      	RCALL SUBOPT_0x3B
                 ; 0000 0123 if (sensor==0b11101111) {posisi=-1;}
                 _0x8C:
000476 eeef      	LDI  R30,LOW(239)
000477 15ea      	CP   R30,R10
000478 f409      	BRNE _0x8D
000479 d572      	RCALL SUBOPT_0x3C
                 ; 0000 0124 if (sensor==0b11011111) {posisi=-3;}
                 _0x8D:
00047a edef      	LDI  R30,LOW(223)
00047b 15ea      	CP   R30,R10
00047c f409      	BRNE _0x8E
00047d d575      	RCALL SUBOPT_0x3D
                 ; 0000 0125 if (sensor==0b10111111) {posisi=-5;}
                 _0x8E:
00047e ebef      	LDI  R30,LOW(191)
00047f 15ea      	CP   R30,R10
000480 f409      	BRNE _0x8F
000481 d578      	RCALL SUBOPT_0x3E
                 ; 0000 0126 if (sensor==0b01111111) {posisi=-7;} // -error ujung kanan
                 _0x8F:
000482 e7ef      	LDI  R30,LOW(127)
000483 15ea      	CP   R30,R10
000484 f409      	BRNE _0x90
000485 d57b      	RCALL SUBOPT_0x3F
                 ; 0000 0127 
                 ; 0000 0128 if (sensor==0b11111100) {posisi=6;}
                 _0x90:
000486 efec      	LDI  R30,LOW(252)
000487 15ea      	CP   R30,R10
000488 f409      	BRNE _0x91
000489 d57e      	RCALL SUBOPT_0x40
                 ; 0000 0129 if (sensor==0b11111001) {posisi=4;}
                 _0x91:
00048a efe9      	LDI  R30,LOW(249)
00048b 15ea      	CP   R30,R10
00048c f409      	BRNE _0x92
00048d d581      	RCALL SUBOPT_0x41
                 ; 0000 012A if (sensor==0b11110011) {posisi=2;}
                 _0x92:
00048e efe3      	LDI  R30,LOW(243)
00048f 15ea      	CP   R30,R10
000490 f409      	BRNE _0x93
000491 d584      	RCALL SUBOPT_0x42
                 ; 0000 012B if (sensor==0b11100111) {posisi=0;} //tengah
                 _0x93:
000492 eee7      	LDI  R30,LOW(231)
000493 15ea      	CP   R30,R10
000494 f409      	BRNE _0x94
000495 d587      	RCALL SUBOPT_0x43
                 ; 0000 012C if (sensor==0b11001111) {posisi=-2;}
                 _0x94:
000496 ecef      	LDI  R30,LOW(207)
000497 15ea      	CP   R30,R10
000498 f409      	BRNE _0x95
000499 d589      	RCALL SUBOPT_0x44
                 ; 0000 012D if (sensor==0b10011111) {posisi=-4;}
                 _0x95:
00049a e9ef      	LDI  R30,LOW(159)
00049b 15ea      	CP   R30,R10
00049c f409      	BRNE _0x96
00049d d58c      	RCALL SUBOPT_0x45
                 ; 0000 012E if (sensor==0b00111111) {posisi=-6;}
                 _0x96:
00049e e3ef      	LDI  R30,LOW(63)
00049f 15ea      	CP   R30,R10
0004a0 f409      	BRNE _0x97
0004a1 d58f      	RCALL SUBOPT_0x46
                 ; 0000 012F 
                 ; 0000 0130 if (sensor==0b11111000) {posisi=5;}
                 _0x97:
0004a2 efe8      	LDI  R30,LOW(248)
0004a3 15ea      	CP   R30,R10
0004a4 f409      	BRNE _0x98
0004a5 d531      	RCALL SUBOPT_0x39
                 ; 0000 0131 if (sensor==0b11110001) {posisi=3;}
                 _0x98:
0004a6 efe1      	LDI  R30,LOW(241)
0004a7 15ea      	CP   R30,R10
0004a8 f409      	BRNE _0x99
0004a9 d534      	RCALL SUBOPT_0x3A
                 ; 0000 0132 if (sensor==0b11100011) {posisi=1;}
                 _0x99:
0004aa eee3      	LDI  R30,LOW(227)
0004ab 15ea      	CP   R30,R10
0004ac f409      	BRNE _0x9A
0004ad d537      	RCALL SUBOPT_0x3B
                 ; 0000 0133 if (sensor==0b11000111) {posisi=-1;}
                 _0x9A:
0004ae ece7      	LDI  R30,LOW(199)
0004af 15ea      	CP   R30,R10
0004b0 f409      	BRNE _0x9B
0004b1 d53a      	RCALL SUBOPT_0x3C
                 ; 0000 0134 if (sensor==0b10001111) {posisi=-3;}
                 _0x9B:
0004b2 e8ef      	LDI  R30,LOW(143)
0004b3 15ea      	CP   R30,R10
0004b4 f409      	BRNE _0x9C
0004b5 d53d      	RCALL SUBOPT_0x3D
                 ; 0000 0135 if (sensor==0b00011111) {posisi=-5;}
                 _0x9C:
0004b6 e1ef      	LDI  R30,LOW(31)
0004b7 15ea      	CP   R30,R10
0004b8 f409      	BRNE _0x9D
0004b9 d540      	RCALL SUBOPT_0x3E
                 ; 0000 0136 
                 ; 0000 0137 if (sensor==0b11110000) {posisi=6;}
                 _0x9D:
0004ba efe0      	LDI  R30,LOW(240)
0004bb 15ea      	CP   R30,R10
0004bc f409      	BRNE _0x9E
0004bd d54a      	RCALL SUBOPT_0x40
                 ; 0000 0138 if (sensor==0b11100001) {posisi=5;}
                 _0x9E:
0004be eee1      	LDI  R30,LOW(225)
0004bf 15ea      	CP   R30,R10
0004c0 f409      	BRNE _0x9F
0004c1 d515      	RCALL SUBOPT_0x39
                 ; 0000 0139 if (sensor==0b11000011) {posisi=0;}
                 _0x9F:
0004c2 ece3      	LDI  R30,LOW(195)
0004c3 15ea      	CP   R30,R10
0004c4 f409      	BRNE _0xA0
0004c5 d557      	RCALL SUBOPT_0x43
                 ; 0000 013A if (sensor==0b10000111) {posisi=-5;}
                 _0xA0:
0004c6 e8e7      	LDI  R30,LOW(135)
0004c7 15ea      	CP   R30,R10
0004c8 f409      	BRNE _0xA1
0004c9 d530      	RCALL SUBOPT_0x3E
                 ; 0000 013B if (sensor==0b00001111) {posisi=-6;}
                 _0xA1:
0004ca e0ef      	LDI  R30,LOW(15)
0004cb 15ea      	CP   R30,R10
0004cc f409      	BRNE _0xA2
0004cd d563      	RCALL SUBOPT_0x46
                 ; 0000 013C 
                 ; 0000 013D if (sensor==0b11100000) {posisi=7;}
                 _0xA2:
0004ce eee0      	LDI  R30,LOW(224)
0004cf 15ea      	CP   R30,R10
0004d0 f409      	BRNE _0xA3
0004d1 d4fe      	RCALL SUBOPT_0x38
                 ; 0000 013E if (sensor==0b11000001) {posisi=6;}
                 _0xA3:
0004d2 ece1      	LDI  R30,LOW(193)
0004d3 15ea      	CP   R30,R10
0004d4 f409      	BRNE _0xA4
0004d5 d532      	RCALL SUBOPT_0x40
                 ; 0000 013F if (sensor==0b10000011) {posisi=-6;}
                 _0xA4:
0004d6 e8e3      	LDI  R30,LOW(131)
0004d7 15ea      	CP   R30,R10
0004d8 f409      	BRNE _0xA5
0004d9 d557      	RCALL SUBOPT_0x46
                 ; 0000 0140 if (sensor==0b00000111) {posisi=-7;}
                 _0xA5:
0004da e0e7      	LDI  R30,LOW(7)
0004db 15ea      	CP   R30,R10
0004dc f409      	BRNE _0xA6
0004dd d523      	RCALL SUBOPT_0x3F
                 ; 0000 0141 
                 ; 0000 0142 if (sensor==0b10000001) {posisi=0;}
                 _0xA6:
0004de e8e1      	LDI  R30,LOW(129)
0004df 15ea      	CP   R30,R10
0004e0 f409      	BRNE _0xA7
0004e1 d53b      	RCALL SUBOPT_0x43
                 ; 0000 0143 if (sensor==0b00000000) {posisi=0;}
                 _0xA7:
0004e2 20aa      	TST  R10
0004e3 f409      	BRNE _0xA8
0004e4 d538      	RCALL SUBOPT_0x43
                 ; 0000 0144 if (sensor==0b10000000) {posisi=0;}
                 _0xA8:
0004e5 e8e0      	LDI  R30,LOW(128)
0004e6 15ea      	CP   R30,R10
0004e7 f409      	BRNE _0xA9
0004e8 d534      	RCALL SUBOPT_0x43
                 ; 0000 0145 if (sensor==0b00000001) {posisi=0;}
                 _0xA9:
0004e9 e0e1      	LDI  R30,LOW(1)
0004ea 15ea      	CP   R30,R10
0004eb f409      	BRNE _0xAA
0004ec d530      	RCALL SUBOPT_0x43
                 ; 0000 0146 
                 ; 0000 0147 if ( sensor==0b11111111 && sayap==0b01 ) {posisi=9;} //sayap kiri
                 _0xAA:
0004ed d54a      	RCALL SUBOPT_0x47
0004ee f419      	BRNE _0xAC
0004ef e0e1      	LDI  R30,LOW(1)
0004f0 15eb      	CP   R30,R11
0004f1 f009      	BREQ _0xAD
                 _0xAC:
0004f2 c001      	RJMP _0xAB
                 _0xAD:
0004f3 d547      	RCALL SUBOPT_0x48
                 ; 0000 0148 if ( sensor==0b11111111 && sayap==0b10 ) {posisi=-9;} //sayap kanan
                 _0xAB:
0004f4 d543      	RCALL SUBOPT_0x47
0004f5 f419      	BRNE _0xAF
0004f6 e0e2      	LDI  R30,LOW(2)
0004f7 15eb      	CP   R30,R11
0004f8 f009      	BREQ _0xB0
                 _0xAF:
0004f9 c002      	RJMP _0xAE
                 _0xB0:
0004fa d547      	RCALL SUBOPT_0x49
0004fb d549      	RCALL SUBOPT_0x4A
                 ; 0000 0149 
                 ; 0000 014A if ( sensor==0b11111111 && sayap==0b11 ) //loss
                 _0xAE:
0004fc d53b      	RCALL SUBOPT_0x47
0004fd f419      	BRNE _0xB2
0004fe e0e3      	LDI  R30,LOW(3)
0004ff 15eb      	CP   R30,R11
000500 f009      	BREQ _0xB3
                 _0xB2:
000501 c01d      	RJMP _0xB1
                 _0xB3:
                 ; 0000 014B {
                 ; 0000 014C if ( posisi >0 && posisi < 9) { posisi = 8; }
000502 d547      	RCALL SUBOPT_0x4B
000503 d82c      	RCALL __CPW02
000504 f414      	BRGE _0xB5
000505 d549      	RCALL SUBOPT_0x4C
000506 f00c      	BRLT _0xB6
                 _0xB5:
000507 c003      	RJMP _0xB4
                 _0xB6:
000508 e0e8      	LDI  R30,LOW(8)
000509 e0f0      	LDI  R31,HIGH(8)
00050a d53a      	RCALL SUBOPT_0x4A
                 ; 0000 014D if ( posisi <0 && posisi > -9) { posisi = -8 ; }
                 _0xB4:
00050b 91a0 0136 	LDS  R26,_posisi+1
00050d 23aa      	TST  R26
00050e f412      	BRPL _0xB8
00050f d542      	RCALL SUBOPT_0x4D
000510 f00c      	BRLT _0xB9
                 _0xB8:
000511 c003      	RJMP _0xB7
                 _0xB9:
000512 efe8      	LDI  R30,LOW(65528)
000513 efff      	LDI  R31,HIGH(65528)
000514 d530      	RCALL SUBOPT_0x4A
                 ; 0000 014E 
                 ; 0000 014F if ( posisi > 8 ) { posisi = 10; }
                 _0xB7:
000515 d539      	RCALL SUBOPT_0x4C
000516 f01c      	BRLT _0xBA
000517 e0ea      	LDI  R30,LOW(10)
000518 e0f0      	LDI  R31,HIGH(10)
000519 d52b      	RCALL SUBOPT_0x4A
                 ; 0000 0150 if ( posisi < -8 ) {posisi = -10; }
                 _0xBA:
00051a d53c      	RCALL SUBOPT_0x4E
00051b f41c      	BRGE _0xBB
00051c efe6      	LDI  R30,LOW(65526)
00051d efff      	LDI  R31,HIGH(65526)
00051e d526      	RCALL SUBOPT_0x4A
                 ; 0000 0151 }
                 _0xBB:
                 ; 0000 0152 
                 ; 0000 0153 error = (kpF * posisi);         //nilai error
                 _0xB1:
00051f d53c      	RCALL SUBOPT_0x4F
                 ; 0000 0154 P = error;                            //nilai P
                 ; 0000 0155 I = kiF * (error + last_error);    //nilai I
                 ; 0000 0156 D = kdF * (error - last_error);  //nilai D
                 ; 0000 0157 last_error = error;                      //nilai last error
                 ; 0000 0158 pid = (float)P + ( (float)I / (float)10000 ) + (float)D;
000520 937f      	PUSH R23
000521 936f      	PUSH R22
000522 93ff      	PUSH R31
000523 93ef      	PUSH R30
000524 d57a      	RCALL SUBOPT_0x50
000525 91af      	POP  R26
000526 91bf      	POP  R27
000527 918f      	POP  R24
000528 919f      	POP  R25
000529 d582      	RCALL SUBOPT_0x51
                 ; 0000 0159 hasil = (int)pid;
                 ; 0000 015A 
                 ; 0000 015B //motor kiri
                 ; 0000 015C m1 = max_speedF - hasil;
                 ; 0000 015D if ( m1 > max_speedF ) {m1 = max_speedF;}
00052a f40c      	BRGE _0xBC
00052b d5a9      	RCALL SUBOPT_0x52
                 ; 0000 015E if ( m1 < min ) {m1 = min;}
                 _0xBC:
00052c d5ae      	RCALL SUBOPT_0x53
00052d d5b2      	RCALL SUBOPT_0x54
00052e d5b6      	RCALL SUBOPT_0x55
00052f f40c      	BRGE _0xBD
000530 d5b7      	RCALL SUBOPT_0x56
                 ; 0000 015F if ( m1 > 0 ) {dd0=1; dd1=0;} // kiri maju
                 _0xBD:
000531 d5ae      	RCALL SUBOPT_0x54
000532 d7fd      	RCALL __CPW02
000533 f41c      	BRGE _0xBE
000534 e0e1      	LDI  R30,LOW(1)
000535 2e5e      	MOV  R5,R30
000536 2444      	CLR  R4
                 ; 0000 0160 if ( m1 < 0 ) {dd0=0; dd1=1; gas=0-m1; m1=gas;} // kiri mundur
                 _0xBE:
000537 91a0 0140 	LDS  R26,_m1+1
000539 23aa      	TST  R26
00053a f40a      	BRPL _0xBF
00053b d5b2      	RCALL SUBOPT_0x57
                 ; 0000 0161 if ( error == 0 ) {m1 = max_speedF; }
                 _0xBF:
00053c d5c2      	RCALL SUBOPT_0x58
00053d f409      	BRNE _0xC0
00053e d596      	RCALL SUBOPT_0x52
                 ; 0000 0162 
                 ; 0000 0163 //motor kanan
                 ; 0000 0164 m2 = max_speedF + hasil;
                 _0xC0:
00053f d5c5      	RCALL SUBOPT_0x59
                 ; 0000 0165 if ( m2 > max_speedF ) {m2 = max_speedF;}
000540 f40c      	BRGE _0xC1
000541 d5d9      	RCALL SUBOPT_0x5A
                 ; 0000 0166 if ( m2 < min ) {m2 = min;}
                 _0xC1:
000542 d5de      	RCALL SUBOPT_0x5B
000543 f40c      	BRGE _0xC2
000544 d5e2      	RCALL SUBOPT_0x5C
                 ; 0000 0167 if ( m2 > 0 ) {dd2=0; dd3=1;} // kanan maju
                 _0xC2:
000545 d5e7      	RCALL SUBOPT_0x5D
000546 d7e9      	RCALL __CPW02
000547 f41c      	BRGE _0xC3
000548 2477      	CLR  R7
000549 e0e1      	LDI  R30,LOW(1)
00054a 2e6e      	MOV  R6,R30
                 ; 0000 0168 if ( m2 < 0 ) {dd2=1; dd3=0; gas=0-m2; m2=gas;} // kanan mundur
                 _0xC3:
00054b 91a0 0142 	LDS  R26,_m2+1
00054d 23aa      	TST  R26
00054e f40a      	BRPL _0xC4
00054f d5e2      	RCALL SUBOPT_0x5E
                 ; 0000 0169 if ( error == 0 ) {m2 = max_speedF; }
                 _0xC4:
000550 d5ae      	RCALL SUBOPT_0x58
000551 f409      	BRNE _0xC5
000552 d5c8      	RCALL SUBOPT_0x5A
                 ; 0000 016A 
                 ; 0000 016B motor(dd0, dd1, dd2, dd3, m1, m2); // aksi motor
                 _0xC5:
000553 d5ef      	RCALL SUBOPT_0x5F
                 ; 0000 016C delay_ms(tF); // time sampling
                 ; 0000 016D goto hitam;
000554 cf05      	RJMP _0x82
                 ; 0000 016E 
                 ; 0000 016F putih:
                 _0x86:
                 ; 0000 0170 Lampu=1;
000555 9a97      	SBI  0x12,7
                 ; 0000 0171 lcd_gotoxy(0,0); sprintf(data,"%5d", hasil); lcd_puts(data);
000556 d3d6      	RCALL SUBOPT_0x13
000557 d3dc      	RCALL SUBOPT_0x15
000558 d459      	RCALL SUBOPT_0x33
000559 d460      	RCALL SUBOPT_0x34
                 ; 0000 0172 lcd_gotoxy(0,1); sprintf(data,"L%3d R%3d p%3d", m1, m2, posisi); lcd_puts(data);
00055a d44e      	RCALL SUBOPT_0x31
00055b d3d8      	RCALL SUBOPT_0x15
00055c d461      	RCALL SUBOPT_0x35
00055d d468      	RCALL SUBOPT_0x36
00055e d46c      	RCALL SUBOPT_0x37
00055f d431      	RCALL SUBOPT_0x2C
                 ; 0000 0173 scan();
000560 dba5      	RCALL _scan
                 ; 0000 0174 if (sensor==0b00000001) {posisi=7;} // +error ujung kiri
000561 e0e1      	LDI  R30,LOW(1)
000562 15ea      	CP   R30,R10
000563 f409      	BRNE _0xC8
000564 d46b      	RCALL SUBOPT_0x38
                 ; 0000 0175 if (sensor==0b00000010) {posisi=5;}
                 _0xC8:
000565 e0e2      	LDI  R30,LOW(2)
000566 15ea      	CP   R30,R10
000567 f409      	BRNE _0xC9
000568 d46e      	RCALL SUBOPT_0x39
                 ; 0000 0176 if (sensor==0b00000100) {posisi=3;}
                 _0xC9:
000569 e0e4      	LDI  R30,LOW(4)
00056a 15ea      	CP   R30,R10
00056b f409      	BRNE _0xCA
00056c d471      	RCALL SUBOPT_0x3A
                 ; 0000 0177 if (sensor==0b00001000) {posisi=1;}
                 _0xCA:
00056d e0e8      	LDI  R30,LOW(8)
00056e 15ea      	CP   R30,R10
00056f f409      	BRNE _0xCB
000570 d474      	RCALL SUBOPT_0x3B
                 ; 0000 0178 if (sensor==0b00010000) {posisi=-1;}
                 _0xCB:
000571 e1e0      	LDI  R30,LOW(16)
000572 15ea      	CP   R30,R10
000573 f409      	BRNE _0xCC
000574 d477      	RCALL SUBOPT_0x3C
                 ; 0000 0179 if (sensor==0b00100000) {posisi=-3;}
                 _0xCC:
000575 e2e0      	LDI  R30,LOW(32)
000576 15ea      	CP   R30,R10
000577 f409      	BRNE _0xCD
000578 d47a      	RCALL SUBOPT_0x3D
                 ; 0000 017A if (sensor==0b01000000) {posisi=-5;}
                 _0xCD:
000579 e4e0      	LDI  R30,LOW(64)
00057a 15ea      	CP   R30,R10
00057b f409      	BRNE _0xCE
00057c d47d      	RCALL SUBOPT_0x3E
                 ; 0000 017B if (sensor==0b10000000) {posisi=-7;} // -error ujung kanan
                 _0xCE:
00057d e8e0      	LDI  R30,LOW(128)
00057e 15ea      	CP   R30,R10
00057f f409      	BRNE _0xCF
000580 d480      	RCALL SUBOPT_0x3F
                 ; 0000 017C 
                 ; 0000 017D if (sensor==0b00000011) {posisi=6;}
                 _0xCF:
000581 e0e3      	LDI  R30,LOW(3)
000582 15ea      	CP   R30,R10
000583 f409      	BRNE _0xD0
000584 d483      	RCALL SUBOPT_0x40
                 ; 0000 017E if (sensor==0b00000110) {posisi=4;}
                 _0xD0:
000585 e0e6      	LDI  R30,LOW(6)
000586 15ea      	CP   R30,R10
000587 f409      	BRNE _0xD1
000588 d486      	RCALL SUBOPT_0x41
                 ; 0000 017F if (sensor==0b00001100) {posisi=2;}
                 _0xD1:
000589 e0ec      	LDI  R30,LOW(12)
00058a 15ea      	CP   R30,R10
00058b f409      	BRNE _0xD2
00058c d489      	RCALL SUBOPT_0x42
                 ; 0000 0180 if (sensor==0b00011000) {posisi=0;} //tengah
                 _0xD2:
00058d e1e8      	LDI  R30,LOW(24)
00058e 15ea      	CP   R30,R10
00058f f409      	BRNE _0xD3
000590 d48c      	RCALL SUBOPT_0x43
                 ; 0000 0181 if (sensor==0b00110000) {posisi=-2;}
                 _0xD3:
000591 e3e0      	LDI  R30,LOW(48)
000592 15ea      	CP   R30,R10
000593 f409      	BRNE _0xD4
000594 d48e      	RCALL SUBOPT_0x44
                 ; 0000 0182 if (sensor==0b01100000) {posisi=-4;}
                 _0xD4:
000595 e6e0      	LDI  R30,LOW(96)
000596 15ea      	CP   R30,R10
000597 f409      	BRNE _0xD5
000598 d491      	RCALL SUBOPT_0x45
                 ; 0000 0183 if (sensor==0b11000000) {posisi=-6;}
                 _0xD5:
000599 ece0      	LDI  R30,LOW(192)
00059a 15ea      	CP   R30,R10
00059b f409      	BRNE _0xD6
00059c d494      	RCALL SUBOPT_0x46
                 ; 0000 0184 
                 ; 0000 0185 if (sensor==0b00000111) {posisi=5;}
                 _0xD6:
00059d e0e7      	LDI  R30,LOW(7)
00059e 15ea      	CP   R30,R10
00059f f409      	BRNE _0xD7
0005a0 d436      	RCALL SUBOPT_0x39
                 ; 0000 0186 if (sensor==0b00001110) {posisi=3;}
                 _0xD7:
0005a1 e0ee      	LDI  R30,LOW(14)
0005a2 15ea      	CP   R30,R10
0005a3 f409      	BRNE _0xD8
0005a4 d439      	RCALL SUBOPT_0x3A
                 ; 0000 0187 if (sensor==0b00011100) {posisi=1;}
                 _0xD8:
0005a5 e1ec      	LDI  R30,LOW(28)
0005a6 15ea      	CP   R30,R10
0005a7 f409      	BRNE _0xD9
0005a8 d43c      	RCALL SUBOPT_0x3B
                 ; 0000 0188 if (sensor==0b00111000) {posisi=-1;}
                 _0xD9:
0005a9 e3e8      	LDI  R30,LOW(56)
0005aa 15ea      	CP   R30,R10
0005ab f409      	BRNE _0xDA
0005ac d43f      	RCALL SUBOPT_0x3C
                 ; 0000 0189 if (sensor==0b01110000) {posisi=-3;}
                 _0xDA:
0005ad e7e0      	LDI  R30,LOW(112)
0005ae 15ea      	CP   R30,R10
0005af f409      	BRNE _0xDB
0005b0 d442      	RCALL SUBOPT_0x3D
                 ; 0000 018A if (sensor==0b11100000) {posisi=-5;}
                 _0xDB:
0005b1 eee0      	LDI  R30,LOW(224)
0005b2 15ea      	CP   R30,R10
0005b3 f409      	BRNE _0xDC
0005b4 d445      	RCALL SUBOPT_0x3E
                 ; 0000 018B 
                 ; 0000 018C if (sensor==0b00001111) {posisi=6;}
                 _0xDC:
0005b5 e0ef      	LDI  R30,LOW(15)
0005b6 15ea      	CP   R30,R10
0005b7 f409      	BRNE _0xDD
0005b8 d44f      	RCALL SUBOPT_0x40
                 ; 0000 018D if (sensor==0b00011110) {posisi=5;}
                 _0xDD:
0005b9 e1ee      	LDI  R30,LOW(30)
0005ba 15ea      	CP   R30,R10
0005bb f409      	BRNE _0xDE
0005bc d41a      	RCALL SUBOPT_0x39
                 ; 0000 018E if (sensor==0b00111100) {posisi=0;}
                 _0xDE:
0005bd e3ec      	LDI  R30,LOW(60)
0005be 15ea      	CP   R30,R10
0005bf f409      	BRNE _0xDF
0005c0 d45c      	RCALL SUBOPT_0x43
                 ; 0000 018F if (sensor==0b01111000) {posisi=-5;}
                 _0xDF:
0005c1 e7e8      	LDI  R30,LOW(120)
0005c2 15ea      	CP   R30,R10
0005c3 f409      	BRNE _0xE0
0005c4 d435      	RCALL SUBOPT_0x3E
                 ; 0000 0190 if (sensor==0b11110000) {posisi=-6;}
                 _0xE0:
0005c5 efe0      	LDI  R30,LOW(240)
0005c6 15ea      	CP   R30,R10
0005c7 f409      	BRNE _0xE1
0005c8 d468      	RCALL SUBOPT_0x46
                 ; 0000 0191 
                 ; 0000 0192 if (sensor==0b00011111) {posisi=7;}
                 _0xE1:
0005c9 e1ef      	LDI  R30,LOW(31)
0005ca 15ea      	CP   R30,R10
0005cb f409      	BRNE _0xE2
0005cc d403      	RCALL SUBOPT_0x38
                 ; 0000 0193 if (sensor==0b00111110) {posisi=6;}
                 _0xE2:
0005cd e3ee      	LDI  R30,LOW(62)
0005ce 15ea      	CP   R30,R10
0005cf f409      	BRNE _0xE3
0005d0 d437      	RCALL SUBOPT_0x40
                 ; 0000 0194 if (sensor==0b01111100) {posisi=-6;}
                 _0xE3:
0005d1 e7ec      	LDI  R30,LOW(124)
0005d2 15ea      	CP   R30,R10
0005d3 f409      	BRNE _0xE4
0005d4 d45c      	RCALL SUBOPT_0x46
                 ; 0000 0195 if (sensor==0b11111000) {posisi=-7;}
                 _0xE4:
0005d5 efe8      	LDI  R30,LOW(248)
0005d6 15ea      	CP   R30,R10
0005d7 f409      	BRNE _0xE5
0005d8 d428      	RCALL SUBOPT_0x3F
                 ; 0000 0196 
                 ; 0000 0197 if (sensor==0b01111110) {posisi=0;}
                 _0xE5:
0005d9 e7ee      	LDI  R30,LOW(126)
0005da 15ea      	CP   R30,R10
0005db f409      	BRNE _0xE6
0005dc d440      	RCALL SUBOPT_0x43
                 ; 0000 0198 if (sensor==0b11111111) {posisi=0;}
                 _0xE6:
0005dd d45a      	RCALL SUBOPT_0x47
0005de f409      	BRNE _0xE7
0005df d43d      	RCALL SUBOPT_0x43
                 ; 0000 0199 if (sensor==0b01111111) {posisi=0;}
                 _0xE7:
0005e0 e7ef      	LDI  R30,LOW(127)
0005e1 15ea      	CP   R30,R10
0005e2 f409      	BRNE _0xE8
0005e3 d439      	RCALL SUBOPT_0x43
                 ; 0000 019A if (sensor==0b11111110) {posisi=0;}
                 _0xE8:
0005e4 efee      	LDI  R30,LOW(254)
0005e5 15ea      	CP   R30,R10
0005e6 f409      	BRNE _0xE9
0005e7 d435      	RCALL SUBOPT_0x43
                 ; 0000 019B 
                 ; 0000 019C if ( sensor==0b00000000 && sayap==0b10 ) {posisi=9;} //sayap kiri
                 _0xE9:
0005e8 d568      	RCALL SUBOPT_0x60
0005e9 f419      	BRNE _0xEB
0005ea e0e2      	LDI  R30,LOW(2)
0005eb 15eb      	CP   R30,R11
0005ec f009      	BREQ _0xEC
                 _0xEB:
0005ed c001      	RJMP _0xEA
                 _0xEC:
0005ee d44c      	RCALL SUBOPT_0x48
                 ; 0000 019D if ( sensor==0b00000000 && sayap==0b01 ) {posisi=-9;} //sayap kanan
                 _0xEA:
0005ef d561      	RCALL SUBOPT_0x60
0005f0 f419      	BRNE _0xEE
0005f1 e0e1      	LDI  R30,LOW(1)
0005f2 15eb      	CP   R30,R11
0005f3 f009      	BREQ _0xEF
                 _0xEE:
0005f4 c002      	RJMP _0xED
                 _0xEF:
0005f5 d44c      	RCALL SUBOPT_0x49
0005f6 d44e      	RCALL SUBOPT_0x4A
                 ; 0000 019E 
                 ; 0000 019F if ( sensor==0b00000000 && sayap==0b00 ) //loss
                 _0xED:
0005f7 d559      	RCALL SUBOPT_0x60
0005f8 f419      	BRNE _0xF1
0005f9 e0e0      	LDI  R30,LOW(0)
0005fa 15eb      	CP   R30,R11
0005fb f009      	BREQ _0xF2
                 _0xF1:
0005fc c01d      	RJMP _0xF0
                 _0xF2:
                 ; 0000 01A0 {
                 ; 0000 01A1 if ( posisi >0 && posisi < 9) { posisi = 8; }
0005fd d44c      	RCALL SUBOPT_0x4B
0005fe d731      	RCALL __CPW02
0005ff f414      	BRGE _0xF4
000600 d44e      	RCALL SUBOPT_0x4C
000601 f00c      	BRLT _0xF5
                 _0xF4:
000602 c003      	RJMP _0xF3
                 _0xF5:
000603 e0e8      	LDI  R30,LOW(8)
000604 e0f0      	LDI  R31,HIGH(8)
000605 d43f      	RCALL SUBOPT_0x4A
                 ; 0000 01A2 if ( posisi <0 && posisi > -9) { posisi = -8 ; }
                 _0xF3:
000606 91a0 0136 	LDS  R26,_posisi+1
000608 23aa      	TST  R26
000609 f412      	BRPL _0xF7
00060a d447      	RCALL SUBOPT_0x4D
00060b f00c      	BRLT _0xF8
                 _0xF7:
00060c c003      	RJMP _0xF6
                 _0xF8:
00060d efe8      	LDI  R30,LOW(65528)
00060e efff      	LDI  R31,HIGH(65528)
00060f d435      	RCALL SUBOPT_0x4A
                 ; 0000 01A3 
                 ; 0000 01A4 if ( posisi > 8 ) { posisi = 10; }
                 _0xF6:
000610 d43e      	RCALL SUBOPT_0x4C
000611 f01c      	BRLT _0xF9
000612 e0ea      	LDI  R30,LOW(10)
000613 e0f0      	LDI  R31,HIGH(10)
000614 d430      	RCALL SUBOPT_0x4A
                 ; 0000 01A5 if ( posisi < -8 ) {posisi = -10; }
                 _0xF9:
000615 d441      	RCALL SUBOPT_0x4E
000616 f41c      	BRGE _0xFA
000617 efe6      	LDI  R30,LOW(65526)
000618 efff      	LDI  R31,HIGH(65526)
000619 d42b      	RCALL SUBOPT_0x4A
                 ; 0000 01A6 }
                 _0xFA:
                 ; 0000 01A7 
                 ; 0000 01A8 error = (kpF * posisi);         //nilai error
                 _0xF0:
00061a d441      	RCALL SUBOPT_0x4F
                 ; 0000 01A9 P = error;                            //nilai P
                 ; 0000 01AA I = kiF * (error + last_error);    //nilai I
                 ; 0000 01AB D = kdF * (error - last_error);  //nilai D
                 ; 0000 01AC last_error = error;                      //nilai last error
                 ; 0000 01AD pid = (float)P + ( (float)I / (float)10000 ) + (float)D;
00061b 937f      	PUSH R23
00061c 936f      	PUSH R22
00061d 93ff      	PUSH R31
00061e 93ef      	PUSH R30
00061f d47f      	RCALL SUBOPT_0x50
000620 91af      	POP  R26
000621 91bf      	POP  R27
000622 918f      	POP  R24
000623 919f      	POP  R25
000624 d487      	RCALL SUBOPT_0x51
                 ; 0000 01AE hasil = (int)pid;
                 ; 0000 01AF 
                 ; 0000 01B0 //motor kiri
                 ; 0000 01B1 m1 = max_speedF - hasil;
                 ; 0000 01B2 if ( m1 > max_speedF ) {m1 = max_speedF;}
000625 f40c      	BRGE _0xFB
000626 d4ae      	RCALL SUBOPT_0x52
                 ; 0000 01B3 if ( m1 < min ) {m1 = min;}
                 _0xFB:
000627 d4b3      	RCALL SUBOPT_0x53
000628 d4b7      	RCALL SUBOPT_0x54
000629 d4bb      	RCALL SUBOPT_0x55
00062a f40c      	BRGE _0xFC
00062b d4bc      	RCALL SUBOPT_0x56
                 ; 0000 01B4 if ( m1 > 0 ) {dd0=1; dd1=0;} // kiri maju
                 _0xFC:
00062c d4b3      	RCALL SUBOPT_0x54
00062d d702      	RCALL __CPW02
00062e f41c      	BRGE _0xFD
00062f e0e1      	LDI  R30,LOW(1)
000630 2e5e      	MOV  R5,R30
000631 2444      	CLR  R4
                 ; 0000 01B5 if ( m1 < 0 ) {dd0=0; dd1=1; gas=0-m1; m1=gas;} // kiri mundur
                 _0xFD:
000632 91a0 0140 	LDS  R26,_m1+1
000634 23aa      	TST  R26
000635 f40a      	BRPL _0xFE
000636 d4b7      	RCALL SUBOPT_0x57
                 ; 0000 01B6 if ( error == 0 ) {m1 = max_speedF; }
                 _0xFE:
000637 d4c7      	RCALL SUBOPT_0x58
000638 f409      	BRNE _0xFF
000639 d49b      	RCALL SUBOPT_0x52
                 ; 0000 01B7 
                 ; 0000 01B8 //motor kanan
                 ; 0000 01B9 m2 = max_speedF + hasil;
                 _0xFF:
00063a d4ca      	RCALL SUBOPT_0x59
                 ; 0000 01BA if ( m2 > max_speedF ) {m2 = max_speedF;}
00063b f40c      	BRGE _0x100
00063c d4de      	RCALL SUBOPT_0x5A
                 ; 0000 01BB if ( m2 < min ) {m2 = min;}
                 _0x100:
00063d d4e3      	RCALL SUBOPT_0x5B
00063e f40c      	BRGE _0x101
00063f d4e7      	RCALL SUBOPT_0x5C
                 ; 0000 01BC if ( m2 > 0 ) {dd2=0; dd3=1;} // kanan maju
                 _0x101:
000640 d4ec      	RCALL SUBOPT_0x5D
000641 d6ee      	RCALL __CPW02
000642 f41c      	BRGE _0x102
000643 2477      	CLR  R7
000644 e0e1      	LDI  R30,LOW(1)
000645 2e6e      	MOV  R6,R30
                 ; 0000 01BD if ( m2 < 0 ) {dd2=1; dd3=0; gas=0-m2; m2=gas;} // kanan mundur
                 _0x102:
000646 91a0 0142 	LDS  R26,_m2+1
000648 23aa      	TST  R26
000649 f40a      	BRPL _0x103
00064a d4e7      	RCALL SUBOPT_0x5E
                 ; 0000 01BE if ( error == 0 ) {m2 = max_speedF; }
                 _0x103:
00064b d4b3      	RCALL SUBOPT_0x58
00064c f409      	BRNE _0x104
00064d d4cd      	RCALL SUBOPT_0x5A
                 ; 0000 01BF 
                 ; 0000 01C0 motor(dd0, dd1, dd2, dd3, m1, m2); // aksi motor
                 _0x104:
00064e d4f4      	RCALL SUBOPT_0x5F
                 ; 0000 01C1 delay_ms(tF); //time sampling
                 ; 0000 01C2 
                 ; 0000 01C3 goto putih;
00064f cf05      	RJMP _0x86
                 ; 0000 01C4 
                 ; 0000 01C5 }
                 ;
                 ;//*******************************CEK WARNA TRACK*********************************************
                 ;void baca_track()
                 ; 0000 01C9 {
                 _baca_track:
                 ; 0000 01CA lcd_gotoxy(0,1); lcd_putsf("Scan Garis");
000650 d358      	RCALL SUBOPT_0x31
                +
000651 e1a4     +LDI R26 , LOW ( 2 * _0x0 + ( 216 ) )
000652 e0b1     +LDI R27 , HIGH ( 2 * _0x0 + ( 216 ) )
                 	__POINTW2FN _0x0,216
000653 d23c      	RCALL _lcd_putsf
                 ; 0000 01CB scan();
000654 dab1      	RCALL _scan
                 ; 0000 01CC if (x<100)
000655 e6e4      	LDI  R30,LOW(100)
000656 16de      	CP   R13,R30
000657 f438      	BRSH _0x105
                 ; 0000 01CD {x++; motor(1, 0, 1, 0, 100, 100);}
000658 94d3      	INC  R13
000659 d4fa      	RCALL SUBOPT_0x61
00065a d4f9      	RCALL SUBOPT_0x61
00065b e6e4      	LDI  R30,LOW(100)
00065c 93ea      	ST   -Y,R30
00065d e6a4      	LDI  R26,LOW(100)
00065e da79      	RCALL _motor
                 ; 0000 01CE 
                 ; 0000 01CF if ( sensor==0b11111111 && x==100)
                 _0x105:
00065f d3d8      	RCALL SUBOPT_0x47
000660 f419      	BRNE _0x107
000661 e6e4      	LDI  R30,LOW(100)
000662 15ed      	CP   R30,R13
000663 f009      	BREQ _0x108
                 _0x107:
000664 c009      	RJMP _0x106
                 _0x108:
                 ; 0000 01D0 {lcd_clear(); off(); x=150; lcd_gotoxy(0,0); lcd_putsf("Hitam"); program(); }
000665 d1f3      	RCALL _lcd_clear
000666 da94      	RCALL _off
000667 e9e6      	LDI  R30,LOW(150)
000668 2ede      	MOV  R13,R30
000669 d2c3      	RCALL SUBOPT_0x13
                +
00066a e1af     +LDI R26 , LOW ( 2 * _0x0 + ( 227 ) )
00066b e0b1     +LDI R27 , HIGH ( 2 * _0x0 + ( 227 ) )
                 	__POINTW2FN _0x0,227
00066c d223      	RCALL _lcd_putsf
00066d ddd7      	RCALL _program
                 ; 0000 01D1 if ( sensor==0b00000000 && x==100)
                 _0x106:
00066e d4e2      	RCALL SUBOPT_0x60
00066f f419      	BRNE _0x10A
000670 e6e4      	LDI  R30,LOW(100)
000671 15ed      	CP   R30,R13
000672 f009      	BREQ _0x10B
                 _0x10A:
000673 c009      	RJMP _0x109
                 _0x10B:
                 ; 0000 01D2 {lcd_clear(); off(); x=200; lcd_gotoxy(0,0); lcd_putsf("Putih"); program(); }
000674 d1e4      	RCALL _lcd_clear
000675 da85      	RCALL _off
000676 ece8      	LDI  R30,LOW(200)
000677 2ede      	MOV  R13,R30
000678 d2b4      	RCALL SUBOPT_0x13
                +
000679 e2a5     +LDI R26 , LOW ( 2 * _0x0 + ( 233 ) )
00067a e0b1     +LDI R27 , HIGH ( 2 * _0x0 + ( 233 ) )
                 	__POINTW2FN _0x0,233
00067b d214      	RCALL _lcd_putsf
00067c ddc8      	RCALL _program
                 ; 0000 01D3 delay_ms(20);
                 _0x109:
00067d e1a4      	LDI  R26,LOW(20)
00067e d304      	RCALL SUBOPT_0x28
                 ; 0000 01D4 }
00067f 9508      	RET
                 ;
                 ;void main(void)
                 ; 0000 01D7 {
                 _main:
                 ; 0000 01D8 // Declare your local variables here
                 ; 0000 01D9 
                 ; 0000 01DA // Input/Output Ports initialization
                 ; 0000 01DB // Port A initialization
                 ; 0000 01DC // Func7=In Func6=In Func5=In Func4=In Func3=In Func2=In Func1=In Func0=In
                 ; 0000 01DD // State7=T State6=T State5=T State4=T State3=T State2=T State1=T State0=T
                 ; 0000 01DE PORTA=0x00;
000680 e0e0      	LDI  R30,LOW(0)
000681 bbeb      	OUT  0x1B,R30
                 ; 0000 01DF DDRA=0x00;
000682 bbea      	OUT  0x1A,R30
                 ; 0000 01E0 
                 ; 0000 01E1 // Port B initialization
                 ; 0000 01E2 // Func7=In Func6=In Func5=In Func4=In Func3=In Func2=In Func1=In Func0=In
                 ; 0000 01E3 // State7=P State6=P State5=P State4=P State3=P State2=P State1=P State0=P
                 ; 0000 01E4 PORTB=0xFF;
000683 efef      	LDI  R30,LOW(255)
000684 bbe8      	OUT  0x18,R30
                 ; 0000 01E5 DDRB=0x00;
000685 e0e0      	LDI  R30,LOW(0)
000686 bbe7      	OUT  0x17,R30
                 ; 0000 01E6 
                 ; 0000 01E7 // Port C initialization
                 ; 0000 01E8 // Func7=In Func6=In Func5=In Func4=In Func3=Out Func2=In Func1=In Func0=In
                 ; 0000 01E9 // State7=T State6=T State5=T State4=T State3=0 State2=T State1=T State0=T
                 ; 0000 01EA PORTC=0x00;
000687 bbe5      	OUT  0x15,R30
                 ; 0000 01EB DDRC=0x00;
000688 bbe4      	OUT  0x14,R30
                 ; 0000 01EC 
                 ; 0000 01ED // Port D initialization
                 ; 0000 01EE // Func7=Out Func6=Out Func5=Out Func4=Out Func3=Out Func2=Out Func1=Out
                 ; 0000 01EF //Func0=Out
                 ; 0000 01F0 // State7=0 State6=0 State5=0 State4=0 State3=0 State2=0 State1=0 State0=0
                 ; 0000 01F1 PORTD=0x00;
000689 bbe2      	OUT  0x12,R30
                 ; 0000 01F2 DDRD=0xFF;
00068a efef      	LDI  R30,LOW(255)
00068b bbe1      	OUT  0x11,R30
                 ; 0000 01F3 
                 ; 0000 01F4 // Timer/Counter 0 initialization
                 ; 0000 01F5 // Clock source: System Clock
                 ; 0000 01F6 // Clock value: Timer 0 Stopped
                 ; 0000 01F7 // Mode: Normal top=0xFF
                 ; 0000 01F8 // OC0 output: Disconnected
                 ; 0000 01F9 TCCR0=0x00;
00068c e0e0      	LDI  R30,LOW(0)
00068d bfe3      	OUT  0x33,R30
                 ; 0000 01FA TCNT0=0x00;
00068e bfe2      	OUT  0x32,R30
                 ; 0000 01FB OCR0=0x00;
00068f bfec      	OUT  0x3C,R30
                 ; 0000 01FC 
                 ; 0000 01FD // Timer/Counter 1 initialization
                 ; 0000 01FE // Clock source: System Clock
                 ; 0000 01FF // Clock value: 187.500 kHz
                 ; 0000 0200 // Mode: Fast PWM top=0x00FF
                 ; 0000 0201 // OC1A output: Non-Inv.
                 ; 0000 0202 // OC1B output: Non-Inv.
                 ; 0000 0203 // Noise Canceler: Off
                 ; 0000 0204 // Input Capture on Falling Edge
                 ; 0000 0205 // Timer1 Overflow Interrupt: Off
                 ; 0000 0206 // Input Capture Interrupt: Off
                 ; 0000 0207 // Compare A Match Interrupt: Off
                 ; 0000 0208 // Compare B Match Interrupt: Off
                 ; 0000 0209 TCCR1A=0xA1;
000690 eae1      	LDI  R30,LOW(161)
000691 bdef      	OUT  0x2F,R30
                 ; 0000 020A TCCR1B=0x0B;
000692 e0eb      	LDI  R30,LOW(11)
000693 bdee      	OUT  0x2E,R30
                 ; 0000 020B TCNT1H=0x00;
000694 e0e0      	LDI  R30,LOW(0)
000695 bded      	OUT  0x2D,R30
                 ; 0000 020C TCNT1L=0x00;
000696 bdec      	OUT  0x2C,R30
                 ; 0000 020D ICR1H=0x00;
000697 bde7      	OUT  0x27,R30
                 ; 0000 020E ICR1L=0x00;
000698 bde6      	OUT  0x26,R30
                 ; 0000 020F OCR1AH=0x00;
000699 bdeb      	OUT  0x2B,R30
                 ; 0000 0210 OCR1AL=0x00;
00069a bdea      	OUT  0x2A,R30
                 ; 0000 0211 OCR1BH=0x00;
00069b bde9      	OUT  0x29,R30
                 ; 0000 0212 OCR1BL=0x00;
00069c bde8      	OUT  0x28,R30
                 ; 0000 0213 
                 ; 0000 0214 // Timer/Counter 2 initialization
                 ; 0000 0215 // Clock source: System Clock
                 ; 0000 0216 // Clock value: Timer2 Stopped
                 ; 0000 0217 // Mode: Normal top=0xFF
                 ; 0000 0218 // OC2 output: Disconnected
                 ; 0000 0219 ASSR=0x00;
00069d bde2      	OUT  0x22,R30
                 ; 0000 021A TCCR2=0x00;
00069e bde5      	OUT  0x25,R30
                 ; 0000 021B TCNT2=0x00;
00069f bde4      	OUT  0x24,R30
                 ; 0000 021C OCR2=0x00;
0006a0 bde3      	OUT  0x23,R30
                 ; 0000 021D 
                 ; 0000 021E // External Interrupt(s) initialization
                 ; 0000 021F // INT0: Off
                 ; 0000 0220 // INT1: Off
                 ; 0000 0221 // INT2: Off
                 ; 0000 0222 MCUCR=0x00;
0006a1 bfe5      	OUT  0x35,R30
                 ; 0000 0223 MCUCSR=0x00;
0006a2 bfe4      	OUT  0x34,R30
                 ; 0000 0224 
                 ; 0000 0225 // Timer(s)/Counter(s) Interrupt(s) initialization
                 ; 0000 0226 TIMSK=0x00;
0006a3 bfe9      	OUT  0x39,R30
                 ; 0000 0227 
                 ; 0000 0228 // USART initialization
                 ; 0000 0229 // USART disabled
                 ; 0000 022A UCSRB=0x00;
0006a4 b9ea      	OUT  0xA,R30
                 ; 0000 022B 
                 ; 0000 022C // Analog Comparator initialization
                 ; 0000 022D // Analog Comparator: Off
                 ; 0000 022E // Analog Comparator Input Capture by Timer/Counter 1: Off
                 ; 0000 022F ACSR=0x80;
0006a5 e8e0      	LDI  R30,LOW(128)
0006a6 b9e8      	OUT  0x8,R30
                 ; 0000 0230 SFIOR=0x00;
0006a7 e0e0      	LDI  R30,LOW(0)
0006a8 bfe0      	OUT  0x30,R30
                 ; 0000 0231 
                 ; 0000 0232 // ADC initialization
                 ; 0000 0233 // ADC Clock frequency: 93.750 kHz
                 ; 0000 0234 // ADC Voltage Reference: AVCC pin
                 ; 0000 0235 // ADC High Speed Mode: Off
                 ; 0000 0236 // ADC Auto Trigger Source: ADC Stopped
                 ; 0000 0237 // Only the 8 most significant bits of
                 ; 0000 0238 // the AD conversion result are used
                 ; 0000 0239 ADMUX=ADC_VREF_TYPE & 0xff;
0006a9 e6e0      	LDI  R30,LOW(96)
0006aa b9e7      	OUT  0x7,R30
                 ; 0000 023A ADCSRA=0x87;
0006ab e8e7      	LDI  R30,LOW(135)
0006ac b9e6      	OUT  0x6,R30
                 ; 0000 023B SFIOR&=0xEF;
0006ad b7e0      	IN   R30,0x30
0006ae 7eef      	ANDI R30,0xEF
0006af bfe0      	OUT  0x30,R30
                 ; 0000 023C 
                 ; 0000 023D // SPI initialization
                 ; 0000 023E // SPI disabled
                 ; 0000 023F SPCR=0x00;
0006b0 e0e0      	LDI  R30,LOW(0)
0006b1 b9ed      	OUT  0xD,R30
                 ; 0000 0240 
                 ; 0000 0241 // TWI initialization
                 ; 0000 0242 // TWI disabled
                 ; 0000 0243 TWCR=0x00;
0006b2 bfe6      	OUT  0x36,R30
                 ; 0000 0244 
                 ; 0000 0245 // Alphanumeric LCD initialization
                 ; 0000 0246 // Connections specified in the
                 ; 0000 0247 // Project|Configure|C Compiler|Libraries|Alphanumeric LCD menu:
                 ; 0000 0248 // RS - PORTC Bit 0
                 ; 0000 0249 // RD - PORTC Bit 1
                 ; 0000 024A // EN - PORTC Bit 2
                 ; 0000 024B // D4 - PORTC Bit 4
                 ; 0000 024C // D5 - PORTC Bit 5
                 ; 0000 024D // D6 - PORTC Bit 6
                 ; 0000 024E // D7 - PORTC Bit 7
                 ; 0000 024F // Characters/line: 16
                 ; 0000 0250 lcd_init(16);
0006b3 e1a0      	LDI  R26,LOW(16)
0006b4 d1ed      	RCALL _lcd_init
                 ; 0000 0251 Lampu=1; //lampu lcd
0006b5 9a97      	SBI  0x12,7
                 ; 0000 0252 display(); //call display(); untuk setup menu
0006b6 dbc1      	RCALL _display
                 ; 0000 0253 write_all(); //call write_all(); untuk semua data di eeprom
0006b7 dcfd      	RCALL _write_all
                 ; 0000 0254 while (1)
                 _0x10E:
                 ; 0000 0255       {
                 ; 0000 0256       // Place your code here
                 ; 0000 0257       baca_track();
0006b8 df97      	RCALL _baca_track
                 ; 0000 0258       }
0006b9 cffe      	RJMP _0x10E
                 ; 0000 0259 }
                 _0x111:
0006ba cfff      	RJMP _0x111
                 	#ifndef __SLEEP_DEFINED__
                 	#endif
                 
                 	.CSEG
                 _put_buff_G100:
0006bb d49d      	RCALL SUBOPT_0x62
0006bc d67b      	RCALL __SAVELOCR2
0006bd d49e      	RCALL SUBOPT_0x63
0006be 9612      	ADIW R26,2
0006bf d646      	RCALL __GETW1P
0006c0 9730      	SBIW R30,0
0006c1 f0f1      	BREQ _0x2000010
0006c2 d499      	RCALL SUBOPT_0x63
0006c3 d49b      	RCALL SUBOPT_0x64
0006c4 018f      	MOVW R16,R30
0006c5 9730      	SBIW R30,0
0006c6 f061      	BREQ _0x2000012
                +
0006c7 3002     +CPI R16 , LOW ( 2 )
0006c8 e0e0     +LDI R30 , HIGH ( 2 )
0006c9 071e     +CPC R17 , R30
                 	__CPWRN 16,17,2
0006ca f0a0      	BRLO _0x2000013
0006cb 01f8      	MOVW R30,R16
0006cc 9731      	SBIW R30,1
0006cd 018f      	MOVW R16,R30
                +
0006ce 81aa     +LDD R26 , Y + 2
0006cf 81bb     +LDD R27 , Y + 2 + 1
0006d0 9614     +ADIW R26 , 4
0006d1 93ed     +ST X + , R30
0006d2 93fc     +ST X , R31
                 	__PUTW1SNS 2,4
                 _0x2000012:
0006d3 d488      	RCALL SUBOPT_0x63
0006d4 9612      	ADIW R26,2
0006d5 d48c      	RCALL SUBOPT_0x65
0006d6 9731      	SBIW R30,1
0006d7 81ac      	LDD  R26,Y+4
0006d8 83a0      	STD  Z+0,R26
0006d9 d482      	RCALL SUBOPT_0x63
0006da d62b      	RCALL __GETW1P
0006db 23ff      	TST  R31
0006dc f012      	BRMI _0x2000014
0006dd d47e      	RCALL SUBOPT_0x63
0006de d483      	RCALL SUBOPT_0x65
                 _0x2000014:
                 _0x2000013:
0006df c005      	RJMP _0x2000015
                 _0x2000010:
0006e0 d47b      	RCALL SUBOPT_0x63
0006e1 efef      	LDI  R30,LOW(65535)
0006e2 efff      	LDI  R31,HIGH(65535)
0006e3 93ed      	ST   X+,R30
0006e4 93fc      	ST   X,R31
                 _0x2000015:
0006e5 d659      	RCALL __LOADLOCR2
0006e6 9625      	ADIW R28,5
0006e7 9508      	RET
                 __print_G100:
0006e8 d470      	RCALL SUBOPT_0x62
0006e9 9726      	SBIW R28,6
0006ea d649      	RCALL __SAVELOCR6
0006eb e010      	LDI  R17,0
0006ec 85ac      	LDD  R26,Y+12
0006ed 85bd      	LDD  R27,Y+12+1
0006ee e0e0      	LDI  R30,LOW(0)
0006ef e0f0      	LDI  R31,HIGH(0)
0006f0 93ed      	ST   X+,R30
0006f1 93fc      	ST   X,R31
                 _0x2000016:
0006f2 89ea      	LDD  R30,Y+18
0006f3 89fb      	LDD  R31,Y+18+1
0006f4 9631      	ADIW R30,1
0006f5 8bea      	STD  Y+18,R30
0006f6 8bfb      	STD  Y+18+1,R31
0006f7 9731      	SBIW R30,1
0006f8 91e4      	LPM  R30,Z
0006f9 2f2e      	MOV  R18,R30
0006fa 30e0      	CPI  R30,0
0006fb f409      	BRNE PC+2
0006fc c0fd      	RJMP _0x2000018
0006fd 2fe1      	MOV  R30,R17
0006fe 30e0      	CPI  R30,0
0006ff f431      	BRNE _0x200001C
000700 3225      	CPI  R18,37
000701 f411      	BRNE _0x200001D
000702 e011      	LDI  R17,LOW(1)
000703 c001      	RJMP _0x200001E
                 _0x200001D:
000704 d463      	RCALL SUBOPT_0x66
                 _0x200001E:
000705 c0f3      	RJMP _0x200001B
                 _0x200001C:
000706 30e1      	CPI  R30,LOW(0x1)
000707 f4a1      	BRNE _0x200001F
000708 3225      	CPI  R18,37
000709 f411      	BRNE _0x2000020
00070a d45d      	RCALL SUBOPT_0x66
00070b c0ec      	RJMP _0x20000C9
                 _0x2000020:
00070c e012      	LDI  R17,LOW(2)
00070d e040      	LDI  R20,LOW(0)
00070e e000      	LDI  R16,LOW(0)
00070f 322d      	CPI  R18,45
000710 f411      	BRNE _0x2000021
000711 e001      	LDI  R16,LOW(1)
000712 c0e6      	RJMP _0x200001B
                 _0x2000021:
000713 322b      	CPI  R18,43
000714 f411      	BRNE _0x2000022
000715 e24b      	LDI  R20,LOW(43)
000716 c0e2      	RJMP _0x200001B
                 _0x2000022:
000717 3220      	CPI  R18,32
000718 f411      	BRNE _0x2000023
000719 e240      	LDI  R20,LOW(32)
00071a c0de      	RJMP _0x200001B
                 _0x2000023:
00071b c002      	RJMP _0x2000024
                 _0x200001F:
00071c 30e2      	CPI  R30,LOW(0x2)
00071d f439      	BRNE _0x2000025
                 _0x2000024:
00071e e050      	LDI  R21,LOW(0)
00071f e013      	LDI  R17,LOW(3)
000720 3320      	CPI  R18,48
000721 f411      	BRNE _0x2000026
000722 6800      	ORI  R16,LOW(128)
000723 c0d5      	RJMP _0x200001B
                 _0x2000026:
000724 c003      	RJMP _0x2000027
                 _0x2000025:
000725 30e3      	CPI  R30,LOW(0x3)
000726 f009      	BREQ PC+2
000727 c0d1      	RJMP _0x200001B
                 _0x2000027:
000728 3320      	CPI  R18,48
000729 f010      	BRLO _0x200002A
00072a 332a      	CPI  R18,58
00072b f008      	BRLO _0x200002B
                 _0x200002A:
00072c c007      	RJMP _0x2000029
                 _0x200002B:
00072d e0aa      	LDI  R26,LOW(10)
00072e 9f5a      	MUL  R21,R26
00072f 2d50      	MOV  R21,R0
000730 2fe2      	MOV  R30,R18
000731 53e0      	SUBI R30,LOW(48)
000732 0f5e      	ADD  R21,R30
000733 c0c5      	RJMP _0x200001B
                 _0x2000029:
000734 2fe2      	MOV  R30,R18
000735 36e3      	CPI  R30,LOW(0x63)
000736 f439      	BRNE _0x200002F
000737 d437      	RCALL SUBOPT_0x67
000738 d439      	RCALL SUBOPT_0x68
000739 d435      	RCALL SUBOPT_0x67
00073a 81a4      	LDD  R26,Z+4
00073b 93aa      	ST   -Y,R26
00073c d439      	RCALL SUBOPT_0x69
00073d c0ba      	RJMP _0x2000030
                 _0x200002F:
00073e 37e3      	CPI  R30,LOW(0x73)
00073f f431      	BRNE _0x2000032
000740 d43b      	RCALL SUBOPT_0x6A
000741 d43c      	RCALL SUBOPT_0x6B
000742 d43e      	RCALL SUBOPT_0x6C
000743 d188      	RCALL _strlen
000744 2f1e      	MOV  R17,R30
000745 c008      	RJMP _0x2000033
                 _0x2000032:
000746 37e0      	CPI  R30,LOW(0x70)
000747 f451      	BRNE _0x2000035
000748 d433      	RCALL SUBOPT_0x6A
000749 d434      	RCALL SUBOPT_0x6B
00074a d436      	RCALL SUBOPT_0x6C
00074b d18b      	RCALL _strlenf
00074c 2f1e      	MOV  R17,R30
00074d 6008      	ORI  R16,LOW(8)
                 _0x2000033:
00074e 6002      	ORI  R16,LOW(2)
00074f 770f      	ANDI R16,LOW(127)
000750 e030      	LDI  R19,LOW(0)
000751 c02e      	RJMP _0x2000036
                 _0x2000035:
000752 36e4      	CPI  R30,LOW(0x64)
000753 f011      	BREQ _0x2000039
000754 36e9      	CPI  R30,LOW(0x69)
000755 f411      	BRNE _0x200003A
                 _0x2000039:
000756 6004      	ORI  R16,LOW(4)
000757 c002      	RJMP _0x200003B
                 _0x200003A:
000758 37e5      	CPI  R30,LOW(0x75)
000759 f429      	BRNE _0x200003C
                 _0x200003B:
00075a e2ea      	LDI  R30,LOW(_tbl10_G100*2)
00075b e0f0      	LDI  R31,HIGH(_tbl10_G100*2)
00075c d429      	RCALL SUBOPT_0x6D
00075d e015      	LDI  R17,LOW(5)
00075e c00b      	RJMP _0x200003D
                 _0x200003C:
00075f 35e8      	CPI  R30,LOW(0x58)
000760 f411      	BRNE _0x200003F
000761 6008      	ORI  R16,LOW(8)
000762 c003      	RJMP _0x2000040
                 _0x200003F:
000763 37e8      	CPI  R30,LOW(0x78)
000764 f009      	BREQ PC+2
000765 c092      	RJMP _0x2000071
                 _0x2000040:
000766 e3e4      	LDI  R30,LOW(_tbl16_G100*2)
000767 e0f0      	LDI  R31,HIGH(_tbl16_G100*2)
000768 d41d      	RCALL SUBOPT_0x6D
000769 e014      	LDI  R17,LOW(4)
                 _0x200003D:
00076a ff02      	SBRS R16,2
00076b c011      	RJMP _0x2000042
00076c d40f      	RCALL SUBOPT_0x6A
00076d d410      	RCALL SUBOPT_0x6B
00076e d41a      	RCALL SUBOPT_0x6E
00076f 85ab      	LDD  R26,Y+11
000770 23aa      	TST  R26
000771 f42a      	BRPL _0x2000043
000772 85ea      	LDD  R30,Y+10
000773 85fb      	LDD  R31,Y+10+1
000774 d55f      	RCALL __ANEGW1
000775 d413      	RCALL SUBOPT_0x6E
000776 e24d      	LDI  R20,LOW(45)
                 _0x2000043:
000777 3040      	CPI  R20,0
000778 f011      	BREQ _0x2000044
000779 5f1f      	SUBI R17,-LOW(1)
00077a c001      	RJMP _0x2000045
                 _0x2000044:
00077b 7f0b      	ANDI R16,LOW(251)
                 _0x2000045:
00077c c003      	RJMP _0x2000046
                 _0x2000042:
00077d d3fe      	RCALL SUBOPT_0x6A
00077e d3ff      	RCALL SUBOPT_0x6B
00077f d409      	RCALL SUBOPT_0x6E
                 _0x2000046:
                 _0x2000036:
000780 fd00      	SBRC R16,0
000781 c010      	RJMP _0x2000047
                 _0x2000048:
000782 1715      	CP   R17,R21
000783 f470      	BRSH _0x200004A
000784 ff07      	SBRS R16,7
000785 c008      	RJMP _0x200004B
000786 ff02      	SBRS R16,2
000787 c004      	RJMP _0x200004C
000788 7f0b      	ANDI R16,LOW(251)
000789 2f24      	MOV  R18,R20
00078a 5011      	SUBI R17,LOW(1)
00078b c001      	RJMP _0x200004D
                 _0x200004C:
00078c e320      	LDI  R18,LOW(48)
                 _0x200004D:
00078d c001      	RJMP _0x200004E
                 _0x200004B:
00078e e220      	LDI  R18,LOW(32)
                 _0x200004E:
00078f d3d8      	RCALL SUBOPT_0x66
000790 5051      	SUBI R21,LOW(1)
000791 cff0      	RJMP _0x2000048
                 _0x200004A:
                 _0x2000047:
000792 2f31      	MOV  R19,R17
000793 ff01      	SBRS R16,1
000794 c015      	RJMP _0x200004F
                 _0x2000050:
000795 3030      	CPI  R19,0
000796 f091      	BREQ _0x2000052
000797 ff03      	SBRS R16,3
000798 c005      	RJMP _0x2000053
000799 81ee      	LDD  R30,Y+6
00079a 81ff      	LDD  R31,Y+6+1
00079b 9125      	LPM  R18,Z+
00079c d3e9      	RCALL SUBOPT_0x6D
00079d c005      	RJMP _0x2000054
                 _0x2000053:
00079e 81ae      	LDD  R26,Y+6
00079f 81bf      	LDD  R27,Y+6+1
0007a0 912d      	LD   R18,X+
0007a1 83ae      	STD  Y+6,R26
0007a2 83bf      	STD  Y+6+1,R27
                 _0x2000054:
0007a3 d3c4      	RCALL SUBOPT_0x66
0007a4 3050      	CPI  R21,0
0007a5 f009      	BREQ _0x2000055
0007a6 5051      	SUBI R21,LOW(1)
                 _0x2000055:
0007a7 5031      	SUBI R19,LOW(1)
0007a8 cfec      	RJMP _0x2000050
                 _0x2000052:
0007a9 c045      	RJMP _0x2000056
                 _0x200004F:
                 _0x2000058:
0007aa e320      	LDI  R18,LOW(48)
0007ab 81ee      	LDD  R30,Y+6
0007ac 81ff      	LDD  R31,Y+6+1
0007ad d55c      	RCALL __GETW1PF
0007ae 87e8      	STD  Y+8,R30
0007af 87f9      	STD  Y+8+1,R31
0007b0 81ee      	LDD  R30,Y+6
0007b1 81ff      	LDD  R31,Y+6+1
0007b2 9632      	ADIW R30,2
0007b3 d3d2      	RCALL SUBOPT_0x6D
                 _0x200005A:
0007b4 85e8      	LDD  R30,Y+8
0007b5 85f9      	LDD  R31,Y+8+1
0007b6 85aa      	LDD  R26,Y+10
0007b7 85bb      	LDD  R27,Y+10+1
0007b8 d32c      	RCALL SUBOPT_0x55
0007b9 f048      	BRLO _0x200005C
0007ba 5f2f      	SUBI R18,-LOW(1)
0007bb 85a8      	LDD  R26,Y+8
0007bc 85b9      	LDD  R27,Y+8+1
0007bd 85ea      	LDD  R30,Y+10
0007be 85fb      	LDD  R31,Y+10+1
0007bf 1bea      	SUB  R30,R26
0007c0 0bfb      	SBC  R31,R27
0007c1 d3c7      	RCALL SUBOPT_0x6E
0007c2 cff1      	RJMP _0x200005A
                 _0x200005C:
0007c3 332a      	CPI  R18,58
0007c4 f028      	BRLO _0x200005D
0007c5 ff03      	SBRS R16,3
0007c6 c002      	RJMP _0x200005E
0007c7 5f29      	SUBI R18,-LOW(7)
0007c8 c001      	RJMP _0x200005F
                 _0x200005E:
0007c9 5d29      	SUBI R18,-LOW(39)
                 _0x200005F:
                 _0x200005D:
0007ca fd04      	SBRC R16,4
0007cb c019      	RJMP _0x2000061
0007cc 3321      	CPI  R18,49
0007cd f420      	BRSH _0x2000063
0007ce 85a8      	LDD  R26,Y+8
0007cf 85b9      	LDD  R27,Y+8+1
0007d0 9711      	SBIW R26,1
0007d1 f409      	BRNE _0x2000062
                 _0x2000063:
0007d2 c009      	RJMP _0x20000CA
                 _0x2000062:
0007d3 1753      	CP   R21,R19
0007d4 f010      	BRLO _0x2000067
0007d5 ff00      	SBRS R16,0
0007d6 c001      	RJMP _0x2000068
                 _0x2000067:
0007d7 c011      	RJMP _0x2000066
                 _0x2000068:
0007d8 e220      	LDI  R18,LOW(32)
0007d9 ff07      	SBRS R16,7
0007da c00a      	RJMP _0x2000069
0007db e320      	LDI  R18,LOW(48)
                 _0x20000CA:
0007dc 6100      	ORI  R16,LOW(16)
0007dd ff02      	SBRS R16,2
0007de c006      	RJMP _0x200006A
0007df 7f0b      	ANDI R16,LOW(251)
0007e0 934a      	ST   -Y,R20
0007e1 d394      	RCALL SUBOPT_0x69
0007e2 3050      	CPI  R21,0
0007e3 f009      	BREQ _0x200006B
0007e4 5051      	SUBI R21,LOW(1)
                 _0x200006B:
                 _0x200006A:
                 _0x2000069:
                 _0x2000061:
0007e5 d382      	RCALL SUBOPT_0x66
0007e6 3050      	CPI  R21,0
0007e7 f009      	BREQ _0x200006C
0007e8 5051      	SUBI R21,LOW(1)
                 _0x200006C:
                 _0x2000066:
0007e9 5031      	SUBI R19,LOW(1)
0007ea 85a8      	LDD  R26,Y+8
0007eb 85b9      	LDD  R27,Y+8+1
0007ec 9712      	SBIW R26,2
0007ed f008      	BRLO _0x2000059
0007ee cfbb      	RJMP _0x2000058
                 _0x2000059:
                 _0x2000056:
0007ef ff00      	SBRS R16,0
0007f0 c007      	RJMP _0x200006D
                 _0x200006E:
0007f1 3050      	CPI  R21,0
0007f2 f029      	BREQ _0x2000070
0007f3 5051      	SUBI R21,LOW(1)
0007f4 e2e0      	LDI  R30,LOW(32)
0007f5 93ea      	ST   -Y,R30
0007f6 d37f      	RCALL SUBOPT_0x69
0007f7 cff9      	RJMP _0x200006E
                 _0x2000070:
                 _0x200006D:
                 _0x2000071:
                 _0x2000030:
                 _0x20000C9:
0007f8 e010      	LDI  R17,LOW(0)
                 _0x200001B:
0007f9 cef8      	RJMP _0x2000016
                 _0x2000018:
0007fa 85ac      	LDD  R26,Y+12
0007fb 85bd      	LDD  R27,Y+12+1
0007fc d509      	RCALL __GETW1P
0007fd d53d      	RCALL __LOADLOCR6
0007fe 9664      	ADIW R28,20
0007ff 9508      	RET
                 _sprintf:
000800 92ff      	PUSH R15
000801 2ef8      	MOV  R15,R24
000802 9726      	SBIW R28,6
000803 d532      	RCALL __SAVELOCR4
000804 d387      	RCALL SUBOPT_0x6F
000805 9730      	SBIW R30,0
000806 f419      	BRNE _0x2000072
000807 efef      	LDI  R30,LOW(65535)
000808 efff      	LDI  R31,HIGH(65535)
000809 c01c      	RJMP _0x2080003
                 _0x2000072:
00080a 01de      	MOVW R26,R28
00080b 9616      	ADIW R26,6
00080c d4c3      	RCALL __ADDW2R15
00080d 018d      	MOVW R16,R26
00080e d37d      	RCALL SUBOPT_0x6F
00080f d376      	RCALL SUBOPT_0x6D
000810 e0e0      	LDI  R30,LOW(0)
000811 87e8      	STD  Y+8,R30
000812 87e9      	STD  Y+8+1,R30
000813 01de      	MOVW R26,R28
000814 961a      	ADIW R26,10
000815 d4ba      	RCALL __ADDW2R15
000816 d4ef      	RCALL __GETW1P
000817 d121      	RCALL SUBOPT_0x16
000818 931a      	ST   -Y,R17
000819 930a      	ST   -Y,R16
00081a ebeb      	LDI  R30,LOW(_put_buff_G100)
00081b e0f6      	LDI  R31,HIGH(_put_buff_G100)
00081c d11c      	RCALL SUBOPT_0x16
00081d 01de      	MOVW R26,R28
00081e 961a      	ADIW R26,10
00081f dec8      	RCALL __print_G100
000820 019f      	MOVW R18,R30
000821 81ae      	LDD  R26,Y+6
000822 81bf      	LDD  R27,Y+6+1
000823 e0e0      	LDI  R30,LOW(0)
000824 93ec      	ST   X,R30
000825 01f9      	MOVW R30,R18
                 _0x2080003:
000826 d516      	RCALL __LOADLOCR4
000827 962a      	ADIW R28,10
000828 90ff      	POP  R15
000829 9508      	RET
                 	#ifndef __SLEEP_DEFINED__
                 	#endif
                 
                 	.DSEG
                 
                 	.CSEG
                 __lcd_write_nibble_G101:
00082a 93aa      	ST   -Y,R26
00082b b3e5      	IN   R30,0x15
00082c 70ef      	ANDI R30,LOW(0xF)
00082d 2fae      	MOV  R26,R30
00082e 81e8      	LD   R30,Y
00082f 7fe0      	ANDI R30,LOW(0xF0)
000830 2bea      	OR   R30,R26
000831 bbe5      	OUT  0x15,R30
                +
000832 e088     +LDI R24 , LOW ( 8 )
                +__DELAY_USB_LOOP :
000833 958a     +DEC R24
000834 f7f1     +BRNE __DELAY_USB_LOOP
                 	__DELAY_USB 8
000835 9aaa      	SBI  0x15,2
                +
000836 e184     +LDI R24 , LOW ( 20 )
                +__DELAY_USB_LOOP :
000837 958a     +DEC R24
000838 f7f1     +BRNE __DELAY_USB_LOOP
                 	__DELAY_USB 20
000839 98aa      	CBI  0x15,2
                +
00083a e184     +LDI R24 , LOW ( 20 )
                +__DELAY_USB_LOOP :
00083b 958a     +DEC R24
00083c f7f1     +BRNE __DELAY_USB_LOOP
                 	__DELAY_USB 20
00083d c08c      	RJMP _0x2080001
                 __lcd_write_data:
00083e 93aa      	ST   -Y,R26
00083f 81a8      	LD   R26,Y
000840 dfe9      	RCALL __lcd_write_nibble_G101
000841 81e8          ld    r30,y
000842 95e2          swap  r30
000843 83e8          st    y,r30
000844 81a8      	LD   R26,Y
000845 dfe4      	RCALL __lcd_write_nibble_G101
                +
000846 ec88     +LDI R24 , LOW ( 200 )
                +__DELAY_USB_LOOP :
000847 958a     +DEC R24
000848 f7f1     +BRNE __DELAY_USB_LOOP
                 	__DELAY_USB 200
000849 c080      	RJMP _0x2080001
                 _lcd_gotoxy:
00084a 93aa      	ST   -Y,R26
00084b 81e8      	LD   R30,Y
00084c d096      	RCALL SUBOPT_0x0
00084d 5be9      	SUBI R30,LOW(-__base_y_G101)
00084e 4ffe      	SBCI R31,HIGH(-__base_y_G101)
00084f 81e0      	LD   R30,Z
000850 81a9      	LDD  R26,Y+1
000851 0fae      	ADD  R26,R30
000852 dfeb      	RCALL __lcd_write_data
000853 80c9      	LDD  R12,Y+1
000854 81e8      	LD   R30,Y
000855 93e0 014b 	STS  __lcd_y,R30
000857 9622      	ADIW R28,2
000858 9508      	RET
                 _lcd_clear:
000859 e0a2      	LDI  R26,LOW(2)
00085a dfe3      	RCALL __lcd_write_data
00085b e0a3      	LDI  R26,LOW(3)
00085c d126      	RCALL SUBOPT_0x28
00085d e0ac      	LDI  R26,LOW(12)
00085e dfdf      	RCALL __lcd_write_data
00085f e0a1      	LDI  R26,LOW(1)
000860 dfdd      	RCALL __lcd_write_data
000861 e0a3      	LDI  R26,LOW(3)
000862 d120      	RCALL SUBOPT_0x28
000863 e0e0      	LDI  R30,LOW(0)
000864 93e0 014b 	STS  __lcd_y,R30
000866 2ece      	MOV  R12,R30
000867 9508      	RET
                 _lcd_putchar:
000868 93aa      	ST   -Y,R26
000869 81a8      	LD   R26,Y
00086a 30aa      	CPI  R26,LOW(0xA)
00086b f021      	BREQ _0x2020005
00086c 91e0 014c 	LDS  R30,__lcd_maxx
00086e 16ce      	CP   R12,R30
00086f f060      	BRLO _0x2020004
                 _0x2020005:
000870 e0e0      	LDI  R30,LOW(0)
000871 93ea      	ST   -Y,R30
000872 91a0 014b 	LDS  R26,__lcd_y
000874 5faf      	SUBI R26,-LOW(1)
000875 93a0 014b 	STS  __lcd_y,R26
000877 dfd2      	RCALL _lcd_gotoxy
000878 81a8      	LD   R26,Y
000879 30aa      	CPI  R26,LOW(0xA)
00087a f409      	BRNE _0x2020007
00087b c04e      	RJMP _0x2080001
                 _0x2020007:
                 _0x2020004:
00087c 94c3      	INC  R12
00087d 9aa8      	SBI  0x15,0
00087e 81a8      	LD   R26,Y
00087f dfbe      	RCALL __lcd_write_data
000880 98a8      	CBI  0x15,0
000881 c048      	RJMP _0x2080001
                 _lcd_puts:
000882 d2d6      	RCALL SUBOPT_0x62
000883 931a      	ST   -Y,R17
                 _0x2020008:
000884 81a9      	LDD  R26,Y+1
000885 81ba      	LDD  R27,Y+1+1
000886 91ed      	LD   R30,X+
000887 83a9      	STD  Y+1,R26
000888 83ba      	STD  Y+1+1,R27
000889 2f1e      	MOV  R17,R30
00088a 30e0      	CPI  R30,0
00088b f019      	BREQ _0x202000A
00088c 2fa1      	MOV  R26,R17
00088d dfda      	RCALL _lcd_putchar
00088e cff5      	RJMP _0x2020008
                 _0x202000A:
00088f c00f      	RJMP _0x2080002
                 _lcd_putsf:
000890 d2c8      	RCALL SUBOPT_0x62
000891 931a      	ST   -Y,R17
                 _0x202000B:
000892 81e9      	LDD  R30,Y+1
000893 81fa      	LDD  R31,Y+1+1
000894 9631      	ADIW R30,1
000895 83e9      	STD  Y+1,R30
000896 83fa      	STD  Y+1+1,R31
000897 9731      	SBIW R30,1
000898 91e4      	LPM  R30,Z
000899 2f1e      	MOV  R17,R30
00089a 30e0      	CPI  R30,0
00089b f019      	BREQ _0x202000D
00089c 2fa1      	MOV  R26,R17
00089d dfca      	RCALL _lcd_putchar
00089e cff3      	RJMP _0x202000B
                 _0x202000D:
                 _0x2080002:
00089f 8118      	LDD  R17,Y+0
0008a0 9623      	ADIW R28,3
0008a1 9508      	RET
                 _lcd_init:
0008a2 93aa      	ST   -Y,R26
0008a3 b3e4      	IN   R30,0x14
0008a4 6fe0      	ORI  R30,LOW(0xF0)
0008a5 bbe4      	OUT  0x14,R30
0008a6 9aa2      	SBI  0x14,2
0008a7 9aa0      	SBI  0x14,0
0008a8 9aa1      	SBI  0x14,1
0008a9 98aa      	CBI  0x15,2
0008aa 98a8      	CBI  0x15,0
0008ab 98a9      	CBI  0x15,1
0008ac 81e8      	LD   R30,Y
0008ad 93e0 014c 	STS  __lcd_maxx,R30
0008af 58e0      	SUBI R30,-LOW(128)
                +
0008b0 93e0 0149+STS __base_y_G101 + ( 2 ) , R30
                 	__PUTB1MN __base_y_G101,2
0008b2 81e8      	LD   R30,Y
0008b3 54e0      	SUBI R30,-LOW(192)
                +
0008b4 93e0 014a+STS __base_y_G101 + ( 3 ) , R30
                 	__PUTB1MN __base_y_G101,3
0008b6 e1a4      	LDI  R26,LOW(20)
0008b7 d0cb      	RCALL SUBOPT_0x28
0008b8 d2d8      	RCALL SUBOPT_0x70
0008b9 d2d7      	RCALL SUBOPT_0x70
0008ba d2d6      	RCALL SUBOPT_0x70
0008bb e2a0      	LDI  R26,LOW(32)
0008bc df6d      	RCALL __lcd_write_nibble_G101
                +
0008bd e28c     +LDI R24 , LOW ( 300 )
0008be e091     +LDI R25 , HIGH ( 300 )
                +__DELAY_USW_LOOP :
0008bf 9701     +SBIW R24 , 1
0008c0 f7f1     +BRNE __DELAY_USW_LOOP
                 	__DELAY_USW 300
0008c1 e2a8      	LDI  R26,LOW(40)
0008c2 df7b      	RCALL __lcd_write_data
0008c3 e0a4      	LDI  R26,LOW(4)
0008c4 df79      	RCALL __lcd_write_data
0008c5 e8a5      	LDI  R26,LOW(133)
0008c6 df77      	RCALL __lcd_write_data
0008c7 e0a6      	LDI  R26,LOW(6)
0008c8 df75      	RCALL __lcd_write_data
0008c9 df8f      	RCALL _lcd_clear
                 _0x2080001:
0008ca 9621      	ADIW R28,1
0008cb 9508      	RET
                 
                 	.CSEG
                 
                 	.CSEG
                 _strlen:
0008cc d28c      	RCALL SUBOPT_0x62
0008cd 91a9          ld   r26,y+
0008ce 91b9          ld   r27,y+
0008cf 27ee          clr  r30
0008d0 27ff          clr  r31
                 strlen0:
0008d1 916d          ld   r22,x+
0008d2 2366          tst  r22
0008d3 f011          breq strlen1
0008d4 9631          adiw r30,1
0008d5 cffb          rjmp strlen0
                 strlen1:
0008d6 9508          ret
                 _strlenf:
0008d7 d281      	RCALL SUBOPT_0x62
0008d8 27aa          clr  r26
0008d9 27bb          clr  r27
0008da 91e9          ld   r30,y+
0008db 91f9          ld   r31,y+
                 strlenf0:
0008dc 9005      	lpm  r0,z+
0008dd 2000          tst  r0
0008de f011          breq strlenf1
0008df 9611          adiw r26,1
0008e0 cffb          rjmp strlenf0
                 strlenf1:
0008e1 01fd          movw r30,r26
0008e2 9508          ret
                 
                 	.ESEG
                 _kp:
000000 00        	.DB  0x0
                 _ki:
000001 00        	.DB  0x0
                 _kd:
000002 00        	.DB  0x0
                 _ts:
000003 00        	.DB  0x0
                 _max_speed:
000004 00        	.DB  0x0
                 _B:
000005           	.BYTE 0x8
                 
                 	.DSEG
                 _data:
0000e0           	.BYTE 0x21
                 _tF:
000101           	.BYTE 0x4
                 _pid:
000105           	.BYTE 0x4
                 _a:
000109           	.BYTE 0x8
                 _c:
000111           	.BYTE 0x8
                 _S:
000119           	.BYTE 0x8
                 _SS:
000121           	.BYTE 0x8
                 _P:
000129           	.BYTE 0x2
                 _I:
00012b           	.BYTE 0x2
                 _D:
00012d           	.BYTE 0x2
                 _kpF:
00012f           	.BYTE 0x2
                 _kiF:
000131           	.BYTE 0x2
                 _kdF:
000133           	.BYTE 0x2
                 _posisi:
000135           	.BYTE 0x2
                 _error:
000137           	.BYTE 0x2
                 _last_error:
000139           	.BYTE 0x2
                 _max_speedF:
00013b           	.BYTE 0x2
                 _min:
00013d           	.BYTE 0x2
                 _m1:
00013f           	.BYTE 0x2
                 _m2:
000141           	.BYTE 0x2
                 _gas:
000143           	.BYTE 0x2
                 _hasil:
000145           	.BYTE 0x2
                 __base_y_G101:
000147           	.BYTE 0x4
                 __lcd_y:
00014b           	.BYTE 0x1
                 __lcd_maxx:
00014c           	.BYTE 0x1
                 
                 	.CSEG
                 ;OPTIMIZER ADDED SUBROUTINE, CALLED 8 TIMES, CODE SIZE REDUCTION:12 WORDS
                 SUBOPT_0x0:
0008e3 e0f0      	LDI  R31,0
0008e4 9508      	RET
                 
                 ;OPTIMIZER ADDED SUBROUTINE, CALLED 2 TIMES, CODE SIZE REDUCTION:1 WORDS
                 SUBOPT_0x1:
0008e5 91e0 0111 	LDS  R30,_c
0008e7 91a0 0109 	LDS  R26,_a
0008e9 9508      	RET
                 
                 ;OPTIMIZER ADDED SUBROUTINE, CALLED 2 TIMES, CODE SIZE REDUCTION:1 WORDS
                 SUBOPT_0x2:
                +
0008ea 91a0 010a+LDS R26 , _a + ( 1 )
                 	__GETB2MN _a,1
                +
0008ec 91e0 0112+LDS R30 , _c + ( 1 )
                 	__GETB1MN _c,1
0008ee 9508      	RET
                 
                 ;OPTIMIZER ADDED SUBROUTINE, CALLED 2 TIMES, CODE SIZE REDUCTION:1 WORDS
                 SUBOPT_0x3:
                +
0008ef 91a0 010b+LDS R26 , _a + ( 2 )
                 	__GETB2MN _a,2
                +
0008f1 91e0 0113+LDS R30 , _c + ( 2 )
                 	__GETB1MN _c,2
0008f3 9508      	RET
                 
                 ;OPTIMIZER ADDED SUBROUTINE, CALLED 2 TIMES, CODE SIZE REDUCTION:1 WORDS
                 SUBOPT_0x4:
                +
0008f4 91a0 010c+LDS R26 , _a + ( 3 )
                 	__GETB2MN _a,3
                +
0008f6 91e0 0114+LDS R30 , _c + ( 3 )
                 	__GETB1MN _c,3
0008f8 9508      	RET
                 
                 ;OPTIMIZER ADDED SUBROUTINE, CALLED 2 TIMES, CODE SIZE REDUCTION:1 WORDS
                 SUBOPT_0x5:
                +
0008f9 91a0 010d+LDS R26 , _a + ( 4 )
                 	__GETB2MN _a,4
                +
0008fb 91e0 0115+LDS R30 , _c + ( 4 )
                 	__GETB1MN _c,4
0008fd 9508      	RET
                 
                 ;OPTIMIZER ADDED SUBROUTINE, CALLED 2 TIMES, CODE SIZE REDUCTION:1 WORDS
                 SUBOPT_0x6:
                +
0008fe 91a0 010e+LDS R26 , _a + ( 5 )
                 	__GETB2MN _a,5
                +
000900 91e0 0116+LDS R30 , _c + ( 5 )
                 	__GETB1MN _c,5
000902 9508      	RET
                 
                 ;OPTIMIZER ADDED SUBROUTINE, CALLED 2 TIMES, CODE SIZE REDUCTION:1 WORDS
                 SUBOPT_0x7:
                +
000903 91a0 010f+LDS R26 , _a + ( 6 )
                 	__GETB2MN _a,6
                +
000905 91e0 0117+LDS R30 , _c + ( 6 )
                 	__GETB1MN _c,6
000907 9508      	RET
                 
                 ;OPTIMIZER ADDED SUBROUTINE, CALLED 2 TIMES, CODE SIZE REDUCTION:1 WORDS
                 SUBOPT_0x8:
                +
000908 91a0 0110+LDS R26 , _a + ( 7 )
                 	__GETB2MN _a,7
                +
00090a 91e0 0118+LDS R30 , _c + ( 7 )
                 	__GETB1MN _c,7
00090c 9508      	RET
                 
                 ;OPTIMIZER ADDED SUBROUTINE, CALLED 22 TIMES, CODE SIZE REDUCTION:40 WORDS
                 SUBOPT_0x9:
00090d 93ea      	ST   -Y,R30
00090e e0a0      	LDI  R26,LOW(0)
00090f cf3a      	RJMP _lcd_gotoxy
                 
                 ;OPTIMIZER ADDED SUBROUTINE, CALLED 8 TIMES, CODE SIZE REDUCTION:5 WORDS
                 SUBOPT_0xA:
000910 e3a1      	LDI  R26,LOW(49)
000911 cf56      	RJMP _lcd_putchar
                 
                 ;OPTIMIZER ADDED SUBROUTINE, CALLED 8 TIMES, CODE SIZE REDUCTION:5 WORDS
                 SUBOPT_0xB:
000912 e3a0      	LDI  R26,LOW(48)
000913 cf54      	RJMP _lcd_putchar
                 
                 ;OPTIMIZER ADDED SUBROUTINE, CALLED 11 TIMES, CODE SIZE REDUCTION:68 WORDS
                 SUBOPT_0xC:
000914 e6a4      	LDI  R26,LOW(100)
000915 e0b0      	LDI  R27,0
000916 d281      	RCALL _delay_ms
000917 df41      	RCALL _lcd_clear
000918 e0e0      	LDI  R30,LOW(0)
000919 cff3      	RJMP SUBOPT_0x9
                 
                 ;OPTIMIZER ADDED SUBROUTINE, CALLED 2 TIMES, CODE SIZE REDUCTION:3 WORDS
                 SUBOPT_0xD:
00091a e6a4      	LDI  R26,LOW(100)
00091b e0b0      	LDI  R27,0
00091c d27b      	RCALL _delay_ms
00091d cf3b      	RJMP _lcd_clear
                 
                 ;OPTIMIZER ADDED SUBROUTINE, CALLED 7 TIMES, CODE SIZE REDUCTION:4 WORDS
                 SUBOPT_0xE:
00091e e0a3      	LDI  R26,LOW(_ts)
00091f e0b0      	LDI  R27,HIGH(_ts)
000920 9508      	RET
                 
                 ;OPTIMIZER ADDED SUBROUTINE, CALLED 10 TIMES, CODE SIZE REDUCTION:7 WORDS
                 SUBOPT_0xF:
000921 e0a4      	LDI  R26,LOW(_max_speed)
000922 e0b0      	LDI  R27,HIGH(_max_speed)
000923 9508      	RET
                 
                 ;OPTIMIZER ADDED SUBROUTINE, CALLED 7 TIMES, CODE SIZE REDUCTION:4 WORDS
                 SUBOPT_0x10:
000924 e0a2      	LDI  R26,LOW(_kd)
000925 e0b0      	LDI  R27,HIGH(_kd)
000926 9508      	RET
                 
                 ;OPTIMIZER ADDED SUBROUTINE, CALLED 7 TIMES, CODE SIZE REDUCTION:4 WORDS
                 SUBOPT_0x11:
000927 e0a1      	LDI  R26,LOW(_ki)
000928 e0b0      	LDI  R27,HIGH(_ki)
000929 9508      	RET
                 
                 ;OPTIMIZER ADDED SUBROUTINE, CALLED 7 TIMES, CODE SIZE REDUCTION:4 WORDS
                 SUBOPT_0x12:
00092a e0a0      	LDI  R26,LOW(_kp)
00092b e0b0      	LDI  R27,HIGH(_kp)
00092c 9508      	RET
                 
                 ;OPTIMIZER ADDED SUBROUTINE, CALLED 10 TIMES, CODE SIZE REDUCTION:7 WORDS
                 SUBOPT_0x13:
00092d e0e0      	LDI  R30,LOW(0)
00092e cfde      	RJMP SUBOPT_0x9
                 
                 ;OPTIMIZER ADDED SUBROUTINE, CALLED 2 TIMES, CODE SIZE REDUCTION:2 WORDS
                 SUBOPT_0x14:
00092f df60      	RCALL _lcd_putsf
000930 efa4      	LDI  R26,LOW(500)
000931 e0b1      	LDI  R27,HIGH(500)
000932 d265      	RCALL _delay_ms
000933 cf25      	RJMP _lcd_clear
                 
                 ;OPTIMIZER ADDED SUBROUTINE, CALLED 12 TIMES, CODE SIZE REDUCTION:31 WORDS
                 SUBOPT_0x15:
000934 eee0      	LDI  R30,LOW(_data)
000935 e0f0      	LDI  R31,HIGH(_data)
000936 93fa      	ST   -Y,R31
000937 93ea      	ST   -Y,R30
000938 9508      	RET
                 
                 ;OPTIMIZER ADDED SUBROUTINE, CALLED 14 TIMES, CODE SIZE REDUCTION:11 WORDS
                 SUBOPT_0x16:
000939 93fa      	ST   -Y,R31
00093a 93ea      	ST   -Y,R30
00093b 9508      	RET
                 
                 ;OPTIMIZER ADDED SUBROUTINE, CALLED 6 TIMES, CODE SIZE REDUCTION:3 WORDS
                 SUBOPT_0x17:
00093c dfed      	RCALL SUBOPT_0x12
00093d d3d5      	RCALL __EEPROMRDB
00093e 9508      	RET
                 
                 ;OPTIMIZER ADDED SUBROUTINE, CALLED 5 TIMES, CODE SIZE REDUCTION:34 WORDS
                 SUBOPT_0x18:
00093f 27ff      	CLR  R31
000940 2766      	CLR  R22
000941 2777      	CLR  R23
000942 d3cb      	RCALL __PUTPARD1
000943 e084      	LDI  R24,4
000944 debb      	RCALL _sprintf
000945 9628      	ADIW R28,8
000946 eea0      	LDI  R26,LOW(_data)
000947 e0b0      	LDI  R27,HIGH(_data)
000948 cf39      	RJMP _lcd_puts
                 
                 ;OPTIMIZER ADDED SUBROUTINE, CALLED 2 TIMES, CODE SIZE REDUCTION:3 WORDS
                 SUBOPT_0x19:
000949 e0a1      	LDI  R26,LOW(1)
00094a e0b0      	LDI  R27,0
00094b d24c      	RCALL _delay_ms
00094c cfef      	RJMP SUBOPT_0x17
                 
                 ;OPTIMIZER ADDED SUBROUTINE, CALLED 4 TIMES, CODE SIZE REDUCTION:4 WORDS
                 SUBOPT_0x1A:
00094d 5fef      	SUBI R30,-LOW(1)
00094e d3d0      	RCALL __EEPROMWRB
00094f 50e1      	SUBI R30,LOW(1)
000950 9508      	RET
                 
                 ;OPTIMIZER ADDED SUBROUTINE, CALLED 4 TIMES, CODE SIZE REDUCTION:4 WORDS
                 SUBOPT_0x1B:
000951 50e1      	SUBI R30,LOW(1)
000952 d3cc      	RCALL __EEPROMWRB
000953 5fef      	SUBI R30,-LOW(1)
000954 9508      	RET
                 
                 ;OPTIMIZER ADDED SUBROUTINE, CALLED 6 TIMES, CODE SIZE REDUCTION:3 WORDS
                 SUBOPT_0x1C:
000955 dfd1      	RCALL SUBOPT_0x11
000956 d3bc      	RCALL __EEPROMRDB
000957 9508      	RET
                 
                 ;OPTIMIZER ADDED SUBROUTINE, CALLED 2 TIMES, CODE SIZE REDUCTION:3 WORDS
                 SUBOPT_0x1D:
000958 e0a1      	LDI  R26,LOW(1)
000959 e0b0      	LDI  R27,0
00095a d23d      	RCALL _delay_ms
00095b cff9      	RJMP SUBOPT_0x1C
                 
                 ;OPTIMIZER ADDED SUBROUTINE, CALLED 6 TIMES, CODE SIZE REDUCTION:3 WORDS
                 SUBOPT_0x1E:
00095c dfc7      	RCALL SUBOPT_0x10
00095d d3b5      	RCALL __EEPROMRDB
00095e 9508      	RET
                 
                 ;OPTIMIZER ADDED SUBROUTINE, CALLED 2 TIMES, CODE SIZE REDUCTION:3 WORDS
                 SUBOPT_0x1F:
00095f e0a1      	LDI  R26,LOW(1)
000960 e0b0      	LDI  R27,0
000961 d236      	RCALL _delay_ms
000962 cff9      	RJMP SUBOPT_0x1E
                 
                 ;OPTIMIZER ADDED SUBROUTINE, CALLED 6 TIMES, CODE SIZE REDUCTION:3 WORDS
                 SUBOPT_0x20:
000963 dfba      	RCALL SUBOPT_0xE
000964 d3ae      	RCALL __EEPROMRDB
000965 9508      	RET
                 
                 ;OPTIMIZER ADDED SUBROUTINE, CALLED 2 TIMES, CODE SIZE REDUCTION:3 WORDS
                 SUBOPT_0x21:
000966 e0a1      	LDI  R26,LOW(1)
000967 e0b0      	LDI  R27,0
000968 d22f      	RCALL _delay_ms
000969 cff9      	RJMP SUBOPT_0x20
                 
                 ;OPTIMIZER ADDED SUBROUTINE, CALLED 7 TIMES, CODE SIZE REDUCTION:4 WORDS
                 SUBOPT_0x22:
00096a dfb6      	RCALL SUBOPT_0xF
00096b d3a7      	RCALL __EEPROMRDB
00096c 9508      	RET
                 
                 ;OPTIMIZER ADDED SUBROUTINE, CALLED 2 TIMES, CODE SIZE REDUCTION:3 WORDS
                 SUBOPT_0x23:
00096d e0a1      	LDI  R26,LOW(1)
00096e e0b0      	LDI  R27,0
00096f d228      	RCALL _delay_ms
000970 cff9      	RJMP SUBOPT_0x22
                 
                 ;OPTIMIZER ADDED SUBROUTINE, CALLED 2 TIMES, CODE SIZE REDUCTION:2 WORDS
                 SUBOPT_0x24:
000971 27ff      	CLR  R31
000972 2766      	CLR  R22
000973 2777      	CLR  R23
000974 d399      	RCALL __PUTPARD1
000975 2dad      	MOV  R26,R13
000976 9508      	RET
                 
                 ;OPTIMIZER ADDED SUBROUTINE, CALLED 20 TIMES, CODE SIZE REDUCTION:36 WORDS
                 SUBOPT_0x25:
000977 e0b0      	LDI  R27,0
000978 9508      	RET
                 
                 ;OPTIMIZER ADDED SUBROUTINE, CALLED 4 TIMES, CODE SIZE REDUCTION:16 WORDS
                 SUBOPT_0x26:
000979 d394      	RCALL __PUTPARD1
00097a e08c      	LDI  R24,12
00097b de84      	RCALL _sprintf
00097c 9660      	ADIW R28,16
00097d eea0      	LDI  R26,LOW(_data)
00097e e0b0      	LDI  R27,HIGH(_data)
00097f cf02      	RJMP _lcd_puts
                 
                 ;OPTIMIZER ADDED SUBROUTINE, CALLED 4 TIMES, CODE SIZE REDUCTION:4 WORDS
                 SUBOPT_0x27:
000980 e9a6      	LDI  R26,LOW(150)
000981 dff5      	RCALL SUBOPT_0x25
000982 c215      	RJMP _delay_ms
                 
                 ;OPTIMIZER ADDED SUBROUTINE, CALLED 15 TIMES, CODE SIZE REDUCTION:12 WORDS
                 SUBOPT_0x28:
000983 dff3      	RCALL SUBOPT_0x25
000984 c213      	RJMP _delay_ms
                 
                 ;OPTIMIZER ADDED SUBROUTINE, CALLED 5 TIMES, CODE SIZE REDUCTION:2 WORDS
                 SUBOPT_0x29:
000985 01df      	MOVW R26,R30
000986 01cb      	MOVW R24,R22
000987 9508      	RET
                 
                 ;OPTIMIZER ADDED SUBROUTINE, CALLED 2 TIMES, CODE SIZE REDUCTION:3 WORDS
                 SUBOPT_0x2A:
000988 df07      	RCALL _lcd_putsf
000989 e0e0      	LDI  R30,LOW(0)
00098a 93ea      	ST   -Y,R30
00098b e0a1      	LDI  R26,LOW(1)
00098c debd      	RCALL _lcd_gotoxy
00098d cfa6      	RJMP SUBOPT_0x15
                 
                 ;OPTIMIZER ADDED SUBROUTINE, CALLED 10 TIMES, CODE SIZE REDUCTION:16 WORDS
                 SUBOPT_0x2B:
00098e d357      	RCALL __CWD1
00098f d37e      	RCALL __PUTPARD1
000990 9508      	RET
                 
                 ;OPTIMIZER ADDED SUBROUTINE, CALLED 3 TIMES, CODE SIZE REDUCTION:2 WORDS
                 SUBOPT_0x2C:
000991 d354      	RCALL __CWD1
000992 cfe6      	RJMP SUBOPT_0x26
                 
                 ;OPTIMIZER ADDED SUBROUTINE, CALLED 2 TIMES, CODE SIZE REDUCTION:2 WORDS
                 SUBOPT_0x2D:
000993 efa4      	LDI  R26,LOW(500)
000994 e0b1      	LDI  R27,HIGH(500)
000995 d202      	RCALL _delay_ms
000996 dec2      	RCALL _lcd_clear
000997 cf95      	RJMP SUBOPT_0x13
                 
                 ;OPTIMIZER ADDED SUBROUTINE, CALLED 15 TIMES, CODE SIZE REDUCTION:40 WORDS
                 SUBOPT_0x2E:
000998 91e0 013b 	LDS  R30,_max_speedF
00099a 91f0 013c 	LDS  R31,_max_speedF+1
00099c 9508      	RET
                 
                 ;OPTIMIZER ADDED SUBROUTINE, CALLED 3 TIMES, CODE SIZE REDUCTION:12 WORDS
                 SUBOPT_0x2F:
00099d 91e0 0101 	LDS  R30,_tF
00099f 91f0 0102 	LDS  R31,_tF+1
0009a1 9160 0103 	LDS  R22,_tF+2
0009a3 9170 0104 	LDS  R23,_tF+3
0009a5 9508      	RET
                 
                 ;OPTIMIZER ADDED SUBROUTINE, CALLED 3 TIMES, CODE SIZE REDUCTION:2 WORDS
                 SUBOPT_0x30:
0009a6 eea0      	LDI  R26,LOW(_data)
0009a7 e0b0      	LDI  R27,HIGH(_data)
0009a8 ced9      	RJMP _lcd_puts
                 
                 ;OPTIMIZER ADDED SUBROUTINE, CALLED 4 TIMES, CODE SIZE REDUCTION:7 WORDS
                 SUBOPT_0x31:
0009a9 e0e0      	LDI  R30,LOW(0)
0009aa 93ea      	ST   -Y,R30
0009ab e0a1      	LDI  R26,LOW(1)
0009ac ce9d      	RJMP _lcd_gotoxy
                 
                 ;OPTIMIZER ADDED SUBROUTINE, CALLED 2 TIMES, CODE SIZE REDUCTION:1 WORDS
                 SUBOPT_0x32:
0009ad e0a0      	LDI  R26,0
0009ae 99b0      	SBIC 0x16,0
0009af e0a1      	LDI  R26,1
0009b0 30a0      	CPI  R26,LOW(0x0)
0009b1 9508      	RET
                 
                 ;OPTIMIZER ADDED SUBROUTINE, CALLED 2 TIMES, CODE SIZE REDUCTION:5 WORDS
                 SUBOPT_0x33:
                +
0009b2 ede9     +LDI R30 , LOW ( 2 * _0x0 + ( 157 ) )
0009b3 e0f0     +LDI R31 , HIGH ( 2 * _0x0 + ( 157 ) )
                 	__POINTW1FN _0x0,157
0009b4 df84      	RCALL SUBOPT_0x16
0009b5 91e0 0145 	LDS  R30,_hasil
0009b7 91f0 0146 	LDS  R31,_hasil+1
0009b9 cfd4      	RJMP SUBOPT_0x2B
                 
                 ;OPTIMIZER ADDED SUBROUTINE, CALLED 2 TIMES, CODE SIZE REDUCTION:1 WORDS
                 SUBOPT_0x34:
0009ba e084      	LDI  R24,4
0009bb de44      	RCALL _sprintf
0009bc 9628      	ADIW R28,8
0009bd cfe8      	RJMP SUBOPT_0x30
                 
                 ;OPTIMIZER ADDED SUBROUTINE, CALLED 2 TIMES, CODE SIZE REDUCTION:5 WORDS
                 SUBOPT_0x35:
                +
0009be e0e5     +LDI R30 , LOW ( 2 * _0x0 + ( 201 ) )
0009bf e0f1     +LDI R31 , HIGH ( 2 * _0x0 + ( 201 ) )
                 	__POINTW1FN _0x0,201
0009c0 df78      	RCALL SUBOPT_0x16
0009c1 91e0 013f 	LDS  R30,_m1
0009c3 91f0 0140 	LDS  R31,_m1+1
0009c5 cfc8      	RJMP SUBOPT_0x2B
                 
                 ;OPTIMIZER ADDED SUBROUTINE, CALLED 2 TIMES, CODE SIZE REDUCTION:2 WORDS
                 SUBOPT_0x36:
0009c6 91e0 0141 	LDS  R30,_m2
0009c8 91f0 0142 	LDS  R31,_m2+1
0009ca cfc3      	RJMP SUBOPT_0x2B
                 
                 ;OPTIMIZER ADDED SUBROUTINE, CALLED 4 TIMES, CODE SIZE REDUCTION:7 WORDS
                 SUBOPT_0x37:
0009cb 91e0 0135 	LDS  R30,_posisi
0009cd 91f0 0136 	LDS  R31,_posisi+1
0009cf 9508      	RET
                 
                 ;OPTIMIZER ADDED SUBROUTINE, CALLED 4 TIMES, CODE SIZE REDUCTION:13 WORDS
                 SUBOPT_0x38:
0009d0 e0e7      	LDI  R30,LOW(7)
0009d1 e0f0      	LDI  R31,HIGH(7)
0009d2 93e0 0135 	STS  _posisi,R30
0009d4 93f0 0136 	STS  _posisi+1,R31
0009d6 9508      	RET
                 
                 ;OPTIMIZER ADDED SUBROUTINE, CALLED 6 TIMES, CODE SIZE REDUCTION:23 WORDS
                 SUBOPT_0x39:
0009d7 e0e5      	LDI  R30,LOW(5)
0009d8 e0f0      	LDI  R31,HIGH(5)
0009d9 93e0 0135 	STS  _posisi,R30
0009db 93f0 0136 	STS  _posisi+1,R31
0009dd 9508      	RET
                 
                 ;OPTIMIZER ADDED SUBROUTINE, CALLED 4 TIMES, CODE SIZE REDUCTION:13 WORDS
                 SUBOPT_0x3A:
0009de e0e3      	LDI  R30,LOW(3)
0009df e0f0      	LDI  R31,HIGH(3)
0009e0 93e0 0135 	STS  _posisi,R30
0009e2 93f0 0136 	STS  _posisi+1,R31
0009e4 9508      	RET
                 
                 ;OPTIMIZER ADDED SUBROUTINE, CALLED 4 TIMES, CODE SIZE REDUCTION:13 WORDS
                 SUBOPT_0x3B:
0009e5 e0e1      	LDI  R30,LOW(1)
0009e6 e0f0      	LDI  R31,HIGH(1)
0009e7 93e0 0135 	STS  _posisi,R30
0009e9 93f0 0136 	STS  _posisi+1,R31
0009eb 9508      	RET
                 
                 ;OPTIMIZER ADDED SUBROUTINE, CALLED 4 TIMES, CODE SIZE REDUCTION:13 WORDS
                 SUBOPT_0x3C:
0009ec efef      	LDI  R30,LOW(65535)
0009ed efff      	LDI  R31,HIGH(65535)
0009ee 93e0 0135 	STS  _posisi,R30
0009f0 93f0 0136 	STS  _posisi+1,R31
0009f2 9508      	RET
                 
                 ;OPTIMIZER ADDED SUBROUTINE, CALLED 4 TIMES, CODE SIZE REDUCTION:13 WORDS
                 SUBOPT_0x3D:
0009f3 efed      	LDI  R30,LOW(65533)
0009f4 efff      	LDI  R31,HIGH(65533)
0009f5 93e0 0135 	STS  _posisi,R30
0009f7 93f0 0136 	STS  _posisi+1,R31
0009f9 9508      	RET
                 
                 ;OPTIMIZER ADDED SUBROUTINE, CALLED 6 TIMES, CODE SIZE REDUCTION:23 WORDS
                 SUBOPT_0x3E:
0009fa efeb      	LDI  R30,LOW(65531)
0009fb efff      	LDI  R31,HIGH(65531)
0009fc 93e0 0135 	STS  _posisi,R30
0009fe 93f0 0136 	STS  _posisi+1,R31
000a00 9508      	RET
                 
                 ;OPTIMIZER ADDED SUBROUTINE, CALLED 4 TIMES, CODE SIZE REDUCTION:13 WORDS
                 SUBOPT_0x3F:
000a01 efe9      	LDI  R30,LOW(65529)
000a02 efff      	LDI  R31,HIGH(65529)
000a03 93e0 0135 	STS  _posisi,R30
000a05 93f0 0136 	STS  _posisi+1,R31
000a07 9508      	RET
                 
                 ;OPTIMIZER ADDED SUBROUTINE, CALLED 6 TIMES, CODE SIZE REDUCTION:23 WORDS
                 SUBOPT_0x40:
000a08 e0e6      	LDI  R30,LOW(6)
000a09 e0f0      	LDI  R31,HIGH(6)
000a0a 93e0 0135 	STS  _posisi,R30
000a0c 93f0 0136 	STS  _posisi+1,R31
000a0e 9508      	RET
                 
                 ;OPTIMIZER ADDED SUBROUTINE, CALLED 2 TIMES, CODE SIZE REDUCTION:3 WORDS
                 SUBOPT_0x41:
000a0f e0e4      	LDI  R30,LOW(4)
000a10 e0f0      	LDI  R31,HIGH(4)
000a11 93e0 0135 	STS  _posisi,R30
000a13 93f0 0136 	STS  _posisi+1,R31
000a15 9508      	RET
                 
                 ;OPTIMIZER ADDED SUBROUTINE, CALLED 2 TIMES, CODE SIZE REDUCTION:3 WORDS
                 SUBOPT_0x42:
000a16 e0e2      	LDI  R30,LOW(2)
000a17 e0f0      	LDI  R31,HIGH(2)
000a18 93e0 0135 	STS  _posisi,R30
000a1a 93f0 0136 	STS  _posisi+1,R31
000a1c 9508      	RET
                 
                 ;OPTIMIZER ADDED SUBROUTINE, CALLED 12 TIMES, CODE SIZE REDUCTION:42 WORDS
                 SUBOPT_0x43:
000a1d e0e0      	LDI  R30,LOW(0)
000a1e 93e0 0135 	STS  _posisi,R30
000a20 93e0 0136 	STS  _posisi+1,R30
000a22 9508      	RET
                 
                 ;OPTIMIZER ADDED SUBROUTINE, CALLED 2 TIMES, CODE SIZE REDUCTION:3 WORDS
                 SUBOPT_0x44:
000a23 efee      	LDI  R30,LOW(65534)
000a24 efff      	LDI  R31,HIGH(65534)
000a25 93e0 0135 	STS  _posisi,R30
000a27 93f0 0136 	STS  _posisi+1,R31
000a29 9508      	RET
                 
                 ;OPTIMIZER ADDED SUBROUTINE, CALLED 2 TIMES, CODE SIZE REDUCTION:3 WORDS
                 SUBOPT_0x45:
000a2a efec      	LDI  R30,LOW(65532)
000a2b efff      	LDI  R31,HIGH(65532)
000a2c 93e0 0135 	STS  _posisi,R30
000a2e 93f0 0136 	STS  _posisi+1,R31
000a30 9508      	RET
                 
                 ;OPTIMIZER ADDED SUBROUTINE, CALLED 6 TIMES, CODE SIZE REDUCTION:23 WORDS
                 SUBOPT_0x46:
000a31 efea      	LDI  R30,LOW(65530)
000a32 efff      	LDI  R31,HIGH(65530)
000a33 93e0 0135 	STS  _posisi,R30
000a35 93f0 0136 	STS  _posisi+1,R31
000a37 9508      	RET
                 
                 ;OPTIMIZER ADDED SUBROUTINE, CALLED 5 TIMES, CODE SIZE REDUCTION:2 WORDS
                 SUBOPT_0x47:
000a38 efef      	LDI  R30,LOW(255)
000a39 15ea      	CP   R30,R10
000a3a 9508      	RET
                 
                 ;OPTIMIZER ADDED SUBROUTINE, CALLED 2 TIMES, CODE SIZE REDUCTION:3 WORDS
                 SUBOPT_0x48:
000a3b e0e9      	LDI  R30,LOW(9)
000a3c e0f0      	LDI  R31,HIGH(9)
000a3d 93e0 0135 	STS  _posisi,R30
000a3f 93f0 0136 	STS  _posisi+1,R31
000a41 9508      	RET
                 
                 ;OPTIMIZER ADDED SUBROUTINE, CALLED 4 TIMES, CODE SIZE REDUCTION:1 WORDS
                 SUBOPT_0x49:
000a42 efe7      	LDI  R30,LOW(65527)
000a43 efff      	LDI  R31,HIGH(65527)
000a44 9508      	RET
                 
                 ;OPTIMIZER ADDED SUBROUTINE, CALLED 10 TIMES, CODE SIZE REDUCTION:25 WORDS
                 SUBOPT_0x4A:
000a45 93e0 0135 	STS  _posisi,R30
000a47 93f0 0136 	STS  _posisi+1,R31
000a49 9508      	RET
                 
                 ;OPTIMIZER ADDED SUBROUTINE, CALLED 10 TIMES, CODE SIZE REDUCTION:25 WORDS
                 SUBOPT_0x4B:
000a4a 91a0 0135 	LDS  R26,_posisi
000a4c 91b0 0136 	LDS  R27,_posisi+1
000a4e 9508      	RET
                 
                 ;OPTIMIZER ADDED SUBROUTINE, CALLED 4 TIMES, CODE SIZE REDUCTION:1 WORDS
                 SUBOPT_0x4C:
000a4f dffa      	RCALL SUBOPT_0x4B
000a50 9719      	SBIW R26,9
000a51 9508      	RET
                 
                 ;OPTIMIZER ADDED SUBROUTINE, CALLED 2 TIMES, CODE SIZE REDUCTION:1 WORDS
                 SUBOPT_0x4D:
000a52 dff7      	RCALL SUBOPT_0x4B
000a53 dfee      	RCALL SUBOPT_0x49
000a54 17ea      	CP   R30,R26
000a55 07fb      	CPC  R31,R27
000a56 9508      	RET
                 
                 ;OPTIMIZER ADDED SUBROUTINE, CALLED 2 TIMES, CODE SIZE REDUCTION:1 WORDS
                 SUBOPT_0x4E:
000a57 dff2      	RCALL SUBOPT_0x4B
000a58 3fa8      	CPI  R26,LOW(0xFFF8)
000a59 efef      	LDI  R30,HIGH(0xFFF8)
000a5a 07be      	CPC  R27,R30
000a5b 9508      	RET
                 
                 ;OPTIMIZER ADDED SUBROUTINE, CALLED 2 TIMES, CODE SIZE REDUCTION:68 WORDS
                 SUBOPT_0x4F:
000a5c df6e      	RCALL SUBOPT_0x37
000a5d 91a0 012f 	LDS  R26,_kpF
000a5f 91b0 0130 	LDS  R27,_kpF+1
000a61 d291      	RCALL __MULW12
000a62 93e0 0137 	STS  _error,R30
000a64 93f0 0138 	STS  _error+1,R31
000a66 93e0 0129 	STS  _P,R30
000a68 93f0 012a 	STS  _P+1,R31
000a6a 91e0 0139 	LDS  R30,_last_error
000a6c 91f0 013a 	LDS  R31,_last_error+1
000a6e 91a0 0137 	LDS  R26,_error
000a70 91b0 0138 	LDS  R27,_error+1
000a72 0fea      	ADD  R30,R26
000a73 1ffb      	ADC  R31,R27
000a74 91a0 0131 	LDS  R26,_kiF
000a76 91b0 0132 	LDS  R27,_kiF+1
000a78 d27a      	RCALL __MULW12
000a79 93e0 012b 	STS  _I,R30
000a7b 93f0 012c 	STS  _I+1,R31
000a7d 91a0 0139 	LDS  R26,_last_error
000a7f 91b0 013a 	LDS  R27,_last_error+1
000a81 91e0 0137 	LDS  R30,_error
000a83 91f0 0138 	LDS  R31,_error+1
000a85 1bea      	SUB  R30,R26
000a86 0bfb      	SBC  R31,R27
000a87 91a0 0133 	LDS  R26,_kdF
000a89 91b0 0134 	LDS  R27,_kdF+1
000a8b d267      	RCALL __MULW12
000a8c 93e0 012d 	STS  _D,R30
000a8e 93f0 012e 	STS  _D+1,R31
000a90 91e0 0137 	LDS  R30,_error
000a92 91f0 0138 	LDS  R31,_error+1
000a94 93e0 0139 	STS  _last_error,R30
000a96 93f0 013a 	STS  _last_error+1,R31
000a98 91e0 0129 	LDS  R30,_P
000a9a 91f0 012a 	LDS  R31,_P+1
000a9c d249      	RCALL __CWD1
000a9d d16a      	RCALL __CDF1
000a9e 9508      	RET
                 
                 ;OPTIMIZER ADDED SUBROUTINE, CALLED 2 TIMES, CODE SIZE REDUCTION:10 WORDS
                 SUBOPT_0x50:
000a9f 91e0 012b 	LDS  R30,_I
000aa1 91f0 012c 	LDS  R31,_I+1
000aa3 d242      	RCALL __CWD1
000aa4 d163      	RCALL __CDF1
000aa5 dedf      	RCALL SUBOPT_0x29
                +
000aa6 e0e0     +LDI R30 , LOW ( 0x461C4000 )
000aa7 e4f0     +LDI R31 , HIGH ( 0x461C4000 )
000aa8 e16c     +LDI R22 , BYTE3 ( 0x461C4000 )
000aa9 e476     +LDI R23 , BYTE4 ( 0x461C4000 )
                 	__GETD1N 0x461C4000
000aaa d1e0      	RCALL __DIVF21
000aab 9508      	RET
                 
                 ;OPTIMIZER ADDED SUBROUTINE, CALLED 2 TIMES, CODE SIZE REDUCTION:46 WORDS
                 SUBOPT_0x51:
000aac d18e      	RCALL __ADDF12
000aad ded7      	RCALL SUBOPT_0x29
000aae 91e0 012d 	LDS  R30,_D
000ab0 91f0 012e 	LDS  R31,_D+1
000ab2 d233      	RCALL __CWD1
000ab3 d154      	RCALL __CDF1
000ab4 d186      	RCALL __ADDF12
000ab5 93e0 0105 	STS  _pid,R30
000ab7 93f0 0106 	STS  _pid+1,R31
000ab9 9360 0107 	STS  _pid+2,R22
000abb 9370 0108 	STS  _pid+3,R23
000abd d113      	RCALL __CFD1
000abe 93e0 0145 	STS  _hasil,R30
000ac0 93f0 0146 	STS  _hasil+1,R31
000ac2 91a0 0145 	LDS  R26,_hasil
000ac4 91b0 0146 	LDS  R27,_hasil+1
000ac6 ded1      	RCALL SUBOPT_0x2E
000ac7 1bea      	SUB  R30,R26
000ac8 0bfb      	SBC  R31,R27
000ac9 93e0 013f 	STS  _m1,R30
000acb 93f0 0140 	STS  _m1+1,R31
000acd deca      	RCALL SUBOPT_0x2E
000ace 91a0 013f 	LDS  R26,_m1
000ad0 91b0 0140 	LDS  R27,_m1+1
000ad2 17ea      	CP   R30,R26
000ad3 07fb      	CPC  R31,R27
000ad4 9508      	RET
                 
                 ;OPTIMIZER ADDED SUBROUTINE, CALLED 4 TIMES, CODE SIZE REDUCTION:10 WORDS
                 SUBOPT_0x52:
000ad5 dec2      	RCALL SUBOPT_0x2E
000ad6 93e0 013f 	STS  _m1,R30
000ad8 93f0 0140 	STS  _m1+1,R31
000ada 9508      	RET
                 
                 ;OPTIMIZER ADDED SUBROUTINE, CALLED 8 TIMES, CODE SIZE REDUCTION:19 WORDS
                 SUBOPT_0x53:
000adb 91e0 013d 	LDS  R30,_min
000add 91f0 013e 	LDS  R31,_min+1
000adf 9508      	RET
                 
                 ;OPTIMIZER ADDED SUBROUTINE, CALLED 6 TIMES, CODE SIZE REDUCTION:13 WORDS
                 SUBOPT_0x54:
000ae0 91a0 013f 	LDS  R26,_m1
000ae2 91b0 0140 	LDS  R27,_m1+1
000ae4 9508      	RET
                 
                 ;OPTIMIZER ADDED SUBROUTINE, CALLED 5 TIMES, CODE SIZE REDUCTION:2 WORDS
                 SUBOPT_0x55:
000ae5 17ae      	CP   R26,R30
000ae6 07bf      	CPC  R27,R31
000ae7 9508      	RET
                 
                 ;OPTIMIZER ADDED SUBROUTINE, CALLED 2 TIMES, CODE SIZE REDUCTION:2 WORDS
                 SUBOPT_0x56:
000ae8 dff2      	RCALL SUBOPT_0x53
000ae9 93e0 013f 	STS  _m1,R30
000aeb 93f0 0140 	STS  _m1+1,R31
000aed 9508      	RET
                 
                 ;OPTIMIZER ADDED SUBROUTINE, CALLED 2 TIMES, CODE SIZE REDUCTION:17 WORDS
                 SUBOPT_0x57:
000aee 2455      	CLR  R5
000aef e0e1      	LDI  R30,LOW(1)
000af0 2e4e      	MOV  R4,R30
000af1 dfee      	RCALL SUBOPT_0x54
000af2 e0e0      	LDI  R30,LOW(0)
000af3 e0f0      	LDI  R31,HIGH(0)
000af4 1bea      	SUB  R30,R26
000af5 0bfb      	SBC  R31,R27
000af6 93e0 0143 	STS  _gas,R30
000af8 93f0 0144 	STS  _gas+1,R31
000afa 93e0 013f 	STS  _m1,R30
000afc 93f0 0140 	STS  _m1+1,R31
000afe 9508      	RET
                 
                 ;OPTIMIZER ADDED SUBROUTINE, CALLED 4 TIMES, CODE SIZE REDUCTION:10 WORDS
                 SUBOPT_0x58:
000aff 91e0 0137 	LDS  R30,_error
000b01 91f0 0138 	LDS  R31,_error+1
000b03 9730      	SBIW R30,0
000b04 9508      	RET
                 
                 ;OPTIMIZER ADDED SUBROUTINE, CALLED 2 TIMES, CODE SIZE REDUCTION:18 WORDS
                 SUBOPT_0x59:
000b05 91e0 0145 	LDS  R30,_hasil
000b07 91f0 0146 	LDS  R31,_hasil+1
000b09 91a0 013b 	LDS  R26,_max_speedF
000b0b 91b0 013c 	LDS  R27,_max_speedF+1
000b0d 0fea      	ADD  R30,R26
000b0e 1ffb      	ADC  R31,R27
000b0f 93e0 0141 	STS  _m2,R30
000b11 93f0 0142 	STS  _m2+1,R31
000b13 de84      	RCALL SUBOPT_0x2E
000b14 91a0 0141 	LDS  R26,_m2
000b16 91b0 0142 	LDS  R27,_m2+1
000b18 17ea      	CP   R30,R26
000b19 07fb      	CPC  R31,R27
000b1a 9508      	RET
                 
                 ;OPTIMIZER ADDED SUBROUTINE, CALLED 4 TIMES, CODE SIZE REDUCTION:10 WORDS
                 SUBOPT_0x5A:
000b1b de7c      	RCALL SUBOPT_0x2E
000b1c 93e0 0141 	STS  _m2,R30
000b1e 93f0 0142 	STS  _m2+1,R31
000b20 9508      	RET
                 
                 ;OPTIMIZER ADDED SUBROUTINE, CALLED 2 TIMES, CODE SIZE REDUCTION:3 WORDS
                 SUBOPT_0x5B:
000b21 dfb9      	RCALL SUBOPT_0x53
000b22 91a0 0141 	LDS  R26,_m2
000b24 91b0 0142 	LDS  R27,_m2+1
000b26 cfbe      	RJMP SUBOPT_0x55
                 
                 ;OPTIMIZER ADDED SUBROUTINE, CALLED 2 TIMES, CODE SIZE REDUCTION:2 WORDS
                 SUBOPT_0x5C:
000b27 dfb3      	RCALL SUBOPT_0x53
000b28 93e0 0141 	STS  _m2,R30
000b2a 93f0 0142 	STS  _m2+1,R31
000b2c 9508      	RET
                 
                 ;OPTIMIZER ADDED SUBROUTINE, CALLED 4 TIMES, CODE SIZE REDUCTION:7 WORDS
                 SUBOPT_0x5D:
000b2d 91a0 0141 	LDS  R26,_m2
000b2f 91b0 0142 	LDS  R27,_m2+1
000b31 9508      	RET
                 
                 ;OPTIMIZER ADDED SUBROUTINE, CALLED 2 TIMES, CODE SIZE REDUCTION:17 WORDS
                 SUBOPT_0x5E:
000b32 e0e1      	LDI  R30,LOW(1)
000b33 2e7e      	MOV  R7,R30
000b34 2466      	CLR  R6
000b35 dff7      	RCALL SUBOPT_0x5D
000b36 e0e0      	LDI  R30,LOW(0)
000b37 e0f0      	LDI  R31,HIGH(0)
000b38 1bea      	SUB  R30,R26
000b39 0bfb      	SBC  R31,R27
000b3a 93e0 0143 	STS  _gas,R30
000b3c 93f0 0144 	STS  _gas+1,R31
000b3e 93e0 0141 	STS  _m2,R30
000b40 93f0 0142 	STS  _m2+1,R31
000b42 9508      	RET
                 
                 ;OPTIMIZER ADDED SUBROUTINE, CALLED 2 TIMES, CODE SIZE REDUCTION:11 WORDS
                 SUBOPT_0x5F:
000b43 925a      	ST   -Y,R5
000b44 924a      	ST   -Y,R4
000b45 927a      	ST   -Y,R7
000b46 926a      	ST   -Y,R6
000b47 91e0 013f 	LDS  R30,_m1
000b49 93ea      	ST   -Y,R30
000b4a 91a0 0141 	LDS  R26,_m2
000b4c d58b      	RCALL _motor
000b4d de4f      	RCALL SUBOPT_0x2F
000b4e d080      	RCALL __CFD1U
000b4f 01df      	MOVW R26,R30
000b50 c047      	RJMP _delay_ms
                 
                 ;OPTIMIZER ADDED SUBROUTINE, CALLED 4 TIMES, CODE SIZE REDUCTION:1 WORDS
                 SUBOPT_0x60:
000b51 e0e0      	LDI  R30,LOW(0)
000b52 15ea      	CP   R30,R10
000b53 9508      	RET
                 
                 ;OPTIMIZER ADDED SUBROUTINE, CALLED 2 TIMES, CODE SIZE REDUCTION:1 WORDS
                 SUBOPT_0x61:
000b54 e0e1      	LDI  R30,LOW(1)
000b55 93ea      	ST   -Y,R30
000b56 e0e0      	LDI  R30,LOW(0)
000b57 93ea      	ST   -Y,R30
000b58 9508      	RET
                 
                 ;OPTIMIZER ADDED SUBROUTINE, CALLED 6 TIMES, CODE SIZE REDUCTION:3 WORDS
                 SUBOPT_0x62:
000b59 93ba      	ST   -Y,R27
000b5a 93aa      	ST   -Y,R26
000b5b 9508      	RET
                 
                 ;OPTIMIZER ADDED SUBROUTINE, CALLED 6 TIMES, CODE SIZE REDUCTION:3 WORDS
                 SUBOPT_0x63:
000b5c 81aa      	LDD  R26,Y+2
000b5d 81bb      	LDD  R27,Y+2+1
000b5e 9508      	RET
                 
                 ;OPTIMIZER ADDED SUBROUTINE, CALLED 5 TIMES, CODE SIZE REDUCTION:2 WORDS
                 SUBOPT_0x64:
000b5f 9614      	ADIW R26,4
000b60 d1a5      	RCALL __GETW1P
000b61 9508      	RET
                 
                 ;OPTIMIZER ADDED SUBROUTINE, CALLED 2 TIMES, CODE SIZE REDUCTION:2 WORDS
                 SUBOPT_0x65:
000b62 91ed      	LD   R30,X+
000b63 91fd      	LD   R31,X+
000b64 9631      	ADIW R30,1
000b65 93fe      	ST   -X,R31
000b66 93ee      	ST   -X,R30
000b67 9508      	RET
                 
                 ;OPTIMIZER ADDED SUBROUTINE, CALLED 5 TIMES, CODE SIZE REDUCTION:18 WORDS
                 SUBOPT_0x66:
000b68 932a      	ST   -Y,R18
000b69 85ad      	LDD  R26,Y+13
000b6a 85be      	LDD  R27,Y+13+1
000b6b 85ef      	LDD  R30,Y+15
000b6c 89f8      	LDD  R31,Y+15+1
000b6d 9509      	ICALL
000b6e 9508      	RET
                 
                 ;OPTIMIZER ADDED SUBROUTINE, CALLED 6 TIMES, CODE SIZE REDUCTION:3 WORDS
                 SUBOPT_0x67:
000b6f 89e8      	LDD  R30,Y+16
000b70 89f9      	LDD  R31,Y+16+1
000b71 9508      	RET
                 
                 ;OPTIMIZER ADDED SUBROUTINE, CALLED 5 TIMES, CODE SIZE REDUCTION:6 WORDS
                 SUBOPT_0x68:
000b72 9734      	SBIW R30,4
000b73 8be8      	STD  Y+16,R30
000b74 8bf9      	STD  Y+16+1,R31
000b75 9508      	RET
                 
                 ;OPTIMIZER ADDED SUBROUTINE, CALLED 3 TIMES, CODE SIZE REDUCTION:6 WORDS
                 SUBOPT_0x69:
000b76 85ad      	LDD  R26,Y+13
000b77 85be      	LDD  R27,Y+13+1
000b78 85ef      	LDD  R30,Y+15
000b79 89f8      	LDD  R31,Y+15+1
000b7a 9509      	ICALL
000b7b 9508      	RET
                 
                 ;OPTIMIZER ADDED SUBROUTINE, CALLED 4 TIMES, CODE SIZE REDUCTION:1 WORDS
                 SUBOPT_0x6A:
000b7c dff2      	RCALL SUBOPT_0x67
000b7d cff4      	RJMP SUBOPT_0x68
                 
                 ;OPTIMIZER ADDED SUBROUTINE, CALLED 4 TIMES, CODE SIZE REDUCTION:4 WORDS
                 SUBOPT_0x6B:
000b7e 89a8      	LDD  R26,Y+16
000b7f 89b9      	LDD  R27,Y+16+1
000b80 cfde      	RJMP SUBOPT_0x64
                 
                 ;OPTIMIZER ADDED SUBROUTINE, CALLED 2 TIMES, CODE SIZE REDUCTION:1 WORDS
                 SUBOPT_0x6C:
000b81 83ee      	STD  Y+6,R30
000b82 83ff      	STD  Y+6+1,R31
000b83 81ae      	LDD  R26,Y+6
000b84 81bf      	LDD  R27,Y+6+1
000b85 9508      	RET
                 
                 ;OPTIMIZER ADDED SUBROUTINE, CALLED 5 TIMES, CODE SIZE REDUCTION:2 WORDS
                 SUBOPT_0x6D:
000b86 83ee      	STD  Y+6,R30
000b87 83ff      	STD  Y+6+1,R31
000b88 9508      	RET
                 
                 ;OPTIMIZER ADDED SUBROUTINE, CALLED 4 TIMES, CODE SIZE REDUCTION:1 WORDS
                 SUBOPT_0x6E:
000b89 87ea      	STD  Y+10,R30
000b8a 87fb      	STD  Y+10+1,R31
000b8b 9508      	RET
                 
                 ;OPTIMIZER ADDED SUBROUTINE, CALLED 2 TIMES, CODE SIZE REDUCTION:1 WORDS
                 SUBOPT_0x6F:
000b8c 01de      	MOVW R26,R28
000b8d 961c      	ADIW R26,12
000b8e d141      	RCALL __ADDW2R15
000b8f d176      	RCALL __GETW1P
000b90 9508      	RET
                 
                 ;OPTIMIZER ADDED SUBROUTINE, CALLED 3 TIMES, CODE SIZE REDUCTION:8 WORDS
                 SUBOPT_0x70:
000b91 e3a0      	LDI  R26,LOW(48)
000b92 dc97      	RCALL __lcd_write_nibble_G101
                +
000b93 e28c     +LDI R24 , LOW ( 300 )
000b94 e091     +LDI R25 , HIGH ( 300 )
                +__DELAY_USW_LOOP :
000b95 9701     +SBIW R24 , 1
000b96 f7f1     +BRNE __DELAY_USW_LOOP
                 	__DELAY_USW 300
000b97 9508      	RET
                 
                 
                 	.CSEG
                 _delay_ms:
000b98 9610      	adiw r26,0
000b99 f039      	breq __delay_ms1
                 __delay_ms0:
                +
000b9a eb88     +LDI R24 , LOW ( 0xBB8 )
000b9b e09b     +LDI R25 , HIGH ( 0xBB8 )
                +__DELAY_USW_LOOP :
000b9c 9701     +SBIW R24 , 1
000b9d f7f1     +BRNE __DELAY_USW_LOOP
                 	__DELAY_USW 0xBB8
000b9e 95a8      	wdr
000b9f 9711      	sbiw r26,1
000ba0 f7c9      	brne __delay_ms0
                 __delay_ms1:
000ba1 9508      	ret
                 
                 __ROUND_REPACK:
000ba2 2355      	TST  R21
000ba3 f442      	BRPL __REPACK
000ba4 3850      	CPI  R21,0x80
000ba5 f411      	BRNE __ROUND_REPACK0
000ba6 ffe0      	SBRS R30,0
000ba7 c004      	RJMP __REPACK
                 __ROUND_REPACK0:
000ba8 9631      	ADIW R30,1
000ba9 1f69      	ADC  R22,R25
000baa 1f79      	ADC  R23,R25
000bab f06b      	BRVS __REPACK1
                 
                 __REPACK:
000bac e850      	LDI  R21,0x80
000bad 2757      	EOR  R21,R23
000bae f411      	BRNE __REPACK0
000baf 935f      	PUSH R21
000bb0 c0c8      	RJMP __ZERORES
                 __REPACK0:
000bb1 3f5f      	CPI  R21,0xFF
000bb2 f031      	BREQ __REPACK1
000bb3 0f66      	LSL  R22
000bb4 0c00      	LSL  R0
000bb5 9557      	ROR  R21
000bb6 9567      	ROR  R22
000bb7 2f75      	MOV  R23,R21
000bb8 9508      	RET
                 __REPACK1:
000bb9 935f      	PUSH R21
000bba 2000      	TST  R0
000bbb f00a      	BRMI __REPACK2
000bbc c0c8      	RJMP __MAXRES
                 __REPACK2:
000bbd c0c1      	RJMP __MINRES
                 
                 __UNPACK:
000bbe e850      	LDI  R21,0x80
000bbf 2e19      	MOV  R1,R25
000bc0 2215      	AND  R1,R21
000bc1 0f88      	LSL  R24
000bc2 1f99      	ROL  R25
000bc3 2795      	EOR  R25,R21
000bc4 0f55      	LSL  R21
000bc5 9587      	ROR  R24
                 
                 __UNPACK1:
000bc6 e850      	LDI  R21,0x80
000bc7 2e07      	MOV  R0,R23
000bc8 2205      	AND  R0,R21
000bc9 0f66      	LSL  R22
000bca 1f77      	ROL  R23
000bcb 2775      	EOR  R23,R21
000bcc 0f55      	LSL  R21
000bcd 9567      	ROR  R22
000bce 9508      	RET
                 
                 __CFD1U:
000bcf 9468      	SET
000bd0 c001      	RJMP __CFD1U0
                 __CFD1:
000bd1 94e8      	CLT
                 __CFD1U0:
000bd2 935f      	PUSH R21
000bd3 dff2      	RCALL __UNPACK1
000bd4 3870      	CPI  R23,0x80
000bd5 f018      	BRLO __CFD10
000bd6 3f7f      	CPI  R23,0xFF
000bd7 f408      	BRCC __CFD10
000bd8 c0a0      	RJMP __ZERORES
                 __CFD10:
000bd9 e156      	LDI  R21,22
000bda 1b57      	SUB  R21,R23
000bdb f4aa      	BRPL __CFD11
000bdc 9551      	NEG  R21
000bdd 3058      	CPI  R21,8
000bde f40e      	BRTC __CFD19
000bdf 3059      	CPI  R21,9
                 __CFD19:
000be0 f030      	BRLO __CFD17
000be1 efef      	SER  R30
000be2 efff      	SER  R31
000be3 ef6f      	SER  R22
000be4 e77f      	LDI  R23,0x7F
000be5 f977      	BLD  R23,7
000be6 c01a      	RJMP __CFD15
                 __CFD17:
000be7 2777      	CLR  R23
000be8 2355      	TST  R21
000be9 f0b9      	BREQ __CFD15
                 __CFD18:
000bea 0fee      	LSL  R30
000beb 1fff      	ROL  R31
000bec 1f66      	ROL  R22
000bed 1f77      	ROL  R23
000bee 955a      	DEC  R21
000bef f7d1      	BRNE __CFD18
000bf0 c010      	RJMP __CFD15
                 __CFD11:
000bf1 2777      	CLR  R23
                 __CFD12:
000bf2 3058      	CPI  R21,8
000bf3 f028      	BRLO __CFD13
000bf4 2fef      	MOV  R30,R31
000bf5 2ff6      	MOV  R31,R22
000bf6 2f67      	MOV  R22,R23
000bf7 5058      	SUBI R21,8
000bf8 cff9      	RJMP __CFD12
                 __CFD13:
000bf9 2355      	TST  R21
000bfa f031      	BREQ __CFD15
                 __CFD14:
000bfb 9576      	LSR  R23
000bfc 9567      	ROR  R22
000bfd 95f7      	ROR  R31
000bfe 95e7      	ROR  R30
000bff 955a      	DEC  R21
000c00 f7d1      	BRNE __CFD14
                 __CFD15:
000c01 2000      	TST  R0
000c02 f40a      	BRPL __CFD16
000c03 d0d4      	RCALL __ANEGD1
                 __CFD16:
000c04 915f      	POP  R21
000c05 9508      	RET
                 
                 __CDF1U:
000c06 9468      	SET
000c07 c001      	RJMP __CDF1U0
                 __CDF1:
000c08 94e8      	CLT
                 __CDF1U0:
000c09 9730      	SBIW R30,0
000c0a 4060      	SBCI R22,0
000c0b 4070      	SBCI R23,0
000c0c f0b1      	BREQ __CDF10
000c0d 2400      	CLR  R0
000c0e f026      	BRTS __CDF11
000c0f 2377      	TST  R23
000c10 f412      	BRPL __CDF11
000c11 9400      	COM  R0
000c12 d0c5      	RCALL __ANEGD1
                 __CDF11:
000c13 2e17      	MOV  R1,R23
000c14 e17e      	LDI  R23,30
000c15 2011      	TST  R1
                 __CDF12:
000c16 f032      	BRMI __CDF13
000c17 957a      	DEC  R23
000c18 0fee      	LSL  R30
000c19 1fff      	ROL  R31
000c1a 1f66      	ROL  R22
000c1b 1c11      	ROL  R1
000c1c cff9      	RJMP __CDF12
                 __CDF13:
000c1d 2fef      	MOV  R30,R31
000c1e 2ff6      	MOV  R31,R22
000c1f 2d61      	MOV  R22,R1
000c20 935f      	PUSH R21
000c21 df8a      	RCALL __REPACK
000c22 915f      	POP  R21
                 __CDF10:
000c23 9508      	RET
                 
                 __SWAPACC:
000c24 934f      	PUSH R20
000c25 01af      	MOVW R20,R30
000c26 01fd      	MOVW R30,R26
000c27 01da      	MOVW R26,R20
000c28 01ab      	MOVW R20,R22
000c29 01bc      	MOVW R22,R24
000c2a 01ca      	MOVW R24,R20
000c2b 2d40      	MOV  R20,R0
000c2c 2c01      	MOV  R0,R1
000c2d 2e14      	MOV  R1,R20
000c2e 914f      	POP  R20
000c2f 9508      	RET
                 
                 __UADD12:
000c30 0fea      	ADD  R30,R26
000c31 1ffb      	ADC  R31,R27
000c32 1f68      	ADC  R22,R24
000c33 9508      	RET
                 
                 __NEGMAN1:
000c34 95e0      	COM  R30
000c35 95f0      	COM  R31
000c36 9560      	COM  R22
000c37 5fef      	SUBI R30,-1
000c38 4fff      	SBCI R31,-1
000c39 4f6f      	SBCI R22,-1
000c3a 9508      	RET
                 
                 __ADDF12:
000c3b 935f      	PUSH R21
000c3c df81      	RCALL __UNPACK
000c3d 3890      	CPI  R25,0x80
000c3e f139      	BREQ __ADDF129
                 
                 __ADDF120:
000c3f 3870      	CPI  R23,0x80
000c40 f121      	BREQ __ADDF128
                 __ADDF121:
000c41 2f57      	MOV  R21,R23
000c42 1b59      	SUB  R21,R25
000c43 f12b      	BRVS __ADDF1211
000c44 f412      	BRPL __ADDF122
000c45 dfde      	RCALL __SWAPACC
000c46 cffa      	RJMP __ADDF121
                 __ADDF122:
000c47 3158      	CPI  R21,24
000c48 f018      	BRLO __ADDF123
000c49 27aa      	CLR  R26
000c4a 27bb      	CLR  R27
000c4b 2788      	CLR  R24
                 __ADDF123:
000c4c 3058      	CPI  R21,8
000c4d f028      	BRLO __ADDF124
000c4e 2fab      	MOV  R26,R27
000c4f 2fb8      	MOV  R27,R24
000c50 2788      	CLR  R24
000c51 5058      	SUBI R21,8
000c52 cff9      	RJMP __ADDF123
                 __ADDF124:
000c53 2355      	TST  R21
000c54 f029      	BREQ __ADDF126
                 __ADDF125:
000c55 9586      	LSR  R24
000c56 95b7      	ROR  R27
000c57 95a7      	ROR  R26
000c58 955a      	DEC  R21
000c59 f7d9      	BRNE __ADDF125
                 __ADDF126:
000c5a 2d50      	MOV  R21,R0
000c5b 2551      	EOR  R21,R1
000c5c f072      	BRMI __ADDF127
000c5d dfd2      	RCALL __UADD12
000c5e f438      	BRCC __ADDF129
000c5f 9567      	ROR  R22
000c60 95f7      	ROR  R31
000c61 95e7      	ROR  R30
000c62 9573      	INC  R23
000c63 f413      	BRVC __ADDF129
000c64 c020      	RJMP __MAXRES
                 __ADDF128:
000c65 dfbe      	RCALL __SWAPACC
                 __ADDF129:
000c66 df45      	RCALL __REPACK
000c67 915f      	POP  R21
000c68 9508      	RET
                 __ADDF1211:
000c69 f7d8      	BRCC __ADDF128
000c6a cffb      	RJMP __ADDF129
                 __ADDF127:
000c6b 1bea      	SUB  R30,R26
000c6c 0bfb      	SBC  R31,R27
000c6d 0b68      	SBC  R22,R24
000c6e f051      	BREQ __ZERORES
000c6f f410      	BRCC __ADDF1210
000c70 9400      	COM  R0
000c71 dfc2      	RCALL __NEGMAN1
                 __ADDF1210:
000c72 2366      	TST  R22
000c73 f392      	BRMI __ADDF129
000c74 0fee      	LSL  R30
000c75 1fff      	ROL  R31
000c76 1f66      	ROL  R22
000c77 957a      	DEC  R23
000c78 f7cb      	BRVC __ADDF1210
                 
                 __ZERORES:
000c79 27ee      	CLR  R30
000c7a 27ff      	CLR  R31
000c7b 2766      	CLR  R22
000c7c 2777      	CLR  R23
000c7d 915f      	POP  R21
000c7e 9508      	RET
                 
                 __MINRES:
000c7f efef      	SER  R30
000c80 efff      	SER  R31
000c81 e76f      	LDI  R22,0x7F
000c82 ef7f      	SER  R23
000c83 915f      	POP  R21
000c84 9508      	RET
                 
                 __MAXRES:
000c85 efef      	SER  R30
000c86 efff      	SER  R31
000c87 e76f      	LDI  R22,0x7F
000c88 e77f      	LDI  R23,0x7F
000c89 915f      	POP  R21
000c8a 9508      	RET
                 
                 __DIVF21:
000c8b 935f      	PUSH R21
000c8c df31      	RCALL __UNPACK
000c8d 3870      	CPI  R23,0x80
000c8e f421      	BRNE __DIVF210
000c8f 2011      	TST  R1
                 __DIVF211:
000c90 f40a      	BRPL __DIVF219
000c91 cfed      	RJMP __MINRES
                 __DIVF219:
000c92 cff2      	RJMP __MAXRES
                 __DIVF210:
000c93 3890      	CPI  R25,0x80
000c94 f409      	BRNE __DIVF218
                 __DIVF217:
000c95 cfe3      	RJMP __ZERORES
                 __DIVF218:
000c96 2401      	EOR  R0,R1
000c97 9408      	SEC
000c98 0b97      	SBC  R25,R23
000c99 f41b      	BRVC __DIVF216
000c9a f3d4      	BRLT __DIVF217
000c9b 2000      	TST  R0
000c9c cff3      	RJMP __DIVF211
                 __DIVF216:
000c9d 2f79      	MOV  R23,R25
000c9e 931f      	PUSH R17
000c9f 932f      	PUSH R18
000ca0 933f      	PUSH R19
000ca1 934f      	PUSH R20
000ca2 2411      	CLR  R1
000ca3 2711      	CLR  R17
000ca4 2722      	CLR  R18
000ca5 2733      	CLR  R19
000ca6 2744      	CLR  R20
000ca7 2755      	CLR  R21
000ca8 e290      	LDI  R25,32
                 __DIVF212:
000ca9 17ae      	CP   R26,R30
000caa 07bf      	CPC  R27,R31
000cab 0786      	CPC  R24,R22
000cac 0741      	CPC  R20,R17
000cad f030      	BRLO __DIVF213
000cae 1bae      	SUB  R26,R30
000caf 0bbf      	SBC  R27,R31
000cb0 0b86      	SBC  R24,R22
000cb1 0b41      	SBC  R20,R17
000cb2 9408      	SEC
000cb3 c001      	RJMP __DIVF214
                 __DIVF213:
000cb4 9488      	CLC
                 __DIVF214:
000cb5 1f55      	ROL  R21
000cb6 1f22      	ROL  R18
000cb7 1f33      	ROL  R19
000cb8 1c11      	ROL  R1
000cb9 1faa      	ROL  R26
000cba 1fbb      	ROL  R27
000cbb 1f88      	ROL  R24
000cbc 1f44      	ROL  R20
000cbd 959a      	DEC  R25
000cbe f751      	BRNE __DIVF212
000cbf 01f9      	MOVW R30,R18
000cc0 2d61      	MOV  R22,R1
000cc1 914f      	POP  R20
000cc2 913f      	POP  R19
000cc3 912f      	POP  R18
000cc4 911f      	POP  R17
000cc5 2366      	TST  R22
000cc6 f032      	BRMI __DIVF215
000cc7 0f55      	LSL  R21
000cc8 1fee      	ROL  R30
000cc9 1fff      	ROL  R31
000cca 1f66      	ROL  R22
000ccb 957a      	DEC  R23
000ccc f243      	BRVS __DIVF217
                 __DIVF215:
000ccd ded4      	RCALL __ROUND_REPACK
000cce 915f      	POP  R21
000ccf 9508      	RET
                 
                 __ADDW2R15:
000cd0 2400      	CLR  R0
000cd1 0daf      	ADD  R26,R15
000cd2 1db0      	ADC  R27,R0
000cd3 9508      	RET
                 
                 __ANEGW1:
000cd4 95f1      	NEG  R31
000cd5 95e1      	NEG  R30
000cd6 40f0      	SBCI R31,0
000cd7 9508      	RET
                 
                 __ANEGD1:
000cd8 95f0      	COM  R31
000cd9 9560      	COM  R22
000cda 9570      	COM  R23
000cdb 95e1      	NEG  R30
000cdc 4fff      	SBCI R31,-1
000cdd 4f6f      	SBCI R22,-1
000cde 4f7f      	SBCI R23,-1
000cdf 9508      	RET
                 
                 __CBD1:
000ce0 2ffe      	MOV  R31,R30
000ce1 0fff      	ADD  R31,R31
000ce2 0bff      	SBC  R31,R31
000ce3 2f6f      	MOV  R22,R31
000ce4 2f7f      	MOV  R23,R31
000ce5 9508      	RET
                 
                 __CWD1:
000ce6 2f6f      	MOV  R22,R31
000ce7 0f66      	ADD  R22,R22
000ce8 0b66      	SBC  R22,R22
000ce9 2f76      	MOV  R23,R22
000cea 9508      	RET
                 
                 __MULW12U:
000ceb 9ffa      	MUL  R31,R26
000cec 2df0      	MOV  R31,R0
000ced 9feb      	MUL  R30,R27
000cee 0df0      	ADD  R31,R0
000cef 9fea      	MUL  R30,R26
000cf0 2de0      	MOV  R30,R0
000cf1 0df1      	ADD  R31,R1
000cf2 9508      	RET
                 
                 __MULW12:
000cf3 d004      	RCALL __CHKSIGNW
000cf4 dff6      	RCALL __MULW12U
000cf5 f40e      	BRTC __MULW121
000cf6 dfdd      	RCALL __ANEGW1
                 __MULW121:
000cf7 9508      	RET
                 
                 __CHKSIGNW:
000cf8 94e8      	CLT
000cf9 fff7      	SBRS R31,7
000cfa c002      	RJMP __CHKSW1
000cfb dfd8      	RCALL __ANEGW1
000cfc 9468      	SET
                 __CHKSW1:
000cfd ffb7      	SBRS R27,7
000cfe c006      	RJMP __CHKSW2
000cff 95a0      	COM  R26
000d00 95b0      	COM  R27
000d01 9611      	ADIW R26,1
000d02 f800      	BLD  R0,0
000d03 9403      	INC  R0
000d04 fa00      	BST  R0,0
                 __CHKSW2:
000d05 9508      	RET
                 
                 __GETW1P:
000d06 91ed      	LD   R30,X+
000d07 91fc      	LD   R31,X
000d08 9711      	SBIW R26,1
000d09 9508      	RET
                 
                 __GETW1PF:
000d0a 9005      	LPM  R0,Z+
000d0b 91f4      	LPM  R31,Z
000d0c 2de0      	MOV  R30,R0
000d0d 9508      	RET
                 
                 __PUTPARD1:
000d0e 937a      	ST   -Y,R23
000d0f 936a      	ST   -Y,R22
000d10 93fa      	ST   -Y,R31
000d11 93ea      	ST   -Y,R30
000d12 9508      	RET
                 
                 __EEPROMRDB:
000d13 99e1      	SBIC EECR,EEWE
000d14 cffe      	RJMP __EEPROMRDB
000d15 93ff      	PUSH R31
000d16 b7ff      	IN   R31,SREG
000d17 94f8      	CLI
000d18 bbae      	OUT  EEARL,R26
000d19 bbbf      	OUT  EEARH,R27
000d1a 9ae0      	SBI  EECR,EERE
000d1b b3ed      	IN   R30,EEDR
000d1c bfff      	OUT  SREG,R31
000d1d 91ff      	POP  R31
000d1e 9508      	RET
                 
                 __EEPROMWRB:
000d1f 9be1      	SBIS EECR,EEWE
000d20 c002      	RJMP __EEPROMWRB1
000d21 95a8      	WDR
000d22 cffc      	RJMP __EEPROMWRB
                 __EEPROMWRB1:
000d23 b79f      	IN   R25,SREG
000d24 94f8      	CLI
000d25 bbae      	OUT  EEARL,R26
000d26 bbbf      	OUT  EEARH,R27
000d27 9ae0      	SBI  EECR,EERE
000d28 b38d      	IN   R24,EEDR
000d29 17e8      	CP   R30,R24
000d2a f019      	BREQ __EEPROMWRB0
000d2b bbed      	OUT  EEDR,R30
000d2c 9ae2      	SBI  EECR,EEMWE
000d2d 9ae1      	SBI  EECR,EEWE
                 __EEPROMWRB0:
000d2e bf9f      	OUT  SREG,R25
000d2f 9508      	RET
                 
                 __CPW02:
000d30 2400      	CLR  R0
000d31 160a      	CP   R0,R26
000d32 060b      	CPC  R0,R27
000d33 9508      	RET
                 
                 __SAVELOCR6:
000d34 935a      	ST   -Y,R21
                 __SAVELOCR5:
000d35 934a      	ST   -Y,R20
                 __SAVELOCR4:
000d36 933a      	ST   -Y,R19
                 __SAVELOCR3:
000d37 932a      	ST   -Y,R18
                 __SAVELOCR2:
000d38 931a      	ST   -Y,R17
000d39 930a      	ST   -Y,R16
000d3a 9508      	RET
                 
                 __LOADLOCR6:
000d3b 815d      	LDD  R21,Y+5
                 __LOADLOCR5:
000d3c 814c      	LDD  R20,Y+4
                 __LOADLOCR4:
000d3d 813b      	LDD  R19,Y+3
                 __LOADLOCR3:
000d3e 812a      	LDD  R18,Y+2
                 __LOADLOCR2:
000d3f 8119      	LDD  R17,Y+1
000d40 8108      	LD   R16,Y
000d41 9508      	RET
                 
                 ;END OF CODE MARKER
                 __END_OF_CODE:


RESOURCE USE INFORMATION
------------------------

Notice:
The register and instruction counts are symbol table hit counts,
and hence implicitly used resources are not counted, eg, the
'lpm' instruction without operands implicitly uses r0 and z,
none of which are counted.

x,y,z are separate entities in the symbol table and are
counted separately from r26..r31 here.

.dseg memory usage only counts static data declared with .byte

ATmega8535L register use summary:
r0 :  42 r1 :  16 r2 :   0 r3 :   0 r4 :   4 r5 :   4 r6 :   4 r7 :   4 
r8 :   2 r9 :   2 r10:  70 r11:   7 r12:   4 r13:  19 r14:   0 r15:   4 
r16:  32 r17:  30 r18:  34 r19:  12 r20:  23 r21:  68 r22:  65 r23:  49 
r24:  46 r25:  21 r26: 327 r27: 116 r28:  19 r29:   1 r30: 724 r31: 212 
x  :  19 y  : 149 z  :  16 
Registers used: 32 out of 35 (91.4%)

ATmega8535L instruction use summary:
.lds  :   0 .lds.l:   0 .sts  :   0 .sts.l:   0 adc   :   7 add   :  18 
adiw  :  29 and   :   2 andi  :   7 asr   :   0 bclr  :   0 bld   :   2 
brbc  :   0 brbs  :   0 brcc  :   4 brcs  :   0 break :   0 breq  :  37 
brge  :  16 brhc  :   0 brhs  :   0 brid  :   0 brie  :   0 brlo  :  27 
brlt  :   7 brmi  :   6 brne  : 125 brpl  :  13 brsh  :  34 brtc  :   2 
brts  :   1 brvc  :   3 brvs  :   3 bset  :   0 bst   :   1 cbi   :  10 
cbr   :   0 clc   :   1 clh   :   0 cli   :   3 cln   :   0 clr   :  45 
cls   :   0 clt   :   3 clv   :   0 clz   :   0 com   :  10 cp    : 107 
cpc   :  10 cpi   :  79 cpse  :   0 dec   :  14 des   :   0 eor   :   5 
fmul  :   0 fmuls :   0 fmulsu:   0 icall :   2 ijmp  :   0 in    :   8 
inc   :   5 ld    :  26 ldd   :  68 ldi   : 472 lds   : 114 lpm   :  16 
lsl   :  16 lsr   :   2 mov   :  63 movw  :  32 mul   :   7 muls  :   4 
mulsu :   0 neg   :   4 nop   :   0 or    :   1 ori   :   8 out   :  62 
pop   :  30 push  :  29 rcall : 599 ret   : 129 reti  :   0 rjmp  : 223 
rol   :  21 ror   :  12 sbc   :  14 sbci  :  11 sbi   :  21 sbic  :  21 
sbis  :  30 sbiw  :  23 sbr   :   0 sbrc  :   2 sbrs  :  13 sec   :   2 
seh   :   0 sei   :   0 sen   :   0 ser   :   8 ses   :   0 set   :   3 
sev   :   0 sez   :   0 sleep :   0 spm   :   0 st    :  56 std   :  21 
sts   : 138 sub   :  10 subi  :  28 swap  :   1 tst   :  23 wdr   :   2 

Instructions used: 75 out of 114 (65.8%)

ATmega8535L memory use summary [bytes]:
Segment   Begin    End      Code   Data   Used    Size   Use%
---------------------------------------------------------------
[.cseg] 0x000000 0x001a84   6520    268   6788    8192  82.9%
[.dseg] 0x000060 0x00014d      0    109    109     607  18.0%
[.eseg] 0x000000 0x00000d      0     13     13     512   2.5%

Assembly complete, 0 errors, 11 warnings
